ARM GAS  C:\Users\DAVISS~1\AppData\Local\Temp\ccQF6c82.s 			page 1


   1              		.syntax unified
   2              		.cpu cortex-m0
   3              		.fpu softvfp
   4              		.eabi_attribute 20, 1
   5              		.eabi_attribute 21, 1
   6              		.eabi_attribute 23, 3
   7              		.eabi_attribute 24, 1
   8              		.eabi_attribute 25, 1
   9              		.eabi_attribute 26, 1
  10              		.eabi_attribute 30, 1
  11              		.eabi_attribute 34, 0
  12              		.eabi_attribute 18, 4
  13              		.thumb
  14              		.syntax unified
  15              		.file	"CANCommon.c"
  16              		.text
  17              	.Ltext0:
  18              		.cfi_sections	.debug_frame
  19              		.section	.text.AssembleEmergencyStopPacket,"ax",%progbits
  20              		.align	2
  21              		.global	AssembleEmergencyStopPacket
  22              		.code	16
  23              		.thumb_func
  24              		.type	AssembleEmergencyStopPacket, %function
  25              	AssembleEmergencyStopPacket:
  26              	.LFB0:
  27              		.file 1 "HindsightCAN\\CANCommon.c"
   1:HindsightCAN/CANCommon.c **** /* File:         CANCommon.c
   2:HindsightCAN/CANCommon.c ****  * Authors:      Jaden Bottemiller, Benton Kwong, Dylan Tomberlin.
   3:HindsightCAN/CANCommon.c ****  * Organization: Husky Robotics Team
   4:HindsightCAN/CANCommon.c ****  * 
   5:HindsightCAN/CANCommon.c ****  * This file includes fuction definitions for Common Mode CAN Communication
   6:HindsightCAN/CANCommon.c ****  * using the Hindsight CAN Communication standard.
   7:HindsightCAN/CANCommon.c ****  * Documentation: https://huskyroboticsteam.slite.com/app/channels/iU0BryG7M9/collections/aXvWTcIR6
   8:HindsightCAN/CANCommon.c ****  */
   9:HindsightCAN/CANCommon.c **** 
  10:HindsightCAN/CANCommon.c **** #include "CANPacket.h"
  11:HindsightCAN/CANCommon.c **** #include "CANCommon.h"
  12:HindsightCAN/CANCommon.c **** #include "Port.h"
  13:HindsightCAN/CANCommon.c **** // Assembles Emergency Stop Packet with given parameters
  14:HindsightCAN/CANCommon.c **** // Inputs:
  15:HindsightCAN/CANCommon.c **** //      packet:                     CAN Packet to assemble (will overwrite).
  16:HindsightCAN/CANCommon.c **** //      targetDeviceGroup:          Group to target
  17:HindsightCAN/CANCommon.c **** //      targetDeviceSerialNumber:   Serial number of target device
  18:HindsightCAN/CANCommon.c **** //      errorCode:                  Emergency stop error code. E.G. ESTOP_ERR_GENERAL
  19:HindsightCAN/CANCommon.c **** void AssembleEmergencyStopPacket(CANPacket *packet,
  20:HindsightCAN/CANCommon.c ****     uint8_t targetDeviceGroup,
  21:HindsightCAN/CANCommon.c ****     uint8_t targetDeviceSerialNumber,
  22:HindsightCAN/CANCommon.c ****     uint8_t errorCode)
  23:HindsightCAN/CANCommon.c **** {
  28              		.loc 1 23 0
  29              		.cfi_startproc
  30              		@ args = 0, pretend = 0, frame = 0
  31              		@ frame_needed = 0, uses_anonymous_args = 0
  32              	.LVL0:
  33 0000 70B5     		push	{r4, r5, r6, lr}
  34              		.cfi_def_cfa_offset 16
ARM GAS  C:\Users\DAVISS~1\AppData\Local\Temp\ccQF6c82.s 			page 2


  35              		.cfi_offset 4, -16
  36              		.cfi_offset 5, -12
  37              		.cfi_offset 6, -8
  38              		.cfi_offset 14, -4
  39 0002 0400     		movs	r4, r0
  40 0004 1D00     		movs	r5, r3
  24:HindsightCAN/CANCommon.c ****     packet->dlc = DLC_ESTOP;
  41              		.loc 1 24 0
  42 0006 0423     		movs	r3, #4
  43              	.LVL1:
  44 0008 8370     		strb	r3, [r0, #2]
  25:HindsightCAN/CANCommon.c ****     packet->id = ConstructCANID(PACKET_PRIORITY_HIGH, targetDeviceGroup, targetDeviceSerialNumber);
  45              		.loc 1 25 0
  46 000a 0020     		movs	r0, #0
  47              	.LVL2:
  48 000c FFF7FEFF 		bl	ConstructCANID
  49              	.LVL3:
  50 0010 2080     		strh	r0, [r4]
  26:HindsightCAN/CANCommon.c ****     int nextByte = WriteSenderSerialAndPacketID(packet->data, ID_ESTOP);
  51              		.loc 1 26 0
  52 0012 E01C     		adds	r0, r4, #3
  53 0014 F021     		movs	r1, #240
  54 0016 FFF7FEFF 		bl	WriteSenderSerialAndPacketID
  55              	.LVL4:
  27:HindsightCAN/CANCommon.c ****     packet->data[nextByte] = errorCode;
  56              		.loc 1 27 0
  57 001a 2418     		adds	r4, r4, r0
  58              	.LVL5:
  59 001c E570     		strb	r5, [r4, #3]
  28:HindsightCAN/CANCommon.c **** }
  60              		.loc 1 28 0
  61              		@ sp needed
  62 001e 70BD     		pop	{r4, r5, r6, pc}
  63              		.cfi_endproc
  64              	.LFE0:
  65              		.size	AssembleEmergencyStopPacket, .-AssembleEmergencyStopPacket
  66              		.section	.text.AssembleGroupBroadcastingEmergencyStopPacket,"ax",%progbits
  67              		.align	2
  68              		.global	AssembleGroupBroadcastingEmergencyStopPacket
  69              		.code	16
  70              		.thumb_func
  71              		.type	AssembleGroupBroadcastingEmergencyStopPacket, %function
  72              	AssembleGroupBroadcastingEmergencyStopPacket:
  73              	.LFB1:
  29:HindsightCAN/CANCommon.c **** 
  30:HindsightCAN/CANCommon.c **** // Assembles Emergency Stop Packet with given parameters.
  31:HindsightCAN/CANCommon.c **** // This will broadcast the emergency stop command to a desired device group.
  32:HindsightCAN/CANCommon.c **** // Inputs:
  33:HindsightCAN/CANCommon.c **** //      packet:                     CAN Packet to assemble (will overwrite).
  34:HindsightCAN/CANCommon.c **** //      deviceGroup:                Group to target
  35:HindsightCAN/CANCommon.c **** //      errorCode:                  Emergency stop error code. E.G. ESTOP_ERR_GENERAL
  36:HindsightCAN/CANCommon.c **** void AssembleGroupBroadcastingEmergencyStopPacket(CANPacket *packet, 
  37:HindsightCAN/CANCommon.c ****     uint8_t groupCode, 
  38:HindsightCAN/CANCommon.c ****     uint8_t errorCode)
  39:HindsightCAN/CANCommon.c **** {
  74              		.loc 1 39 0
  75              		.cfi_startproc
ARM GAS  C:\Users\DAVISS~1\AppData\Local\Temp\ccQF6c82.s 			page 3


  76              		@ args = 0, pretend = 0, frame = 0
  77              		@ frame_needed = 0, uses_anonymous_args = 0
  78              	.LVL6:
  79 0000 10B5     		push	{r4, lr}
  80              		.cfi_def_cfa_offset 8
  81              		.cfi_offset 4, -8
  82              		.cfi_offset 14, -4
  83 0002 1300     		movs	r3, r2
  40:HindsightCAN/CANCommon.c ****     AssembleEmergencyStopPacket(packet, groupCode, DEVICE_SERIAL_BROADCAST, errorCode);
  84              		.loc 1 40 0
  85 0004 0022     		movs	r2, #0
  86              	.LVL7:
  87 0006 FFF7FEFF 		bl	AssembleEmergencyStopPacket
  88              	.LVL8:
  41:HindsightCAN/CANCommon.c **** }
  89              		.loc 1 41 0
  90              		@ sp needed
  91 000a 10BD     		pop	{r4, pc}
  92              		.cfi_endproc
  93              	.LFE1:
  94              		.size	AssembleGroupBroadcastingEmergencyStopPacket, .-AssembleGroupBroadcastingEmergencyStopPacket
  95              		.section	.text.AssembleBrodcastEmergencyStopPacket,"ax",%progbits
  96              		.align	2
  97              		.global	AssembleBrodcastEmergencyStopPacket
  98              		.code	16
  99              		.thumb_func
 100              		.type	AssembleBrodcastEmergencyStopPacket, %function
 101              	AssembleBrodcastEmergencyStopPacket:
 102              	.LFB2:
  42:HindsightCAN/CANCommon.c **** 
  43:HindsightCAN/CANCommon.c **** // Assembles Emergency Stop Packet with given parameters.
  44:HindsightCAN/CANCommon.c **** // This will broadcast the emergency stop command to all devices
  45:HindsightCAN/CANCommon.c **** // Inputs:
  46:HindsightCAN/CANCommon.c **** //      packet:                     CAN Packet to assemble (will overwrite).
  47:HindsightCAN/CANCommon.c **** //      errorCode:                  Emergency stop error code. E.G. ESTOP_ERR_GENERAL
  48:HindsightCAN/CANCommon.c **** void AssembleBrodcastEmergencyStopPacket(CANPacket *packet, 
  49:HindsightCAN/CANCommon.c ****     uint8_t errorCode)
  50:HindsightCAN/CANCommon.c **** {
 103              		.loc 1 50 0
 104              		.cfi_startproc
 105              		@ args = 0, pretend = 0, frame = 0
 106              		@ frame_needed = 0, uses_anonymous_args = 0
 107              	.LVL9:
 108 0000 10B5     		push	{r4, lr}
 109              		.cfi_def_cfa_offset 8
 110              		.cfi_offset 4, -8
 111              		.cfi_offset 14, -4
 112 0002 0A00     		movs	r2, r1
  51:HindsightCAN/CANCommon.c ****     AssembleGroupBroadcastingEmergencyStopPacket(packet, DEVICE_GROUP_BROADCAST, errorCode);
 113              		.loc 1 51 0
 114 0004 0021     		movs	r1, #0
 115              	.LVL10:
 116 0006 FFF7FEFF 		bl	AssembleGroupBroadcastingEmergencyStopPacket
 117              	.LVL11:
  52:HindsightCAN/CANCommon.c **** }
 118              		.loc 1 52 0
 119              		@ sp needed
ARM GAS  C:\Users\DAVISS~1\AppData\Local\Temp\ccQF6c82.s 			page 4


 120 000a 10BD     		pop	{r4, pc}
 121              		.cfi_endproc
 122              	.LFE2:
 123              		.size	AssembleBrodcastEmergencyStopPacket, .-AssembleBrodcastEmergencyStopPacket
 124              		.section	.text.GetEmergencyStopErrorCode,"ax",%progbits
 125              		.align	2
 126              		.global	GetEmergencyStopErrorCode
 127              		.code	16
 128              		.thumb_func
 129              		.type	GetEmergencyStopErrorCode, %function
 130              	GetEmergencyStopErrorCode:
 131              	.LFB3:
  53:HindsightCAN/CANCommon.c **** 
  54:HindsightCAN/CANCommon.c **** // Gets the Error Code reported from an emergency stop packet.
  55:HindsightCAN/CANCommon.c **** // Inputs:
  56:HindsightCAN/CANCommon.c **** //      packet:     Packet to check.
  57:HindsightCAN/CANCommon.c **** uint8_t GetEmergencyStopErrorCode(CANPacket *packet)
  58:HindsightCAN/CANCommon.c **** {
 132              		.loc 1 58 0
 133              		.cfi_startproc
 134              		@ args = 0, pretend = 0, frame = 0
 135              		@ frame_needed = 0, uses_anonymous_args = 0
 136              	.LVL12:
 137 0000 10B5     		push	{r4, lr}
 138              		.cfi_def_cfa_offset 8
 139              		.cfi_offset 4, -8
 140              		.cfi_offset 14, -4
 141 0002 0400     		movs	r4, r0
  59:HindsightCAN/CANCommon.c ****     if (PacketIsOfID(packet, ID_ESTOP))
 142              		.loc 1 59 0
 143 0004 F021     		movs	r1, #240
 144 0006 FFF7FEFF 		bl	PacketIsOfID
 145              	.LVL13:
 146 000a 0028     		cmp	r0, #0
 147 000c 01D0     		beq	.L6
  60:HindsightCAN/CANCommon.c ****     {
  61:HindsightCAN/CANCommon.c ****         return packet->data[2];
 148              		.loc 1 61 0
 149 000e 6079     		ldrb	r0, [r4, #5]
 150 0010 00E0     		b	.L5
 151              	.L6:
  62:HindsightCAN/CANCommon.c ****     }
  63:HindsightCAN/CANCommon.c ****     else { return -1; }
 152              		.loc 1 63 0
 153 0012 FF20     		movs	r0, #255
 154              	.L5:
  64:HindsightCAN/CANCommon.c **** }
 155              		.loc 1 64 0
 156              		@ sp needed
 157              	.LVL14:
 158 0014 10BD     		pop	{r4, pc}
 159              		.cfi_endproc
 160              	.LFE3:
 161              		.size	GetEmergencyStopErrorCode, .-GetEmergencyStopErrorCode
 162 0016 C046     		.section	.text.GetHeartbeatTimeStamp,"ax",%progbits
 163              		.align	2
 164              		.global	GetHeartbeatTimeStamp
ARM GAS  C:\Users\DAVISS~1\AppData\Local\Temp\ccQF6c82.s 			page 5


 165              		.code	16
 166              		.thumb_func
 167              		.type	GetHeartbeatTimeStamp, %function
 168              	GetHeartbeatTimeStamp:
 169              	.LFB5:
  65:HindsightCAN/CANCommon.c **** 
  66:HindsightCAN/CANCommon.c **** // Validates the Heartbeat Packet, returns time between previous Heartbeat packets
  67:HindsightCAN/CANCommon.c **** // Inputs:
  68:HindsightCAN/CANCommon.c **** //      packet:         CAN Packet to check
  69:HindsightCAN/CANCommon.c **** //      lastHeartbeat:  Timestamp (ms) of last detected heartbeat
  70:HindsightCAN/CANCommon.c **** // Outputs:
  71:HindsightCAN/CANCommon.c **** //                  Time (in ms) between this heartbeat and the previous detected heartbeat
  72:HindsightCAN/CANCommon.c **** //                  Negative value if packet is not valid heartbeat packet
  73:HindsightCAN/CANCommon.c **** uint32_t GetTimeBetweenHeartbeatPacket(CANPacket *packet, uint32_t lastHeartbeat)
  74:HindsightCAN/CANCommon.c **** {
  75:HindsightCAN/CANCommon.c ****     if (PacketIsOfID(packet, ID_HEARTBEAT)) 
  76:HindsightCAN/CANCommon.c ****     {
  77:HindsightCAN/CANCommon.c ****         return GetHeartbeatTimeStamp(packet) - lastHeartbeat;
  78:HindsightCAN/CANCommon.c ****     }
  79:HindsightCAN/CANCommon.c ****     else { return -1; }
  80:HindsightCAN/CANCommon.c **** }
  81:HindsightCAN/CANCommon.c **** 
  82:HindsightCAN/CANCommon.c **** // Validates the Heartbeat Packet, returns time between previous Heartbeat packets
  83:HindsightCAN/CANCommon.c **** // Inputs:
  84:HindsightCAN/CANCommon.c **** //      packet:         CAN Packet to check
  85:HindsightCAN/CANCommon.c **** //      lastHeartbeat:  Timestamp (ms) of last detected heartbeat
  86:HindsightCAN/CANCommon.c **** // Outputs:
  87:HindsightCAN/CANCommon.c **** //                  Time (in ms) of the timestamp within the packet
  88:HindsightCAN/CANCommon.c **** //                  Default return value is uint32 max value, which is used
  89:HindsightCAN/CANCommon.c **** //                  if the packet is corrupt or not a heartbeat packet.
  90:HindsightCAN/CANCommon.c **** uint32_t GetHeartbeatTimeStamp(CANPacket *packet)
  91:HindsightCAN/CANCommon.c **** {
 170              		.loc 1 91 0
 171              		.cfi_startproc
 172              		@ args = 0, pretend = 0, frame = 0
 173              		@ frame_needed = 0, uses_anonymous_args = 0
 174              	.LVL15:
 175 0000 10B5     		push	{r4, lr}
 176              		.cfi_def_cfa_offset 8
 177              		.cfi_offset 4, -8
 178              		.cfi_offset 14, -4
 179 0002 0400     		movs	r4, r0
  92:HindsightCAN/CANCommon.c ****     if (PacketIsOfID(packet, ID_HEARTBEAT)) 
 180              		.loc 1 92 0
 181 0004 F121     		movs	r1, #241
 182 0006 FFF7FEFF 		bl	PacketIsOfID
 183              	.LVL16:
 184 000a 0028     		cmp	r0, #0
 185 000c 0AD0     		beq	.L9
 186              	.LBB2:
  93:HindsightCAN/CANCommon.c ****     {
  94:HindsightCAN/CANCommon.c ****         uint32_t time = ((uint32_t)packet->data[3] << 24);
 187              		.loc 1 94 0
 188 000e A079     		ldrb	r0, [r4, #6]
 189 0010 0006     		lsls	r0, r0, #24
 190              	.LVL17:
  95:HindsightCAN/CANCommon.c ****         time |= ((uint32_t)packet->data[4] << 16);
ARM GAS  C:\Users\DAVISS~1\AppData\Local\Temp\ccQF6c82.s 			page 6


 191              		.loc 1 95 0
 192 0012 E379     		ldrb	r3, [r4, #7]
 193 0014 1B04     		lsls	r3, r3, #16
 194 0016 1843     		orrs	r0, r3
 195              	.LVL18:
  96:HindsightCAN/CANCommon.c ****         time |= ((uint32_t)packet->data[5] << 8);
 196              		.loc 1 96 0
 197 0018 237A     		ldrb	r3, [r4, #8]
 198 001a 1B02     		lsls	r3, r3, #8
 199 001c 1843     		orrs	r0, r3
 200              	.LVL19:
  97:HindsightCAN/CANCommon.c ****         time |= packet->data[6]; 
 201              		.loc 1 97 0
 202 001e 637A     		ldrb	r3, [r4, #9]
 203 0020 1843     		orrs	r0, r3
 204              	.LVL20:
  98:HindsightCAN/CANCommon.c ****         return time;
 205              		.loc 1 98 0
 206 0022 01E0     		b	.L8
 207              	.L9:
 208              	.LBE2:
  99:HindsightCAN/CANCommon.c ****     }
 100:HindsightCAN/CANCommon.c ****     else { return -1; }
 209              		.loc 1 100 0
 210 0024 0120     		movs	r0, #1
 211 0026 4042     		rsbs	r0, r0, #0
 212              	.L8:
 101:HindsightCAN/CANCommon.c **** }
 213              		.loc 1 101 0
 214              		@ sp needed
 215              	.LVL21:
 216 0028 10BD     		pop	{r4, pc}
 217              		.cfi_endproc
 218              	.LFE5:
 219              		.size	GetHeartbeatTimeStamp, .-GetHeartbeatTimeStamp
 220 002a C046     		.section	.text.GetTimeBetweenHeartbeatPacket,"ax",%progbits
 221              		.align	2
 222              		.global	GetTimeBetweenHeartbeatPacket
 223              		.code	16
 224              		.thumb_func
 225              		.type	GetTimeBetweenHeartbeatPacket, %function
 226              	GetTimeBetweenHeartbeatPacket:
 227              	.LFB4:
  74:HindsightCAN/CANCommon.c ****     if (PacketIsOfID(packet, ID_HEARTBEAT)) 
 228              		.loc 1 74 0
 229              		.cfi_startproc
 230              		@ args = 0, pretend = 0, frame = 0
 231              		@ frame_needed = 0, uses_anonymous_args = 0
 232              	.LVL22:
 233 0000 70B5     		push	{r4, r5, r6, lr}
 234              		.cfi_def_cfa_offset 16
 235              		.cfi_offset 4, -16
 236              		.cfi_offset 5, -12
 237              		.cfi_offset 6, -8
 238              		.cfi_offset 14, -4
 239 0002 0400     		movs	r4, r0
 240 0004 0D00     		movs	r5, r1
ARM GAS  C:\Users\DAVISS~1\AppData\Local\Temp\ccQF6c82.s 			page 7


  75:HindsightCAN/CANCommon.c ****     {
 241              		.loc 1 75 0
 242 0006 F121     		movs	r1, #241
 243              	.LVL23:
 244 0008 FFF7FEFF 		bl	PacketIsOfID
 245              	.LVL24:
 246 000c 0028     		cmp	r0, #0
 247 000e 04D0     		beq	.L12
  77:HindsightCAN/CANCommon.c ****     }
 248              		.loc 1 77 0
 249 0010 2000     		movs	r0, r4
 250 0012 FFF7FEFF 		bl	GetHeartbeatTimeStamp
 251              	.LVL25:
 252 0016 401B     		subs	r0, r0, r5
 253 0018 01E0     		b	.L11
 254              	.L12:
  79:HindsightCAN/CANCommon.c **** }
 255              		.loc 1 79 0
 256 001a 0120     		movs	r0, #1
 257 001c 4042     		rsbs	r0, r0, #0
 258              	.L11:
  80:HindsightCAN/CANCommon.c **** 
 259              		.loc 1 80 0
 260              		@ sp needed
 261              	.LVL26:
 262              	.LVL27:
 263 001e 70BD     		pop	{r4, r5, r6, pc}
 264              		.cfi_endproc
 265              	.LFE4:
 266              		.size	GetTimeBetweenHeartbeatPacket, .-GetTimeBetweenHeartbeatPacket
 267              		.section	.text.GetHeartbeatLeniencyCode,"ax",%progbits
 268              		.align	2
 269              		.global	GetHeartbeatLeniencyCode
 270              		.code	16
 271              		.thumb_func
 272              		.type	GetHeartbeatLeniencyCode, %function
 273              	GetHeartbeatLeniencyCode:
 274              	.LFB6:
 102:HindsightCAN/CANCommon.c **** 
 103:HindsightCAN/CANCommon.c **** // Validates the Heartbeat Packet, returns the heartbeat leniency code of the packet
 104:HindsightCAN/CANCommon.c **** // Inputs:
 105:HindsightCAN/CANCommon.c **** //      packet:     CAN Packet to check
 106:HindsightCAN/CANCommon.c **** // Outputs:
 107:HindsightCAN/CANCommon.c **** //                  Heartbeat leniency code of given packet
 108:HindsightCAN/CANCommon.c **** uint8_t GetHeartbeatLeniencyCode(CANPacket *packet)
 109:HindsightCAN/CANCommon.c **** {
 275              		.loc 1 109 0
 276              		.cfi_startproc
 277              		@ args = 0, pretend = 0, frame = 0
 278              		@ frame_needed = 0, uses_anonymous_args = 0
 279              	.LVL28:
 280 0000 10B5     		push	{r4, lr}
 281              		.cfi_def_cfa_offset 8
 282              		.cfi_offset 4, -8
 283              		.cfi_offset 14, -4
 284 0002 0400     		movs	r4, r0
 110:HindsightCAN/CANCommon.c ****     if (PacketIsOfID(packet, ID_HEARTBEAT))
ARM GAS  C:\Users\DAVISS~1\AppData\Local\Temp\ccQF6c82.s 			page 8


 285              		.loc 1 110 0
 286 0004 F121     		movs	r1, #241
 287 0006 FFF7FEFF 		bl	PacketIsOfID
 288              	.LVL29:
 289 000a 0028     		cmp	r0, #0
 290 000c 01D0     		beq	.L15
 111:HindsightCAN/CANCommon.c ****     {
 112:HindsightCAN/CANCommon.c ****         return packet->data[2];
 291              		.loc 1 112 0
 292 000e 6079     		ldrb	r0, [r4, #5]
 293 0010 00E0     		b	.L14
 294              	.L15:
 113:HindsightCAN/CANCommon.c ****     } else {
 114:HindsightCAN/CANCommon.c ****         return 0x00;
 295              		.loc 1 114 0
 296 0012 0020     		movs	r0, #0
 297              	.L14:
 115:HindsightCAN/CANCommon.c ****     }
 116:HindsightCAN/CANCommon.c **** }
 298              		.loc 1 116 0
 299              		@ sp needed
 300              	.LVL30:
 301 0014 10BD     		pop	{r4, pc}
 302              		.cfi_endproc
 303              	.LFE6:
 304              		.size	GetHeartbeatLeniencyCode, .-GetHeartbeatLeniencyCode
 305 0016 C046     		.section	.text.AssembleHeartbeatPacket,"ax",%progbits
 306              		.align	2
 307              		.global	AssembleHeartbeatPacket
 308              		.code	16
 309              		.thumb_func
 310              		.type	AssembleHeartbeatPacket, %function
 311              	AssembleHeartbeatPacket:
 312              	.LFB7:
 117:HindsightCAN/CANCommon.c **** 
 118:HindsightCAN/CANCommon.c **** // Assembles Heartbeat Packet with given parameters
 119:HindsightCAN/CANCommon.c **** // Inputs:
 120:HindsightCAN/CANCommon.c **** //      packetToAssemble:       CAN Packet to assemble (will overwrite).
 121:HindsightCAN/CANCommon.c **** //      broadcast:              1 if broadcast to all devices. 0 to return to MAIN_CPU / Jetson.
 122:HindsightCAN/CANCommon.c **** //      heartbeatLeniencyCode:  Max time between heartbeats before system automatically enters a sa
 123:HindsightCAN/CANCommon.c **** //      timestamp:              Current timestamp as seen by the sender device. (ms)
 124:HindsightCAN/CANCommon.c **** //TODO, upon approval from @jaden, delete senderGroup and senderSerial params, as these are handled
 125:HindsightCAN/CANCommon.c **** void AssembleHeartbeatPacket(CANPacket *packetToAssemble, 
 126:HindsightCAN/CANCommon.c ****     int broadcast, 
 127:HindsightCAN/CANCommon.c ****     uint8_t heartbeatLeniencyCode,
 128:HindsightCAN/CANCommon.c ****     uint32_t timestamp)
 129:HindsightCAN/CANCommon.c **** {
 313              		.loc 1 129 0
 314              		.cfi_startproc
 315              		@ args = 0, pretend = 0, frame = 0
 316              		@ frame_needed = 0, uses_anonymous_args = 0
 317              	.LVL31:
 318 0000 F8B5     		push	{r3, r4, r5, r6, r7, lr}
 319              		.cfi_def_cfa_offset 24
 320              		.cfi_offset 3, -24
 321              		.cfi_offset 4, -20
 322              		.cfi_offset 5, -16
ARM GAS  C:\Users\DAVISS~1\AppData\Local\Temp\ccQF6c82.s 			page 9


 323              		.cfi_offset 6, -12
 324              		.cfi_offset 7, -8
 325              		.cfi_offset 14, -4
 326 0002 0400     		movs	r4, r0
 327 0004 0D00     		movs	r5, r1
 328 0006 1700     		movs	r7, r2
 329 0008 1E00     		movs	r6, r3
 130:HindsightCAN/CANCommon.c ****     packetToAssemble->id = ConstructCANID(PACKET_PRIORITY_HIGH, DEVICE_GROUP_BROADCAST, DEVICE_SERI
 330              		.loc 1 130 0
 331 000a 0022     		movs	r2, #0
 332              	.LVL32:
 333 000c 0021     		movs	r1, #0
 334              	.LVL33:
 335 000e 0020     		movs	r0, #0
 336              	.LVL34:
 337 0010 FFF7FEFF 		bl	ConstructCANID
 338              	.LVL35:
 339 0014 2080     		strh	r0, [r4]
 131:HindsightCAN/CANCommon.c ****     if (!broadcast)
 340              		.loc 1 131 0
 341 0016 002D     		cmp	r5, #0
 342 0018 05D1     		bne	.L17
 132:HindsightCAN/CANCommon.c ****     { 
 133:HindsightCAN/CANCommon.c ****         packetToAssemble->id = ConstructCANID(PACKET_PRIORITY_HIGH, DEVICE_GROUP_JETSON, DEVICE_SER
 343              		.loc 1 133 0
 344 001a 0122     		movs	r2, #1
 345 001c 0221     		movs	r1, #2
 346 001e 0020     		movs	r0, #0
 347 0020 FFF7FEFF 		bl	ConstructCANID
 348              	.LVL36:
 349 0024 2080     		strh	r0, [r4]
 350              	.L17:
 134:HindsightCAN/CANCommon.c ****     }
 135:HindsightCAN/CANCommon.c ****     packetToAssemble->dlc = DLC_HEARTBEAT;
 351              		.loc 1 135 0
 352 0026 0823     		movs	r3, #8
 353 0028 A370     		strb	r3, [r4, #2]
 136:HindsightCAN/CANCommon.c ****     int nextByte = WriteSenderSerialAndPacketID(packetToAssemble->data, ID_HEARTBEAT);
 354              		.loc 1 136 0
 355 002a E51C     		adds	r5, r4, #3
 356              	.LVL37:
 357 002c F121     		movs	r1, #241
 358 002e 2800     		movs	r0, r5
 359 0030 FFF7FEFF 		bl	WriteSenderSerialAndPacketID
 360              	.LVL38:
 137:HindsightCAN/CANCommon.c ****     packetToAssemble->data[nextByte] = heartbeatLeniencyCode;
 361              		.loc 1 137 0
 362 0034 2418     		adds	r4, r4, r0
 363              	.LVL39:
 364 0036 E770     		strb	r7, [r4, #3]
 138:HindsightCAN/CANCommon.c ****     PackIntIntoDataMSBFirst(packetToAssemble->data, timestamp, nextByte + 1);
 365              		.loc 1 138 0
 366 0038 421C     		adds	r2, r0, #1
 367 003a 3100     		movs	r1, r6
 368 003c 2800     		movs	r0, r5
 369              	.LVL40:
 370 003e FFF7FEFF 		bl	PackIntIntoDataMSBFirst
ARM GAS  C:\Users\DAVISS~1\AppData\Local\Temp\ccQF6c82.s 			page 10


 371              	.LVL41:
 139:HindsightCAN/CANCommon.c **** }
 372              		.loc 1 139 0
 373              		@ sp needed
 374              	.LVL42:
 375              	.LVL43:
 376 0042 F8BD     		pop	{r3, r4, r5, r6, r7, pc}
 377              		.cfi_endproc
 378              	.LFE7:
 379              		.size	AssembleHeartbeatPacket, .-AssembleHeartbeatPacket
 380              		.section	.text.AssembleFailReportPacket,"ax",%progbits
 381              		.align	2
 382              		.global	AssembleFailReportPacket
 383              		.code	16
 384              		.thumb_func
 385              		.type	AssembleFailReportPacket, %function
 386              	AssembleFailReportPacket:
 387              	.LFB8:
 140:HindsightCAN/CANCommon.c **** 
 141:HindsightCAN/CANCommon.c **** void AssembleFailReportPacket(CANPacket *packetToAssemble, 
 142:HindsightCAN/CANCommon.c ****     uint8_t targetGroup, 
 143:HindsightCAN/CANCommon.c ****     uint8_t targetSerial,
 144:HindsightCAN/CANCommon.c ****     uint8_t failedPacketID)
 145:HindsightCAN/CANCommon.c **** {
 388              		.loc 1 145 0
 389              		.cfi_startproc
 390              		@ args = 0, pretend = 0, frame = 0
 391              		@ frame_needed = 0, uses_anonymous_args = 0
 392              	.LVL44:
 393 0000 70B5     		push	{r4, r5, r6, lr}
 394              		.cfi_def_cfa_offset 16
 395              		.cfi_offset 4, -16
 396              		.cfi_offset 5, -12
 397              		.cfi_offset 6, -8
 398              		.cfi_offset 14, -4
 399 0002 0400     		movs	r4, r0
 400 0004 1D00     		movs	r5, r3
 146:HindsightCAN/CANCommon.c ****     packetToAssemble->id = ConstructCANID(PACKET_PRIORITY_NORMAL, targetGroup, targetSerial);
 401              		.loc 1 146 0
 402 0006 0120     		movs	r0, #1
 403              	.LVL45:
 404 0008 FFF7FEFF 		bl	ConstructCANID
 405              	.LVL46:
 406 000c 2080     		strh	r0, [r4]
 147:HindsightCAN/CANCommon.c ****     packetToAssemble->dlc = DLC_FAIL_REPORT;
 407              		.loc 1 147 0
 408 000e 0423     		movs	r3, #4
 409 0010 A370     		strb	r3, [r4, #2]
 148:HindsightCAN/CANCommon.c ****     int nextByte = WriteSenderSerialAndPacketID(packetToAssemble->data, ID_FAIL_REPORT);
 410              		.loc 1 148 0
 411 0012 E01C     		adds	r0, r4, #3
 412 0014 F221     		movs	r1, #242
 413 0016 FFF7FEFF 		bl	WriteSenderSerialAndPacketID
 414              	.LVL47:
 149:HindsightCAN/CANCommon.c ****     packetToAssemble->data[nextByte] = failedPacketID;
 415              		.loc 1 149 0
 416 001a 2418     		adds	r4, r4, r0
ARM GAS  C:\Users\DAVISS~1\AppData\Local\Temp\ccQF6c82.s 			page 11


 417              	.LVL48:
 418 001c E570     		strb	r5, [r4, #3]
 150:HindsightCAN/CANCommon.c **** }
 419              		.loc 1 150 0
 420              		@ sp needed
 421 001e 70BD     		pop	{r4, r5, r6, pc}
 422              		.cfi_endproc
 423              	.LFE8:
 424              		.size	AssembleFailReportPacket, .-AssembleFailReportPacket
 425              		.section	.text.AssembleOverrideProtectionPacket,"ax",%progbits
 426              		.align	2
 427              		.global	AssembleOverrideProtectionPacket
 428              		.code	16
 429              		.thumb_func
 430              		.type	AssembleOverrideProtectionPacket, %function
 431              	AssembleOverrideProtectionPacket:
 432              	.LFB9:
 151:HindsightCAN/CANCommon.c **** 
 152:HindsightCAN/CANCommon.c **** // Assembles override protection packet with given parameters
 153:HindsightCAN/CANCommon.c **** // Inputs:
 154:HindsightCAN/CANCommon.c **** //      packetToAssemble:       CAN Packet to assemble (will overwrite).
 155:HindsightCAN/CANCommon.c **** //      targetGroup:            Device gorup of target device.
 156:HindsightCAN/CANCommon.c **** //      targetSerial:           Device serial of target device.
 157:HindsightCAN/CANCommon.c **** void AssembleOverrideProtectionPacket(CANPacket *packetToAssemble, uint8_t targetGroup, uint8_t tar
 158:HindsightCAN/CANCommon.c **** {
 433              		.loc 1 158 0
 434              		.cfi_startproc
 435              		@ args = 0, pretend = 0, frame = 0
 436              		@ frame_needed = 0, uses_anonymous_args = 0
 437              	.LVL49:
 438 0000 10B5     		push	{r4, lr}
 439              		.cfi_def_cfa_offset 8
 440              		.cfi_offset 4, -8
 441              		.cfi_offset 14, -4
 442 0002 0400     		movs	r4, r0
 159:HindsightCAN/CANCommon.c ****     packetToAssemble->id = ConstructCANID(PACKET_PRIORITY_NORMAL, targetGroup, targetSerial);
 443              		.loc 1 159 0
 444 0004 0120     		movs	r0, #1
 445              	.LVL50:
 446 0006 FFF7FEFF 		bl	ConstructCANID
 447              	.LVL51:
 448 000a 2080     		strh	r0, [r4]
 160:HindsightCAN/CANCommon.c ****     packetToAssemble->dlc = DLC_OVRD_PROTECTION;
 449              		.loc 1 160 0
 450 000c 0123     		movs	r3, #1
 451 000e A370     		strb	r3, [r4, #2]
 161:HindsightCAN/CANCommon.c ****     WritePacketIDOnly(packetToAssemble->data, ID_OVRD_PROTECTION);
 452              		.loc 1 161 0
 453 0010 E01C     		adds	r0, r4, #3
 454 0012 F321     		movs	r1, #243
 455 0014 FFF7FEFF 		bl	WritePacketIDOnly
 456              	.LVL52:
 162:HindsightCAN/CANCommon.c **** }
 457              		.loc 1 162 0
 458              		@ sp needed
 459              	.LVL53:
 460 0018 10BD     		pop	{r4, pc}
ARM GAS  C:\Users\DAVISS~1\AppData\Local\Temp\ccQF6c82.s 			page 12


 461              		.cfi_endproc
 462              	.LFE9:
 463              		.size	AssembleOverrideProtectionPacket, .-AssembleOverrideProtectionPacket
 464 001a C046     		.section	.text.AssembleChipTypePullPacket,"ax",%progbits
 465              		.align	2
 466              		.global	AssembleChipTypePullPacket
 467              		.code	16
 468              		.thumb_func
 469              		.type	AssembleChipTypePullPacket, %function
 470              	AssembleChipTypePullPacket:
 471              	.LFB10:
 163:HindsightCAN/CANCommon.c **** 
 164:HindsightCAN/CANCommon.c **** void AssembleChipTypePullPacket(CANPacket *packetToAssemble,
 165:HindsightCAN/CANCommon.c ****     uint8_t targetDeviceGroup,
 166:HindsightCAN/CANCommon.c ****     uint8_t targetDeviceSerial)
 167:HindsightCAN/CANCommon.c **** {
 472              		.loc 1 167 0
 473              		.cfi_startproc
 474              		@ args = 0, pretend = 0, frame = 0
 475              		@ frame_needed = 0, uses_anonymous_args = 0
 476              	.LVL54:
 477 0000 70B5     		push	{r4, r5, r6, lr}
 478              		.cfi_def_cfa_offset 16
 479              		.cfi_offset 4, -16
 480              		.cfi_offset 5, -12
 481              		.cfi_offset 6, -8
 482              		.cfi_offset 14, -4
 483 0002 0400     		movs	r4, r0
 168:HindsightCAN/CANCommon.c ****     packetToAssemble->id = ConstructCANID(PACKET_PRIORITY_NORMAL, targetDeviceGroup, targetDeviceSe
 484              		.loc 1 168 0
 485 0004 0120     		movs	r0, #1
 486              	.LVL55:
 487 0006 FFF7FEFF 		bl	ConstructCANID
 488              	.LVL56:
 489 000a 2080     		strh	r0, [r4]
 169:HindsightCAN/CANCommon.c ****     packetToAssemble->dlc = DLC_CHIP_TYPE_PULL;
 490              		.loc 1 169 0
 491 000c 0423     		movs	r3, #4
 492 000e A370     		strb	r3, [r4, #2]
 170:HindsightCAN/CANCommon.c ****     int nextByte = WriteSenderSerialAndPacketID(packetToAssemble->data, ID_CHIP_TYPE_PULL);
 493              		.loc 1 170 0
 494 0010 E01C     		adds	r0, r4, #3
 495 0012 F821     		movs	r1, #248
 496 0014 FFF7FEFF 		bl	WriteSenderSerialAndPacketID
 497              	.LVL57:
 498 0018 0500     		movs	r5, r0
 499              	.LVL58:
 171:HindsightCAN/CANCommon.c ****     packetToAssemble->data[nextByte] = getChipType();
 500              		.loc 1 171 0
 501 001a FFF7FEFF 		bl	getChipType
 502              	.LVL59:
 503 001e 6419     		adds	r4, r4, r5
 504              	.LVL60:
 505 0020 E070     		strb	r0, [r4, #3]
 172:HindsightCAN/CANCommon.c **** }
 506              		.loc 1 172 0
 507              		@ sp needed
ARM GAS  C:\Users\DAVISS~1\AppData\Local\Temp\ccQF6c82.s 			page 13


 508              	.LVL61:
 509 0022 70BD     		pop	{r4, r5, r6, pc}
 510              		.cfi_endproc
 511              	.LFE10:
 512              		.size	AssembleChipTypePullPacket, .-AssembleChipTypePullPacket
 513              		.section	.text.AssembleChipTypeReportPacket,"ax",%progbits
 514              		.align	2
 515              		.global	AssembleChipTypeReportPacket
 516              		.code	16
 517              		.thumb_func
 518              		.type	AssembleChipTypeReportPacket, %function
 519              	AssembleChipTypeReportPacket:
 520              	.LFB11:
 173:HindsightCAN/CANCommon.c **** 
 174:HindsightCAN/CANCommon.c **** void AssembleChipTypeReportPacket(CANPacket *packetToAssemble,
 175:HindsightCAN/CANCommon.c ****     uint8_t targetDeviceGroup,
 176:HindsightCAN/CANCommon.c ****     uint8_t targetDeviceSerial)
 177:HindsightCAN/CANCommon.c **** {
 521              		.loc 1 177 0
 522              		.cfi_startproc
 523              		@ args = 0, pretend = 0, frame = 0
 524              		@ frame_needed = 0, uses_anonymous_args = 0
 525              	.LVL62:
 526 0000 70B5     		push	{r4, r5, r6, lr}
 527              		.cfi_def_cfa_offset 16
 528              		.cfi_offset 4, -16
 529              		.cfi_offset 5, -12
 530              		.cfi_offset 6, -8
 531              		.cfi_offset 14, -4
 532 0002 0400     		movs	r4, r0
 178:HindsightCAN/CANCommon.c ****     packetToAssemble->id = ConstructCANID(PACKET_PRIORITY_NORMAL, targetDeviceGroup, targetDeviceSe
 533              		.loc 1 178 0
 534 0004 0120     		movs	r0, #1
 535              	.LVL63:
 536 0006 FFF7FEFF 		bl	ConstructCANID
 537              	.LVL64:
 538 000a 2080     		strh	r0, [r4]
 179:HindsightCAN/CANCommon.c ****     packetToAssemble->dlc = DLC_CHIP_TYPE_REP;
 539              		.loc 1 179 0
 540 000c 0423     		movs	r3, #4
 541 000e A370     		strb	r3, [r4, #2]
 180:HindsightCAN/CANCommon.c ****     int nextByte = WriteSenderSerialAndPacketID(packetToAssemble->data, ID_CHIP_TYPE_REP);
 542              		.loc 1 180 0
 543 0010 E01C     		adds	r0, r4, #3
 544 0012 F921     		movs	r1, #249
 545 0014 FFF7FEFF 		bl	WriteSenderSerialAndPacketID
 546              	.LVL65:
 547 0018 0500     		movs	r5, r0
 548              	.LVL66:
 181:HindsightCAN/CANCommon.c ****     packetToAssemble->data[nextByte] = getChipType();
 549              		.loc 1 181 0
 550 001a FFF7FEFF 		bl	getChipType
 551              	.LVL67:
 552 001e 6419     		adds	r4, r4, r5
 553              	.LVL68:
 554 0020 E070     		strb	r0, [r4, #3]
 182:HindsightCAN/CANCommon.c **** }
ARM GAS  C:\Users\DAVISS~1\AppData\Local\Temp\ccQF6c82.s 			page 14


 555              		.loc 1 182 0
 556              		@ sp needed
 557              	.LVL69:
 558 0022 70BD     		pop	{r4, r5, r6, pc}
 559              		.cfi_endproc
 560              	.LFE11:
 561              		.size	AssembleChipTypeReportPacket, .-AssembleChipTypeReportPacket
 562              		.section	.text.GetChipTypeFromPacket,"ax",%progbits
 563              		.align	2
 564              		.global	GetChipTypeFromPacket
 565              		.code	16
 566              		.thumb_func
 567              		.type	GetChipTypeFromPacket, %function
 568              	GetChipTypeFromPacket:
 569              	.LFB12:
 183:HindsightCAN/CANCommon.c **** 
 184:HindsightCAN/CANCommon.c **** uint8_t GetChipTypeFromPacket(CANPacket *packet)
 185:HindsightCAN/CANCommon.c **** {
 570              		.loc 1 185 0
 571              		.cfi_startproc
 572              		@ args = 0, pretend = 0, frame = 0
 573              		@ frame_needed = 0, uses_anonymous_args = 0
 574              		@ link register save eliminated.
 575              	.LVL70:
 186:HindsightCAN/CANCommon.c ****     return packet->data[1];
 576              		.loc 1 186 0
 577 0000 0079     		ldrb	r0, [r0, #4]
 578              	.LVL71:
 187:HindsightCAN/CANCommon.c **** }
 579              		.loc 1 187 0
 580              		@ sp needed
 581 0002 7047     		bx	lr
 582              		.cfi_endproc
 583              	.LFE12:
 584              		.size	GetChipTypeFromPacket, .-GetChipTypeFromPacket
 585              		.section	.text.AssembleTelemetryTimingPacket,"ax",%progbits
 586              		.align	2
 587              		.global	AssembleTelemetryTimingPacket
 588              		.code	16
 589              		.thumb_func
 590              		.type	AssembleTelemetryTimingPacket, %function
 591              	AssembleTelemetryTimingPacket:
 592              	.LFB13:
 188:HindsightCAN/CANCommon.c **** 
 189:HindsightCAN/CANCommon.c **** void AssembleTelemetryTimingPacket(CANPacket *packetToAssemble, 
 190:HindsightCAN/CANCommon.c ****     uint8_t targetGroup, 
 191:HindsightCAN/CANCommon.c ****     uint8_t targetSerial, 
 192:HindsightCAN/CANCommon.c ****     uint8_t telemetryTypeCode,
 193:HindsightCAN/CANCommon.c ****     uint32_t msBetweenReports)
 194:HindsightCAN/CANCommon.c **** {
 593              		.loc 1 194 0
 594              		.cfi_startproc
 595              		@ args = 4, pretend = 0, frame = 0
 596              		@ frame_needed = 0, uses_anonymous_args = 0
 597              	.LVL72:
 598 0000 70B5     		push	{r4, r5, r6, lr}
 599              		.cfi_def_cfa_offset 16
ARM GAS  C:\Users\DAVISS~1\AppData\Local\Temp\ccQF6c82.s 			page 15


 600              		.cfi_offset 4, -16
 601              		.cfi_offset 5, -12
 602              		.cfi_offset 6, -8
 603              		.cfi_offset 14, -4
 604 0002 0400     		movs	r4, r0
 605 0004 1E00     		movs	r6, r3
 195:HindsightCAN/CANCommon.c ****     packetToAssemble->id = ConstructCANID(PACKET_PRIORITY_NORMAL, targetGroup, targetSerial);
 606              		.loc 1 195 0
 607 0006 0120     		movs	r0, #1
 608              	.LVL73:
 609 0008 FFF7FEFF 		bl	ConstructCANID
 610              	.LVL74:
 611 000c 2080     		strh	r0, [r4]
 196:HindsightCAN/CANCommon.c ****     packetToAssemble->dlc = DLC_TELEMETRY_TIMING;
 612              		.loc 1 196 0
 613 000e 0823     		movs	r3, #8
 614 0010 A370     		strb	r3, [r4, #2]
 197:HindsightCAN/CANCommon.c ****     int nextByte = WriteSenderSerialAndPacketID(packetToAssemble->data, ID_TELEMETRY_TIMING);
 615              		.loc 1 197 0
 616 0012 E51C     		adds	r5, r4, #3
 617 0014 F421     		movs	r1, #244
 618 0016 2800     		movs	r0, r5
 619 0018 FFF7FEFF 		bl	WriteSenderSerialAndPacketID
 620              	.LVL75:
 198:HindsightCAN/CANCommon.c ****     packetToAssemble->data[nextByte] = telemetryTypeCode;
 621              		.loc 1 198 0
 622 001c 2418     		adds	r4, r4, r0
 623              	.LVL76:
 624 001e E670     		strb	r6, [r4, #3]
 199:HindsightCAN/CANCommon.c ****     PackIntIntoDataMSBFirst(packetToAssemble->data, msBetweenReports, nextByte + 1);
 625              		.loc 1 199 0
 626 0020 421C     		adds	r2, r0, #1
 627 0022 0499     		ldr	r1, [sp, #16]
 628 0024 2800     		movs	r0, r5
 629              	.LVL77:
 630 0026 FFF7FEFF 		bl	PackIntIntoDataMSBFirst
 631              	.LVL78:
 200:HindsightCAN/CANCommon.c **** }
 632              		.loc 1 200 0
 633              		@ sp needed
 634              	.LVL79:
 635 002a 70BD     		pop	{r4, r5, r6, pc}
 636              		.cfi_endproc
 637              	.LFE13:
 638              		.size	AssembleTelemetryTimingPacket, .-AssembleTelemetryTimingPacket
 639              		.section	.text.AssembleTelemetryPullPacket,"ax",%progbits
 640              		.align	2
 641              		.global	AssembleTelemetryPullPacket
 642              		.code	16
 643              		.thumb_func
 644              		.type	AssembleTelemetryPullPacket, %function
 645              	AssembleTelemetryPullPacket:
 646              	.LFB15:
 201:HindsightCAN/CANCommon.c **** uint32_t GetTelemetryTimingFromPacket(CANPacket *packetToAssemble)
 202:HindsightCAN/CANCommon.c **** {
 203:HindsightCAN/CANCommon.c ****     return DecodeTelemetryDataUnsigned(packetToAssemble);
 204:HindsightCAN/CANCommon.c **** }
ARM GAS  C:\Users\DAVISS~1\AppData\Local\Temp\ccQF6c82.s 			page 16


 205:HindsightCAN/CANCommon.c **** 
 206:HindsightCAN/CANCommon.c **** void AssembleTelemetryPullPacket(CANPacket *packetToAssemble, 
 207:HindsightCAN/CANCommon.c ****     uint8_t targetGroup, 
 208:HindsightCAN/CANCommon.c ****     uint8_t targetSerial, 
 209:HindsightCAN/CANCommon.c ****     uint8_t telemetryTypeCode)
 210:HindsightCAN/CANCommon.c **** {
 647              		.loc 1 210 0
 648              		.cfi_startproc
 649              		@ args = 0, pretend = 0, frame = 0
 650              		@ frame_needed = 0, uses_anonymous_args = 0
 651              	.LVL80:
 652 0000 70B5     		push	{r4, r5, r6, lr}
 653              		.cfi_def_cfa_offset 16
 654              		.cfi_offset 4, -16
 655              		.cfi_offset 5, -12
 656              		.cfi_offset 6, -8
 657              		.cfi_offset 14, -4
 658 0002 0400     		movs	r4, r0
 659 0004 1D00     		movs	r5, r3
 211:HindsightCAN/CANCommon.c ****     packetToAssemble->id = ConstructCANID(PACKET_PRIORITY_NORMAL, targetGroup, targetSerial);
 660              		.loc 1 211 0
 661 0006 0120     		movs	r0, #1
 662              	.LVL81:
 663 0008 FFF7FEFF 		bl	ConstructCANID
 664              	.LVL82:
 665 000c 2080     		strh	r0, [r4]
 212:HindsightCAN/CANCommon.c ****     packetToAssemble->dlc = DLC_TELEMETRY_PULL;
 666              		.loc 1 212 0
 667 000e 0423     		movs	r3, #4
 668 0010 A370     		strb	r3, [r4, #2]
 213:HindsightCAN/CANCommon.c ****     int nextByte = WriteSenderSerialAndPacketID(packetToAssemble->data, ID_TELEMETRY_PULL);
 669              		.loc 1 213 0
 670 0012 E01C     		adds	r0, r4, #3
 671 0014 F521     		movs	r1, #245
 672 0016 FFF7FEFF 		bl	WriteSenderSerialAndPacketID
 673              	.LVL83:
 214:HindsightCAN/CANCommon.c ****     packetToAssemble->data[nextByte] = telemetryTypeCode;
 674              		.loc 1 214 0
 675 001a 2418     		adds	r4, r4, r0
 676              	.LVL84:
 677 001c E570     		strb	r5, [r4, #3]
 215:HindsightCAN/CANCommon.c **** }
 678              		.loc 1 215 0
 679              		@ sp needed
 680 001e 70BD     		pop	{r4, r5, r6, pc}
 681              		.cfi_endproc
 682              	.LFE15:
 683              		.size	AssembleTelemetryPullPacket, .-AssembleTelemetryPullPacket
 684              		.section	.text.AssembleTelemetryReportPacket,"ax",%progbits
 685              		.align	2
 686              		.global	AssembleTelemetryReportPacket
 687              		.code	16
 688              		.thumb_func
 689              		.type	AssembleTelemetryReportPacket, %function
 690              	AssembleTelemetryReportPacket:
 691              	.LFB16:
 216:HindsightCAN/CANCommon.c **** 
ARM GAS  C:\Users\DAVISS~1\AppData\Local\Temp\ccQF6c82.s 			page 17


 217:HindsightCAN/CANCommon.c **** void AssembleTelemetryReportPacket(CANPacket *packetToAssemble, 
 218:HindsightCAN/CANCommon.c ****     uint8_t targetGroup, 
 219:HindsightCAN/CANCommon.c ****     uint8_t targetSerial,
 220:HindsightCAN/CANCommon.c ****     uint8_t telemetryTypeCode,
 221:HindsightCAN/CANCommon.c ****     int32_t data)
 222:HindsightCAN/CANCommon.c **** {
 692              		.loc 1 222 0
 693              		.cfi_startproc
 694              		@ args = 4, pretend = 0, frame = 0
 695              		@ frame_needed = 0, uses_anonymous_args = 0
 696              	.LVL85:
 697 0000 70B5     		push	{r4, r5, r6, lr}
 698              		.cfi_def_cfa_offset 16
 699              		.cfi_offset 4, -16
 700              		.cfi_offset 5, -12
 701              		.cfi_offset 6, -8
 702              		.cfi_offset 14, -4
 703 0002 0400     		movs	r4, r0
 704 0004 1E00     		movs	r6, r3
 223:HindsightCAN/CANCommon.c ****     packetToAssemble->id = ConstructCANID(PACKET_PRIORITY_NORMAL, targetGroup, targetSerial);
 705              		.loc 1 223 0
 706 0006 0120     		movs	r0, #1
 707              	.LVL86:
 708 0008 FFF7FEFF 		bl	ConstructCANID
 709              	.LVL87:
 710 000c 2080     		strh	r0, [r4]
 224:HindsightCAN/CANCommon.c ****     packetToAssemble->dlc = DLC_TELEMETRY_REPORT;
 711              		.loc 1 224 0
 712 000e 0823     		movs	r3, #8
 713 0010 A370     		strb	r3, [r4, #2]
 225:HindsightCAN/CANCommon.c ****     int nextByte = WriteSenderSerialAndPacketID(packetToAssemble->data, ID_TELEMETRY_REPORT);
 714              		.loc 1 225 0
 715 0012 E51C     		adds	r5, r4, #3
 716 0014 F621     		movs	r1, #246
 717 0016 2800     		movs	r0, r5
 718 0018 FFF7FEFF 		bl	WriteSenderSerialAndPacketID
 719              	.LVL88:
 226:HindsightCAN/CANCommon.c ****     packetToAssemble->data[nextByte] = telemetryTypeCode;
 720              		.loc 1 226 0
 721 001c 2418     		adds	r4, r4, r0
 722              	.LVL89:
 723 001e E670     		strb	r6, [r4, #3]
 227:HindsightCAN/CANCommon.c ****     PackIntIntoDataMSBFirst(packetToAssemble->data, data, nextByte + 1);
 724              		.loc 1 227 0
 725 0020 421C     		adds	r2, r0, #1
 726 0022 0499     		ldr	r1, [sp, #16]
 727 0024 2800     		movs	r0, r5
 728              	.LVL90:
 729 0026 FFF7FEFF 		bl	PackIntIntoDataMSBFirst
 730              	.LVL91:
 228:HindsightCAN/CANCommon.c **** }
 731              		.loc 1 228 0
 732              		@ sp needed
 733              	.LVL92:
 734 002a 70BD     		pop	{r4, r5, r6, pc}
 735              		.cfi_endproc
 736              	.LFE16:
ARM GAS  C:\Users\DAVISS~1\AppData\Local\Temp\ccQF6c82.s 			page 18


 737              		.size	AssembleTelemetryReportPacket, .-AssembleTelemetryReportPacket
 738              		.section	.text.DecodeTelemetryDataSigned,"ax",%progbits
 739              		.align	2
 740              		.global	DecodeTelemetryDataSigned
 741              		.code	16
 742              		.thumb_func
 743              		.type	DecodeTelemetryDataSigned, %function
 744              	DecodeTelemetryDataSigned:
 745              	.LFB17:
 229:HindsightCAN/CANCommon.c **** 
 230:HindsightCAN/CANCommon.c **** int32_t DecodeTelemetryDataSigned(CANPacket *packet)
 231:HindsightCAN/CANCommon.c **** {
 746              		.loc 1 231 0
 747              		.cfi_startproc
 748              		@ args = 0, pretend = 0, frame = 0
 749              		@ frame_needed = 0, uses_anonymous_args = 0
 750              	.LVL93:
 751 0000 10B5     		push	{r4, lr}
 752              		.cfi_def_cfa_offset 8
 753              		.cfi_offset 4, -8
 754              		.cfi_offset 14, -4
 232:HindsightCAN/CANCommon.c ****     return DecodeBytesToIntMSBFirst(packet->data, 4, 8);
 755              		.loc 1 232 0
 756 0002 0330     		adds	r0, r0, #3
 757              	.LVL94:
 758 0004 0822     		movs	r2, #8
 759 0006 0421     		movs	r1, #4
 760 0008 FFF7FEFF 		bl	DecodeBytesToIntMSBFirst
 761              	.LVL95:
 233:HindsightCAN/CANCommon.c **** }
 762              		.loc 1 233 0
 763              		@ sp needed
 764 000c 10BD     		pop	{r4, pc}
 765              		.cfi_endproc
 766              	.LFE17:
 767              		.size	DecodeTelemetryDataSigned, .-DecodeTelemetryDataSigned
 768 000e C046     		.section	.text.DecodeTelemetryDataUnsigned,"ax",%progbits
 769              		.align	2
 770              		.global	DecodeTelemetryDataUnsigned
 771              		.code	16
 772              		.thumb_func
 773              		.type	DecodeTelemetryDataUnsigned, %function
 774              	DecodeTelemetryDataUnsigned:
 775              	.LFB18:
 234:HindsightCAN/CANCommon.c **** 
 235:HindsightCAN/CANCommon.c **** uint32_t DecodeTelemetryDataUnsigned(CANPacket *packet)
 236:HindsightCAN/CANCommon.c **** {
 776              		.loc 1 236 0
 777              		.cfi_startproc
 778              		@ args = 0, pretend = 0, frame = 0
 779              		@ frame_needed = 0, uses_anonymous_args = 0
 780              	.LVL96:
 781 0000 10B5     		push	{r4, lr}
 782              		.cfi_def_cfa_offset 8
 783              		.cfi_offset 4, -8
 784              		.cfi_offset 14, -4
 237:HindsightCAN/CANCommon.c ****     return (uint32_t) DecodeTelemetryDataSigned(packet);
ARM GAS  C:\Users\DAVISS~1\AppData\Local\Temp\ccQF6c82.s 			page 19


 785              		.loc 1 237 0
 786 0002 FFF7FEFF 		bl	DecodeTelemetryDataSigned
 787              	.LVL97:
 238:HindsightCAN/CANCommon.c **** }
 788              		.loc 1 238 0
 789              		@ sp needed
 790 0006 10BD     		pop	{r4, pc}
 791              		.cfi_endproc
 792              	.LFE18:
 793              		.size	DecodeTelemetryDataUnsigned, .-DecodeTelemetryDataUnsigned
 794              		.section	.text.GetTelemetryTimingFromPacket,"ax",%progbits
 795              		.align	2
 796              		.global	GetTelemetryTimingFromPacket
 797              		.code	16
 798              		.thumb_func
 799              		.type	GetTelemetryTimingFromPacket, %function
 800              	GetTelemetryTimingFromPacket:
 801              	.LFB14:
 202:HindsightCAN/CANCommon.c ****     return DecodeTelemetryDataUnsigned(packetToAssemble);
 802              		.loc 1 202 0
 803              		.cfi_startproc
 804              		@ args = 0, pretend = 0, frame = 0
 805              		@ frame_needed = 0, uses_anonymous_args = 0
 806              	.LVL98:
 807 0000 10B5     		push	{r4, lr}
 808              		.cfi_def_cfa_offset 8
 809              		.cfi_offset 4, -8
 810              		.cfi_offset 14, -4
 203:HindsightCAN/CANCommon.c **** }
 811              		.loc 1 203 0
 812 0002 FFF7FEFF 		bl	DecodeTelemetryDataUnsigned
 813              	.LVL99:
 204:HindsightCAN/CANCommon.c **** 
 814              		.loc 1 204 0
 815              		@ sp needed
 816 0006 10BD     		pop	{r4, pc}
 817              		.cfi_endproc
 818              	.LFE14:
 819              		.size	GetTelemetryTimingFromPacket, .-GetTelemetryTimingFromPacket
 820              		.section	.text.DecodeTelemetryType,"ax",%progbits
 821              		.align	2
 822              		.global	DecodeTelemetryType
 823              		.code	16
 824              		.thumb_func
 825              		.type	DecodeTelemetryType, %function
 826              	DecodeTelemetryType:
 827              	.LFB19:
 239:HindsightCAN/CANCommon.c **** 
 240:HindsightCAN/CANCommon.c **** uint8_t DecodeTelemetryType(CANPacket *packet)
 241:HindsightCAN/CANCommon.c **** {
 828              		.loc 1 241 0
 829              		.cfi_startproc
 830              		@ args = 0, pretend = 0, frame = 0
 831              		@ frame_needed = 0, uses_anonymous_args = 0
 832              		@ link register save eliminated.
 833              	.LVL100:
 242:HindsightCAN/CANCommon.c ****     return packet->data[3];
ARM GAS  C:\Users\DAVISS~1\AppData\Local\Temp\ccQF6c82.s 			page 20


 834              		.loc 1 242 0
 835 0000 8079     		ldrb	r0, [r0, #6]
 836              	.LVL101:
 243:HindsightCAN/CANCommon.c **** }
 837              		.loc 1 243 0
 838              		@ sp needed
 839 0002 7047     		bx	lr
 840              		.cfi_endproc
 841              	.LFE19:
 842              		.size	DecodeTelemetryType, .-DecodeTelemetryType
 843              		.section	.text.AssembleRGBColorPacket,"ax",%progbits
 844              		.align	2
 845              		.global	AssembleRGBColorPacket
 846              		.code	16
 847              		.thumb_func
 848              		.type	AssembleRGBColorPacket, %function
 849              	AssembleRGBColorPacket:
 850              	.LFB20:
 244:HindsightCAN/CANCommon.c **** 
 245:HindsightCAN/CANCommon.c **** void AssembleRGBColorPacket(CANPacket *packetToAssemble,
 246:HindsightCAN/CANCommon.c ****     uint8_t targetGroup,
 247:HindsightCAN/CANCommon.c ****     uint8_t targetSerial,
 248:HindsightCAN/CANCommon.c ****     uint8_t addrLED,
 249:HindsightCAN/CANCommon.c ****     uint8_t R,
 250:HindsightCAN/CANCommon.c ****     uint8_t G,
 251:HindsightCAN/CANCommon.c ****     uint8_t B)
 252:HindsightCAN/CANCommon.c **** {
 851              		.loc 1 252 0
 852              		.cfi_startproc
 853              		@ args = 12, pretend = 0, frame = 0
 854              		@ frame_needed = 0, uses_anonymous_args = 0
 855              	.LVL102:
 856 0000 F0B5     		push	{r4, r5, r6, r7, lr}
 857              		.cfi_def_cfa_offset 20
 858              		.cfi_offset 4, -20
 859              		.cfi_offset 5, -16
 860              		.cfi_offset 6, -12
 861              		.cfi_offset 7, -8
 862              		.cfi_offset 14, -4
 863 0002 4746     		mov	r7, r8
 864 0004 80B4     		push	{r7}
 865              		.cfi_def_cfa_offset 24
 866              		.cfi_offset 8, -24
 867 0006 0400     		movs	r4, r0
 868 0008 1D00     		movs	r5, r3
 869 000a 06AB     		add	r3, sp, #24
 870              	.LVL103:
 871 000c 1B78     		ldrb	r3, [r3]
 872              	.LVL104:
 873 000e 9846     		mov	r8, r3
 874 0010 07AB     		add	r3, sp, #28
 875              	.LVL105:
 876 0012 1F78     		ldrb	r7, [r3]
 877 0014 08AB     		add	r3, sp, #32
 878              	.LVL106:
 879 0016 1E78     		ldrb	r6, [r3]
 253:HindsightCAN/CANCommon.c ****     packetToAssemble->id = ConstructCANID(PACKET_PRIORITY_NORMAL, targetGroup, targetSerial);
ARM GAS  C:\Users\DAVISS~1\AppData\Local\Temp\ccQF6c82.s 			page 21


 880              		.loc 1 253 0
 881 0018 0120     		movs	r0, #1
 882              	.LVL107:
 883 001a FFF7FEFF 		bl	ConstructCANID
 884              	.LVL108:
 885 001e 2080     		strh	r0, [r4]
 254:HindsightCAN/CANCommon.c ****     packetToAssemble->dlc = DLC_LED_COLOR;
 886              		.loc 1 254 0
 887 0020 0623     		movs	r3, #6
 888 0022 A370     		strb	r3, [r4, #2]
 255:HindsightCAN/CANCommon.c ****     int nextByte = WritePacketIDOnly(packetToAssemble->data, ID_LED_COLOR);
 889              		.loc 1 255 0
 890 0024 E01C     		adds	r0, r4, #3
 891 0026 F721     		movs	r1, #247
 892 0028 FFF7FEFF 		bl	WritePacketIDOnly
 893              	.LVL109:
 256:HindsightCAN/CANCommon.c ****     packetToAssemble->data[nextByte] = R;
 894              		.loc 1 256 0
 895 002c 2318     		adds	r3, r4, r0
 896 002e 4246     		mov	r2, r8
 897 0030 DA70     		strb	r2, [r3, #3]
 257:HindsightCAN/CANCommon.c ****     packetToAssemble->data[nextByte + 1] = G;
 898              		.loc 1 257 0
 899 0032 431C     		adds	r3, r0, #1
 900 0034 E318     		adds	r3, r4, r3
 901 0036 DF70     		strb	r7, [r3, #3]
 258:HindsightCAN/CANCommon.c ****     packetToAssemble->data[nextByte + 2] = B;
 902              		.loc 1 258 0
 903 0038 831C     		adds	r3, r0, #2
 904 003a E318     		adds	r3, r4, r3
 905 003c DE70     		strb	r6, [r3, #3]
 259:HindsightCAN/CANCommon.c ****     packetToAssemble->data[nextByte + 3] = addrLED;   
 906              		.loc 1 259 0
 907 003e 0330     		adds	r0, r0, #3
 908              	.LVL110:
 909 0040 2018     		adds	r0, r4, r0
 910              	.LVL111:
 911 0042 C570     		strb	r5, [r0, #3]
 260:HindsightCAN/CANCommon.c **** }
 912              		.loc 1 260 0
 913              		@ sp needed
 914              	.LVL112:
 915 0044 04BC     		pop	{r2}
 916 0046 9046     		mov	r8, r2
 917 0048 F0BD     		pop	{r4, r5, r6, r7, pc}
 918              		.cfi_endproc
 919              	.LFE20:
 920              		.size	AssembleRGBColorPacket, .-AssembleRGBColorPacket
 921 004a C046     		.text
 922              	.Letext0:
 923              		.file 2 "x:\\programs\\cypress\\psoc creator\\4.4\\psoc creator\\import\\gnu\\arm\\5.4.1\\arm-none
 924              		.file 3 "x:\\programs\\cypress\\psoc creator\\4.4\\psoc creator\\import\\gnu\\arm\\5.4.1\\arm-none
 925              		.file 4 "HindsightCAN\\CANPacket.h"
 926              		.file 5 "HindsightCAN\\Port.h"