ARM GAS  C:\Users\DAVISS~1\AppData\Local\Temp\ccDmB1i9.s 			page 1


   1              		.syntax unified
   2              		.cpu cortex-m0
   3              		.fpu softvfp
   4              		.eabi_attribute 20, 1
   5              		.eabi_attribute 21, 1
   6              		.eabi_attribute 23, 3
   7              		.eabi_attribute 24, 1
   8              		.eabi_attribute 25, 1
   9              		.eabi_attribute 26, 1
  10              		.eabi_attribute 30, 1
  11              		.eabi_attribute 34, 0
  12              		.eabi_attribute 18, 4
  13              		.thumb
  14              		.syntax unified
  15              		.file	"main.c"
  16              		.text
  17              	.Ltext0:
  18              		.cfi_sections	.debug_frame
  19              		.section	.text.PrintCanPacket,"ax",%progbits
  20              		.align	2
  21              		.global	PrintCanPacket
  22              		.code	16
  23              		.thumb_func
  24              		.type	PrintCanPacket, %function
  25              	PrintCanPacket:
  26              	.LFB35:
  27              		.file 1 "main.c"
   1:main.c        **** 
   2:main.c        **** #include "main.h"
   3:main.c        **** 
   4:main.c        **** 
   5:main.c        **** void PrintCanPacket(CANPacket receivedPacket){
  28              		.loc 1 5 0
  29              		.cfi_startproc
  30              		@ args = 0, pretend = 0, frame = 16
  31              		@ frame_needed = 0, uses_anonymous_args = 0
  32 0000 30B5     		push	{r4, r5, lr}
  33              		.cfi_def_cfa_offset 12
  34              		.cfi_offset 4, -12
  35              		.cfi_offset 5, -8
  36              		.cfi_offset 14, -4
  37 0002 87B0     		sub	sp, sp, #28
  38              		.cfi_def_cfa_offset 40
  39 0004 0390     		str	r0, [sp, #12]
  40 0006 0491     		str	r1, [sp, #16]
  41 0008 0592     		str	r2, [sp, #20]
  42              	.LVL0:
  43              	.LBB2:
   6:main.c        ****     for(int i = 0; i < receivedPacket.dlc; i++ ) {
  44              		.loc 1 6 0
  45 000a 0024     		movs	r4, #0
  46 000c 0CE0     		b	.L2
  47              	.LVL1:
  48              	.L3:
   7:main.c        ****         sprintf(txData,"Byte%d %x   ", i, receivedPacket.data[i]);
  49              		.loc 1 7 0 discriminator 3
  50 000e 03AB     		add	r3, sp, #12
ARM GAS  C:\Users\DAVISS~1\AppData\Local\Temp\ccDmB1i9.s 			page 2


  51 0010 1B19     		adds	r3, r3, r4
  52 0012 DB78     		ldrb	r3, [r3, #3]
  53 0014 104D     		ldr	r5, .L4
  54 0016 2200     		movs	r2, r4
  55 0018 1049     		ldr	r1, .L4+4
  56 001a 2800     		movs	r0, r5
  57 001c FFF7FEFF 		bl	sprintf
  58              	.LVL2:
   8:main.c        ****         Print(txData);
  59              		.loc 1 8 0 discriminator 3
  60 0020 2800     		movs	r0, r5
  61 0022 FFF7FEFF 		bl	DEBUG_UartPutString
  62              	.LVL3:
   6:main.c        ****     for(int i = 0; i < receivedPacket.dlc; i++ ) {
  63              		.loc 1 6 0 discriminator 3
  64 0026 0134     		adds	r4, r4, #1
  65              	.LVL4:
  66              	.L2:
   6:main.c        ****     for(int i = 0; i < receivedPacket.dlc; i++ ) {
  67              		.loc 1 6 0 is_stmt 0 discriminator 1
  68 0028 03AB     		add	r3, sp, #12
  69 002a 9B78     		ldrb	r3, [r3, #2]
  70 002c 9C42     		cmp	r4, r3
  71 002e EEDB     		blt	.L3
  72              	.LBE2:
   9:main.c        ****     }
  10:main.c        **** 
  11:main.c        ****     sprintf(txData,"ID:%x %x %x\r\n",receivedPacket.id >> 10, 
  73              		.loc 1 11 0 is_stmt 1
  74 0030 03AB     		add	r3, sp, #12
  75 0032 1988     		ldrh	r1, [r3]
  76 0034 8B09     		lsrs	r3, r1, #6
  77 0036 0F22     		movs	r2, #15
  78 0038 1340     		ands	r3, r2
  79 003a 8A0A     		lsrs	r2, r1, #10
  80 003c 064C     		ldr	r4, .L4
  81              	.LVL5:
  82 003e 3F20     		movs	r0, #63
  83 0040 0140     		ands	r1, r0
  84 0042 0091     		str	r1, [sp]
  85 0044 0649     		ldr	r1, .L4+8
  86 0046 2000     		movs	r0, r4
  87 0048 FFF7FEFF 		bl	sprintf
  88              	.LVL6:
  12:main.c        ****         (receivedPacket.id >> 6) & 0xF , receivedPacket.id & 0x3F);
  13:main.c        ****     Print(txData);
  89              		.loc 1 13 0
  90 004c 2000     		movs	r0, r4
  91 004e FFF7FEFF 		bl	DEBUG_UartPutString
  92              	.LVL7:
  14:main.c        **** }
  93              		.loc 1 14 0
  94 0052 07B0     		add	sp, sp, #28
  95              		@ sp needed
  96 0054 30BD     		pop	{r4, r5, pc}
  97              	.L5:
  98 0056 C046     		.align	2
ARM GAS  C:\Users\DAVISS~1\AppData\Local\Temp\ccDmB1i9.s 			page 3


  99              	.L4:
 100 0058 00000000 		.word	txData
 101 005c 00000000 		.word	.LC0
 102 0060 10000000 		.word	.LC3
 103              		.cfi_endproc
 104              	.LFE35:
 105              		.size	PrintCanPacket, .-PrintCanPacket
 106              		.section	.text.main,"ax",%progbits
 107              		.align	2
 108              		.global	main
 109              		.code	16
 110              		.thumb_func
 111              		.type	main, %function
 112              	main:
 113              	.LFB36:
  15:main.c        **** 
  16:main.c        **** int main(void)
  17:main.c        **** {
 114              		.loc 1 17 0
 115              		.cfi_startproc
 116              		@ Volatile: function does not return.
 117              		@ args = 0, pretend = 0, frame = 0
 118              		@ frame_needed = 0, uses_anonymous_args = 0
 119 0000 70B5     		push	{r4, r5, r6, lr}
 120              		.cfi_def_cfa_offset 16
 121              		.cfi_offset 4, -16
 122              		.cfi_offset 5, -12
 123              		.cfi_offset 6, -8
 124              		.cfi_offset 14, -4
  18:main.c        ****     CyGlobalIntEnable;
 125              		.loc 1 18 0
 126              		.syntax divided
 127              	@ 18 "main.c" 1
 128 0002 62B6     		CPSIE   i
 129              	@ 0 "" 2
  19:main.c        ****     
  20:main.c        ****     DEBUG_Start();
 130              		.loc 1 20 0
 131              		.thumb
 132              		.syntax unified
 133 0004 FFF7FEFF 		bl	DEBUG_Start
 134              	.LVL8:
  21:main.c        ****     InitCAN(DEVICE_GROUP_JETSON, DEVICE_SERIAL_JETSON);
 135              		.loc 1 21 0
 136 0008 0121     		movs	r1, #1
 137 000a 0220     		movs	r0, #2
 138 000c FFF7FEFF 		bl	InitCAN
 139              	.LVL9:
  22:main.c        **** 
  23:main.c        ****     state = PULL_LAT;
 140              		.loc 1 23 0
 141 0010 0022     		movs	r2, #0
 142 0012 414B     		ldr	r3, .L15
 143 0014 1A60     		str	r2, [r3]
  24:main.c        ****     
  25:main.c        ****     Print("\r\n***TESTING CAN COMMUNICATION WITH IMU BOARD***\r\n\r\n");
 144              		.loc 1 25 0
ARM GAS  C:\Users\DAVISS~1\AppData\Local\Temp\ccDmB1i9.s 			page 4


 145 0016 4148     		ldr	r0, .L15+4
 146 0018 FFF7FEFF 		bl	DEBUG_UartPutString
 147              	.LVL10:
 148              	.L8:
  26:main.c        ****     
  27:main.c        ****     for(;;)
  28:main.c        ****     {
  29:main.c        ****         switch(state)
 149              		.loc 1 29 0
 150 001c 3E4B     		ldr	r3, .L15
 151 001e 1B68     		ldr	r3, [r3]
 152 0020 012B     		cmp	r3, #1
 153 0022 11D0     		beq	.L9
 154 0024 022B     		cmp	r3, #2
 155 0026 1DD0     		beq	.L10
 156 0028 002B     		cmp	r3, #0
 157 002a F7D1     		bne	.L8
  30:main.c        ****         {
  31:main.c        ****             case(PULL_LAT):
  32:main.c        ****                 AssembleTelemetryPullPacket(&send, DEVICE_GROUP_TELEMETRY, DEVICE_SERIAL_TELEM_LOCA
 158              		.loc 1 32 0
 159 002c 3C4C     		ldr	r4, .L15+8
 160 002e 0533     		adds	r3, r3, #5
 161 0030 0122     		movs	r2, #1
 162 0032 0521     		movs	r1, #5
 163 0034 2000     		movs	r0, r4
 164 0036 FFF7FEFF 		bl	AssembleTelemetryPullPacket
 165              	.LVL11:
  33:main.c        ****                 SendCANPacket( &send );
 166              		.loc 1 33 0
 167 003a 2000     		movs	r0, r4
 168 003c FFF7FEFF 		bl	SendCANPacket
 169              	.LVL12:
  34:main.c        ****                 state = WAIT;
 170              		.loc 1 34 0
 171 0040 0222     		movs	r2, #2
 172 0042 354B     		ldr	r3, .L15
 173 0044 1A60     		str	r2, [r3]
  35:main.c        ****                 break;
 174              		.loc 1 35 0
 175 0046 E9E7     		b	.L8
 176              	.L9:
  36:main.c        ****                 
  37:main.c        ****             case(PULL_LON):
  38:main.c        ****                 AssembleTelemetryPullPacket(&send, DEVICE_GROUP_TELEMETRY, DEVICE_SERIAL_TELEM_LOCA
 177              		.loc 1 38 0
 178 0048 354C     		ldr	r4, .L15+8
 179 004a 0623     		movs	r3, #6
 180 004c 0122     		movs	r2, #1
 181 004e 0521     		movs	r1, #5
 182 0050 2000     		movs	r0, r4
 183 0052 FFF7FEFF 		bl	AssembleTelemetryPullPacket
 184              	.LVL13:
  39:main.c        ****                 SendCANPacket( &send );
 185              		.loc 1 39 0
 186 0056 2000     		movs	r0, r4
 187 0058 FFF7FEFF 		bl	SendCANPacket
ARM GAS  C:\Users\DAVISS~1\AppData\Local\Temp\ccDmB1i9.s 			page 5


 188              	.LVL14:
  40:main.c        ****                 state = WAIT;
 189              		.loc 1 40 0
 190 005c 0222     		movs	r2, #2
 191 005e 2E4B     		ldr	r3, .L15
 192 0060 1A60     		str	r2, [r3]
  41:main.c        ****                 break;
 193              		.loc 1 41 0
 194 0062 DBE7     		b	.L8
 195              	.L10:
  42:main.c        ****                 
  43:main.c        ****             case(WAIT):
  44:main.c        ****                 if (PollAndReceiveCANPacket( &receive ) == ERROR_NONE)
 196              		.loc 1 44 0
 197 0064 2F48     		ldr	r0, .L15+12
 198 0066 FFF7FEFF 		bl	PollAndReceiveCANPacket
 199              	.LVL15:
 200 006a 0028     		cmp	r0, #0
 201 006c D6D1     		bne	.L8
  45:main.c        ****                 {
  46:main.c        ****                     Print("Packet Found!\r\n");
 202              		.loc 1 46 0
 203 006e 2E48     		ldr	r0, .L15+16
 204 0070 FFF7FEFF 		bl	DEBUG_UartPutString
 205              	.LVL16:
  47:main.c        ****                     if (DecodeTelemetryType( &receive ) == GPS_LON)
 206              		.loc 1 47 0
 207 0074 2B48     		ldr	r0, .L15+12
 208 0076 FFF7FEFF 		bl	DecodeTelemetryType
 209              	.LVL17:
 210 007a 0628     		cmp	r0, #6
 211 007c 12D1     		bne	.L13
  48:main.c        ****                     {
  49:main.c        ****                         Print("LONGITUDE: ");
 212              		.loc 1 49 0
 213 007e 2B48     		ldr	r0, .L15+20
 214 0080 FFF7FEFF 		bl	DEBUG_UartPutString
 215              	.LVL18:
  50:main.c        ****                         PrintInt(DecodeTelemetryDataSigned( &receive ));
 216              		.loc 1 50 0
 217 0084 2748     		ldr	r0, .L15+12
 218 0086 FFF7FEFF 		bl	DecodeTelemetryDataSigned
 219              	.LVL19:
 220 008a 0A22     		movs	r2, #10
 221 008c 2849     		ldr	r1, .L15+24
 222 008e FFF7FEFF 		bl	itoa
 223              	.LVL20:
 224 0092 FFF7FEFF 		bl	DEBUG_UartPutString
 225              	.LVL21:
  51:main.c        ****                         Print("\r\n\r\n");
 226              		.loc 1 51 0
 227 0096 2748     		ldr	r0, .L15+28
 228 0098 FFF7FEFF 		bl	DEBUG_UartPutString
 229              	.LVL22:
  52:main.c        ****                         state = PULL_LAT;
 230              		.loc 1 52 0
 231 009c 0022     		movs	r2, #0
ARM GAS  C:\Users\DAVISS~1\AppData\Local\Temp\ccDmB1i9.s 			page 6


 232 009e 1E4B     		ldr	r3, .L15
 233 00a0 1A60     		str	r2, [r3]
 234 00a2 BBE7     		b	.L8
 235              	.L13:
  53:main.c        ****                     }
  54:main.c        ****                     else if (DecodeTelemetryType ( &receive ) == GPS_LAT)
 236              		.loc 1 54 0
 237 00a4 1F48     		ldr	r0, .L15+12
 238 00a6 FFF7FEFF 		bl	DecodeTelemetryType
 239              	.LVL23:
 240 00aa 0528     		cmp	r0, #5
 241 00ac 12D1     		bne	.L14
  55:main.c        ****                     {
  56:main.c        ****                         Print("LATITUDE: ");
 242              		.loc 1 56 0
 243 00ae 2248     		ldr	r0, .L15+32
 244 00b0 FFF7FEFF 		bl	DEBUG_UartPutString
 245              	.LVL24:
  57:main.c        ****                         PrintInt(DecodeTelemetryDataSigned( &receive ));
 246              		.loc 1 57 0
 247 00b4 1B48     		ldr	r0, .L15+12
 248 00b6 FFF7FEFF 		bl	DecodeTelemetryDataSigned
 249              	.LVL25:
 250 00ba 0A22     		movs	r2, #10
 251 00bc 1C49     		ldr	r1, .L15+24
 252 00be FFF7FEFF 		bl	itoa
 253              	.LVL26:
 254 00c2 FFF7FEFF 		bl	DEBUG_UartPutString
 255              	.LVL27:
  58:main.c        ****                         Print("\r\n");
 256              		.loc 1 58 0
 257 00c6 1D48     		ldr	r0, .L15+36
 258 00c8 FFF7FEFF 		bl	DEBUG_UartPutString
 259              	.LVL28:
  59:main.c        ****                         state = PULL_LON;
 260              		.loc 1 59 0
 261 00cc 0122     		movs	r2, #1
 262 00ce 124B     		ldr	r3, .L15
 263 00d0 1A60     		str	r2, [r3]
 264 00d2 A3E7     		b	.L8
 265              	.L14:
  60:main.c        ****                     }
  61:main.c        ****                     else {
  62:main.c        ****                         Print("BAD PACKET\r\n");
 266              		.loc 1 62 0
 267 00d4 1A48     		ldr	r0, .L15+40
 268 00d6 FFF7FEFF 		bl	DEBUG_UartPutString
 269              	.LVL29:
  63:main.c        ****                         PrintInt(DecodeTelemetryType( &receive ));
 270              		.loc 1 63 0
 271 00da 124E     		ldr	r6, .L15+12
 272 00dc 3000     		movs	r0, r6
 273 00de FFF7FEFF 		bl	DecodeTelemetryType
 274              	.LVL30:
 275 00e2 134D     		ldr	r5, .L15+24
 276 00e4 0A22     		movs	r2, #10
 277 00e6 2900     		movs	r1, r5
ARM GAS  C:\Users\DAVISS~1\AppData\Local\Temp\ccDmB1i9.s 			page 7


 278 00e8 FFF7FEFF 		bl	itoa
 279              	.LVL31:
 280 00ec FFF7FEFF 		bl	DEBUG_UartPutString
 281              	.LVL32:
  64:main.c        ****                         Print("\r\n");
 282              		.loc 1 64 0
 283 00f0 124C     		ldr	r4, .L15+36
 284 00f2 2000     		movs	r0, r4
 285 00f4 FFF7FEFF 		bl	DEBUG_UartPutString
 286              	.LVL33:
  65:main.c        ****                         PrintInt(GetSenderDeviceGroupCode( &receive ));
 287              		.loc 1 65 0
 288 00f8 3000     		movs	r0, r6
 289 00fa FFF7FEFF 		bl	GetSenderDeviceGroupCode
 290              	.LVL34:
 291 00fe 0A22     		movs	r2, #10
 292 0100 2900     		movs	r1, r5
 293 0102 FFF7FEFF 		bl	itoa
 294              	.LVL35:
 295 0106 FFF7FEFF 		bl	DEBUG_UartPutString
 296              	.LVL36:
  66:main.c        ****                         Print("\r\n");
 297              		.loc 1 66 0
 298 010a 2000     		movs	r0, r4
 299 010c FFF7FEFF 		bl	DEBUG_UartPutString
 300              	.LVL37:
  67:main.c        ****                         Print("\r\n");
 301              		.loc 1 67 0
 302 0110 2000     		movs	r0, r4
 303 0112 FFF7FEFF 		bl	DEBUG_UartPutString
 304              	.LVL38:
 305 0116 81E7     		b	.L8
 306              	.L16:
 307              		.align	2
 308              	.L15:
 309 0118 00000000 		.word	state
 310 011c 20000000 		.word	.LC6
 311 0120 00000000 		.word	send
 312 0124 00000000 		.word	receive
 313 0128 58000000 		.word	.LC10
 314 012c 68000000 		.word	.LC12
 315 0130 00000000 		.word	debugOutput
 316 0134 74000000 		.word	.LC15
 317 0138 7C000000 		.word	.LC17
 318 013c 88000000 		.word	.LC19
 319 0140 8C000000 		.word	.LC21
 320              		.cfi_endproc
 321              	.LFE36:
 322              		.size	main, .-main
 323              		.comm	txData,4,4
 324              		.comm	state,4,4
 325              		.comm	receive,12,4
 326              		.comm	send,12,4
 327              		.comm	debugOutput,32,4
 328              		.section	.rodata.str1.4,"aMS",%progbits,1
 329              		.align	2
 330              	.LC0:
ARM GAS  C:\Users\DAVISS~1\AppData\Local\Temp\ccDmB1i9.s 			page 8


 331 0000 42797465 		.ascii	"Byte%d %x   \000"
 331      25642025 
 331      78202020 
 331      00
 332 000d 000000   		.space	3
 333              	.LC3:
 334 0010 49443A25 		.ascii	"ID:%x %x %x\015\012\000"
 334      78202578 
 334      2025780D 
 334      0A00
 335 001e 0000     		.space	2
 336              	.LC6:
 337 0020 0D0A2A2A 		.ascii	"\015\012***TESTING CAN COMMUNICATION WITH IMU BOARD"
 337      2A544553 
 337      54494E47 
 337      2043414E 
 337      20434F4D 
 338 004d 2A2A2A0D 		.ascii	"***\015\012\015\012\000"
 338      0A0D0A00 
 339 0055 000000   		.space	3
 340              	.LC10:
 341 0058 5061636B 		.ascii	"Packet Found!\015\012\000"
 341      65742046 
 341      6F756E64 
 341      210D0A00 
 342              	.LC12:
 343 0068 4C4F4E47 		.ascii	"LONGITUDE: \000"
 343      49545544 
 343      453A2000 
 344              	.LC15:
 345 0074 0D0A0D0A 		.ascii	"\015\012\015\012\000"
 345      00
 346 0079 000000   		.space	3
 347              	.LC17:
 348 007c 4C415449 		.ascii	"LATITUDE: \000"
 348      54554445 
 348      3A2000
 349 0087 00       		.space	1
 350              	.LC19:
 351 0088 0D0A00   		.ascii	"\015\012\000"
 352 008b 00       		.space	1
 353              	.LC21:
 354 008c 42414420 		.ascii	"BAD PACKET\015\012\000"
 354      5041434B 
 354      45540D0A 
 354      00
 355              		.text
 356              	.Letext0:
 357              		.file 2 "x:\\programs\\cypress\\psoc creator\\4.4\\psoc creator\\import\\gnu\\arm\\5.4.1\\arm-none
 358              		.file 3 "x:\\programs\\cypress\\psoc creator\\4.4\\psoc creator\\import\\gnu\\arm\\5.4.1\\arm-none
 359              		.file 4 ".\\HindsightCAN/CANPacket.h"
 360              		.file 5 "main.h"
 361              		.file 6 "x:\\programs\\cypress\\psoc creator\\4.4\\psoc creator\\import\\gnu\\arm\\5.4.1\\arm-none
 362              		.file 7 "Generated_Source\\PSoC4/DEBUG_SPI_UART.h"
 363              		.file 8 "Generated_Source\\PSoC4/DEBUG.h"
 364              		.file 9 ".\\HindsightCAN/Port.h"
 365              		.file 10 ".\\HindsightCAN/CANCommon.h"
ARM GAS  C:\Users\DAVISS~1\AppData\Local\Temp\ccDmB1i9.s 			page 9


 366              		.file 11 "x:\\programs\\cypress\\psoc creator\\4.4\\psoc creator\\import\\gnu\\arm\\5.4.1\\arm-non