ARM GAS  C:\Users\DAVISS~1\AppData\Local\Temp\cc47UyYF.s 			page 1


   1              		.syntax unified
   2              		.cpu cortex-m0
   3              		.fpu softvfp
   4              		.eabi_attribute 20, 1
   5              		.eabi_attribute 21, 1
   6              		.eabi_attribute 23, 3
   7              		.eabi_attribute 24, 1
   8              		.eabi_attribute 25, 1
   9              		.eabi_attribute 26, 1
  10              		.eabi_attribute 30, 1
  11              		.eabi_attribute 34, 0
  12              		.eabi_attribute 18, 4
  13              		.thumb
  14              		.syntax unified
  15              		.file	"PortCANDebug.c"
  16              		.text
  17              	.Ltext0:
  18              		.cfi_sections	.debug_frame
  19              		.section	.text.InitCAN,"ax",%progbits
  20              		.align	2
  21              		.global	InitCAN
  22              		.code	16
  23              		.thumb_func
  24              		.type	InitCAN, %function
  25              	InitCAN:
  26              	.LFB34:
  27              		.file 1 "PortCANDebug.c"
   1:PortCANDebug.c **** /*
   2:PortCANDebug.c ****  *This code was stolen from the CAN github Portfiles examples.
   3:PortCANDebug.c ****  *If it's broken you know who to blame:
   4:PortCANDebug.c ****  *
   5:PortCANDebug.c ****  * Authors: Austin Chan
   6:PortCANDebug.c ****  * Documentation: ClickUp
   7:PortCANDebug.c ****  * 
   8:PortCANDebug.c ****  * Port specific notes:
   9:PortCANDebug.c ****  * Design must include a CAN block called CAN (not CAN0 or variation)
  10:PortCANDebug.c ****  * Must auto generate code within PSoC IDE to use APIs
  11:PortCANDebug.c ****  */
  12:PortCANDebug.c **** #if CHIP_TYPE == CHIP_TYPE_PSOC_CY8C4248AZI_L485
  13:PortCANDebug.c **** 
  14:PortCANDebug.c **** #include "Port.h"
  15:PortCANDebug.c **** #include "project.h"
  16:PortCANDebug.c **** #include "stdlib.h"
  17:PortCANDebug.c ****     
  18:PortCANDebug.c **** #define Print(message) DEBUG_UartPutString(message)
  19:PortCANDebug.c ****     
  20:PortCANDebug.c **** //Flag internal to this port, 0xFF if no message waiting, doubles as mailbox number
  21:PortCANDebug.c **** volatile uint8_t messagePresentFlag = 0xFF;
  22:PortCANDebug.c **** volatile uint8_t messageReadFlag = 0x0;
  23:PortCANDebug.c **** uint8_t FIFOSize(void);
  24:PortCANDebug.c **** void countAddFIFO(void);
  25:PortCANDebug.c **** void countRemoveFIFO(void);
  26:PortCANDebug.c **** 
  27:PortCANDebug.c **** #define FIFO_SIZE   16
  28:PortCANDebug.c **** volatile CANPacket latestMessage[FIFO_SIZE];//internal to this port acts like a FIFO with 10 packet
  29:PortCANDebug.c **** volatile uint8_t latestMessageHead = 0; //which index to read
  30:PortCANDebug.c **** volatile uint8_t latestMessageTail = 0; //which index to write to next
ARM GAS  C:\Users\DAVISS~1\AppData\Local\Temp\cc47UyYF.s 			page 2


  31:PortCANDebug.c **** volatile uint8_t latestMessageFull = 0; //FIFO is full
  32:PortCANDebug.c **** 
  33:PortCANDebug.c **** #define STATUS_MAILBOX0 0x1
  34:PortCANDebug.c **** #define STATUS_MAILBOX1 0x2
  35:PortCANDebug.c **** #define STATUS_MAILBOX2 0x4
  36:PortCANDebug.c **** #define STATUS_MAILBOX3 0x8
  37:PortCANDebug.c **** #define STATUS_MAILBOX4 0x10
  38:PortCANDebug.c **** #define STATUS_MAILBOX5 0x20
  39:PortCANDebug.c **** 
  40:PortCANDebug.c **** 
  41:PortCANDebug.c **** CY_ISR_PROTO(CAN_FLAG_ISR);
  42:PortCANDebug.c **** 
  43:PortCANDebug.c **** int deviceAddress;
  44:PortCANDebug.c **** int deviceGroup;
  45:PortCANDebug.c **** CAN_RX_CFG rxMailbox;
  46:PortCANDebug.c **** void InitCAN(int deviceGroupInput, int deviceAddressInput)
  47:PortCANDebug.c **** {
  28              		.loc 1 47 0
  29              		.cfi_startproc
  30              		@ args = 0, pretend = 0, frame = 0
  31              		@ frame_needed = 0, uses_anonymous_args = 0
  32              	.LVL0:
  33 0000 F8B5     		push	{r3, r4, r5, r6, r7, lr}
  34              		.cfi_def_cfa_offset 24
  35              		.cfi_offset 3, -24
  36              		.cfi_offset 4, -20
  37              		.cfi_offset 5, -16
  38              		.cfi_offset 6, -12
  39              		.cfi_offset 7, -8
  40              		.cfi_offset 14, -4
  41 0002 0400     		movs	r4, r0
  42 0004 0D00     		movs	r5, r1
  48:PortCANDebug.c ****     CAN_Start();//must name CAN Top Design block as "CAN"
  43              		.loc 1 48 0
  44 0006 FFF7FEFF 		bl	CAN_Start
  45              	.LVL1:
  49:PortCANDebug.c ****     
  50:PortCANDebug.c ****     //TODO: I'm sure there's a better way of doing this part
  51:PortCANDebug.c ****     deviceGroup = deviceGroupInput & 0xF; // 4bits of ID
  46              		.loc 1 51 0
  47 000a 0F20     		movs	r0, #15
  48 000c 2040     		ands	r0, r4
  49 000e 1A4E     		ldr	r6, .L2
  50 0010 3060     		str	r0, [r6]
  52:PortCANDebug.c ****     deviceAddress = deviceAddressInput & (0x3f);//6bits of ID
  51              		.loc 1 52 0
  52 0012 3F21     		movs	r1, #63
  53 0014 2940     		ands	r1, r5
  54 0016 194B     		ldr	r3, .L2+4
  55 0018 1960     		str	r1, [r3]
  53:PortCANDebug.c ****     
  54:PortCANDebug.c ****     //sets up inidvidual recieve mailbox (3rd priority mailbox)
  55:PortCANDebug.c ****     rxMailbox.rxmailbox = 0;
  56              		.loc 1 55 0
  57 001a 194C     		ldr	r4, .L2+8
  58              	.LVL2:
  59 001c 0025     		movs	r5, #0
ARM GAS  C:\Users\DAVISS~1\AppData\Local\Temp\cc47UyYF.s 			page 3


  60              	.LVL3:
  61 001e 2570     		strb	r5, [r4]
  56:PortCANDebug.c ****     rxMailbox.rxacr = ((deviceGroup << 6)|(deviceAddress)) << 21;  // first 11 bits are the CAN ID 
  62              		.loc 1 56 0
  63 0020 8001     		lsls	r0, r0, #6
  64 0022 0843     		orrs	r0, r1
  65 0024 4005     		lsls	r0, r0, #21
  66 0026 E060     		str	r0, [r4, #12]
  57:PortCANDebug.c ****     rxMailbox.rxamr = 0x801FFFFF; // what bits to ignore
  67              		.loc 1 57 0
  68 0028 164F     		ldr	r7, .L2+12
  69 002a A760     		str	r7, [r4, #8]
  58:PortCANDebug.c ****     rxMailbox.rxcmd = CAN_RX_CMD_REG(CAN_RX_MAILBOX_0);//need to know what this is
  70              		.loc 1 58 0
  71 002c 164B     		ldr	r3, .L2+16
  72 002e 1B68     		ldr	r3, [r3]
  73 0030 6360     		str	r3, [r4, #4]
  59:PortCANDebug.c ****     CAN_RxBufConfig(&rxMailbox);
  74              		.loc 1 59 0
  75 0032 2000     		movs	r0, r4
  76 0034 FFF7FEFF 		bl	CAN_RxBufConfig
  77              	.LVL4:
  60:PortCANDebug.c ****     
  61:PortCANDebug.c ****     //setup broadcast recieve mailbox (1st priority mailbox)
  62:PortCANDebug.c ****     rxMailbox.rxmailbox = 1;
  78              		.loc 1 62 0
  79 0038 0123     		movs	r3, #1
  80 003a 2370     		strb	r3, [r4]
  63:PortCANDebug.c ****     rxMailbox.rxacr = ((0x0 << 6)|(0x0)) << 21; //0x20F<<21; // first 11 bits are the CAN ID that i
  81              		.loc 1 63 0
  82 003c E560     		str	r5, [r4, #12]
  64:PortCANDebug.c ****     rxMailbox.rxamr = 0x801FFFFF; // what bits to ignore
  83              		.loc 1 64 0
  84 003e A760     		str	r7, [r4, #8]
  65:PortCANDebug.c ****     rxMailbox.rxcmd = CAN_RX_CMD_REG(CAN_RX_MAILBOX_1);//need to know what this is
  85              		.loc 1 65 0
  86 0040 124B     		ldr	r3, .L2+20
  87 0042 1B68     		ldr	r3, [r3]
  88 0044 6360     		str	r3, [r4, #4]
  66:PortCANDebug.c ****     CAN_RxBufConfig(&rxMailbox);
  89              		.loc 1 66 0
  90 0046 2000     		movs	r0, r4
  91 0048 FFF7FEFF 		bl	CAN_RxBufConfig
  92              	.LVL5:
  67:PortCANDebug.c ****     
  68:PortCANDebug.c ****     //setup group broadcast recieve mailbox (2nd priority mailbox)
  69:PortCANDebug.c ****     rxMailbox.rxmailbox = 2;
  93              		.loc 1 69 0
  94 004c 0223     		movs	r3, #2
  95 004e 2370     		strb	r3, [r4]
  70:PortCANDebug.c ****     rxMailbox.rxacr = ((deviceGroup << 6)|(0x3F)) << 21; //0x20F<<21; // first 11 bits are the CAN 
  96              		.loc 1 70 0
  97 0050 3368     		ldr	r3, [r6]
  98 0052 DB06     		lsls	r3, r3, #27
  99 0054 FC22     		movs	r2, #252
 100 0056 D204     		lsls	r2, r2, #19
 101 0058 1343     		orrs	r3, r2
ARM GAS  C:\Users\DAVISS~1\AppData\Local\Temp\cc47UyYF.s 			page 4


 102 005a E360     		str	r3, [r4, #12]
  71:PortCANDebug.c ****     rxMailbox.rxamr = 0x801FFFFF; // what bits to ignore
 103              		.loc 1 71 0
 104 005c A760     		str	r7, [r4, #8]
  72:PortCANDebug.c ****     rxMailbox.rxcmd = CAN_RX_CMD_REG(CAN_RX_MAILBOX_2);//need to know what this is
 105              		.loc 1 72 0
 106 005e 0C4B     		ldr	r3, .L2+24
 107 0060 1B68     		ldr	r3, [r3]
 108 0062 6360     		str	r3, [r4, #4]
  73:PortCANDebug.c ****     CAN_RxBufConfig(&rxMailbox);
 109              		.loc 1 73 0
 110 0064 2000     		movs	r0, r4
 111 0066 FFF7FEFF 		bl	CAN_RxBufConfig
 112              	.LVL6:
  74:PortCANDebug.c ****     
  75:PortCANDebug.c ****     CAN_GlobalIntEnable();
 113              		.loc 1 75 0
 114 006a FFF7FEFF 		bl	CAN_GlobalIntEnable
 115              	.LVL7:
  76:PortCANDebug.c ****     CyIntSetVector(CAN_ISR_NUMBER, CAN_FLAG_ISR);
 116              		.loc 1 76 0
 117 006e 0949     		ldr	r1, .L2+28
 118 0070 1C20     		movs	r0, #28
 119 0072 FFF7FEFF 		bl	CyIntSetVector
 120              	.LVL8:
  77:PortCANDebug.c ****     //CY_ISR_PROTO(CAN_FLAG_ISR);
  78:PortCANDebug.c ****     
  79:PortCANDebug.c **** }
 121              		.loc 1 79 0
 122              		@ sp needed
 123 0076 F8BD     		pop	{r3, r4, r5, r6, r7, pc}
 124              	.L3:
 125              		.align	2
 126              	.L2:
 127 0078 00000000 		.word	deviceGroup
 128 007c 00000000 		.word	deviceAddress
 129 0080 00000000 		.word	rxMailbox
 130 0084 FFFF1F80 		.word	-2145386497
 131 0088 A0002F40 		.word	1076822176
 132 008c C0002F40 		.word	1076822208
 133 0090 E0002F40 		.word	1076822240
 134 0094 00000000 		.word	CAN_FLAG_ISR
 135              		.cfi_endproc
 136              	.LFE34:
 137              		.size	InitCAN, .-InitCAN
 138              		.section	.text.SendCANPacket,"ax",%progbits
 139              		.align	2
 140              		.global	SendCANPacket
 141              		.code	16
 142              		.thumb_func
 143              		.type	SendCANPacket, %function
 144              	SendCANPacket:
 145              	.LFB35:
  80:PortCANDebug.c **** int SendCANPacket(CANPacket *packetToSend)
  81:PortCANDebug.c **** {
 146              		.loc 1 81 0
 147              		.cfi_startproc
ARM GAS  C:\Users\DAVISS~1\AppData\Local\Temp\cc47UyYF.s 			page 5


 148              		@ args = 0, pretend = 0, frame = 24
 149              		@ frame_needed = 0, uses_anonymous_args = 0
 150              	.LVL9:
 151 0000 10B5     		push	{r4, lr}
 152              		.cfi_def_cfa_offset 8
 153              		.cfi_offset 4, -8
 154              		.cfi_offset 14, -4
 155 0002 86B0     		sub	sp, sp, #24
 156              		.cfi_def_cfa_offset 32
  82:PortCANDebug.c ****     if(!packetToSend) {return ERROR_NULL_POINTER;}
 157              		.loc 1 82 0
 158 0004 0028     		cmp	r0, #0
 159 0006 15D0     		beq	.L6
  83:PortCANDebug.c ****     CAN_TX_MSG PSoCMessage;//CAN structure
  84:PortCANDebug.c ****     CAN_DATA_BYTES_MSG PSoCData;//CAN data
  85:PortCANDebug.c ****     PSoCMessage.id = packetToSend->id;
 160              		.loc 1 85 0
 161 0008 0388     		ldrh	r3, [r0]
 162 000a 02AC     		add	r4, sp, #8
 163 000c 0293     		str	r3, [sp, #8]
  86:PortCANDebug.c ****     PSoCMessage.rtr = 0x0;
 164              		.loc 1 86 0
 165 000e 0023     		movs	r3, #0
 166 0010 2371     		strb	r3, [r4, #4]
  87:PortCANDebug.c ****     PSoCMessage.ide = 0x0;//Not extended
 167              		.loc 1 87 0
 168 0012 6371     		strb	r3, [r4, #5]
  88:PortCANDebug.c ****     PSoCMessage.dlc = packetToSend->dlc;
 169              		.loc 1 88 0
 170 0014 8278     		ldrb	r2, [r0, #2]
 171 0016 A271     		strb	r2, [r4, #6]
  89:PortCANDebug.c ****     PSoCMessage.irq = 0x0;
 172              		.loc 1 89 0
 173 0018 E371     		strb	r3, [r4, #7]
  90:PortCANDebug.c ****     PSoCMessage.msg = &PSoCData;
 174              		.loc 1 90 0
 175 001a 6B46     		mov	r3, sp
 176 001c 0593     		str	r3, [sp, #20]
  91:PortCANDebug.c ****     
  92:PortCANDebug.c ****     memcpy(PSoCData.byte, packetToSend->data, 8);
 177              		.loc 1 92 0
 178 001e C11C     		adds	r1, r0, #3
 179 0020 0822     		movs	r2, #8
 180 0022 6846     		mov	r0, sp
 181              	.LVL10:
 182 0024 FFF7FEFF 		bl	memcpy
 183              	.LVL11:
  93:PortCANDebug.c ****     
  94:PortCANDebug.c ****     if(CAN_SendMsg(&PSoCMessage) == CYRET_SUCCESS) {
 184              		.loc 1 94 0
 185 0028 2000     		movs	r0, r4
 186 002a FFF7FEFF 		bl	CAN_SendMsg
 187              	.LVL12:
 188 002e 0028     		cmp	r0, #0
 189 0030 02D1     		bne	.L7
 190 0032 02E0     		b	.L5
 191              	.LVL13:
ARM GAS  C:\Users\DAVISS~1\AppData\Local\Temp\cc47UyYF.s 			page 6


 192              	.L6:
  82:PortCANDebug.c ****     CAN_TX_MSG PSoCMessage;//CAN structure
 193              		.loc 1 82 0
 194 0034 0220     		movs	r0, #2
 195              	.LVL14:
 196 0036 00E0     		b	.L5
 197              	.L7:
  95:PortCANDebug.c ****         return ERROR_NONE;
  96:PortCANDebug.c ****     } else
  97:PortCANDebug.c ****     {
  98:PortCANDebug.c ****         return ERROR_GENERIC_ERROR;
 198              		.loc 1 98 0
 199 0038 0120     		movs	r0, #1
 200              	.L5:
  99:PortCANDebug.c ****     }
 100:PortCANDebug.c **** }
 201              		.loc 1 100 0
 202 003a 06B0     		add	sp, sp, #24
 203              		@ sp needed
 204 003c 10BD     		pop	{r4, pc}
 205              		.cfi_endproc
 206              	.LFE35:
 207              		.size	SendCANPacket, .-SendCANPacket
 208 003e C046     		.section	.text.getLocalDeviceSerial,"ax",%progbits
 209              		.align	2
 210              		.global	getLocalDeviceSerial
 211              		.code	16
 212              		.thumb_func
 213              		.type	getLocalDeviceSerial, %function
 214              	getLocalDeviceSerial:
 215              	.LFB37:
 101:PortCANDebug.c **** //
 102:PortCANDebug.c **** int PollAndReceiveCANPacket(CANPacket *receivedPacket)
 103:PortCANDebug.c **** {
 104:PortCANDebug.c ****     if(!receivedPacket) {
 105:PortCANDebug.c ****         return ERROR_NULL_POINTER;
 106:PortCANDebug.c ****     }
 107:PortCANDebug.c ****     volatile uint8_t size = FIFOSize();
 108:PortCANDebug.c ****     if(size)
 109:PortCANDebug.c ****     {
 110:PortCANDebug.c ****         *(receivedPacket) = latestMessage[latestMessageHead];
 111:PortCANDebug.c ****         countRemoveFIFO();
 112:PortCANDebug.c ****         return ERROR_NONE;
 113:PortCANDebug.c ****     }
 114:PortCANDebug.c ****     return 0x02; //No message received error
 115:PortCANDebug.c **** }
 116:PortCANDebug.c **** 
 117:PortCANDebug.c **** uint8_t getLocalDeviceSerial()
 118:PortCANDebug.c **** {
 216              		.loc 1 118 0
 217              		.cfi_startproc
 218              		@ args = 0, pretend = 0, frame = 0
 219              		@ frame_needed = 0, uses_anonymous_args = 0
 220              		@ link register save eliminated.
 119:PortCANDebug.c ****     return deviceAddress; 
 221              		.loc 1 119 0
 222 0000 014B     		ldr	r3, .L9
ARM GAS  C:\Users\DAVISS~1\AppData\Local\Temp\cc47UyYF.s 			page 7


 223 0002 1878     		ldrb	r0, [r3]
 120:PortCANDebug.c **** }
 224              		.loc 1 120 0
 225              		@ sp needed
 226 0004 7047     		bx	lr
 227              	.L10:
 228 0006 C046     		.align	2
 229              	.L9:
 230 0008 00000000 		.word	deviceAddress
 231              		.cfi_endproc
 232              	.LFE37:
 233              		.size	getLocalDeviceSerial, .-getLocalDeviceSerial
 234              		.section	.text.getLocalDeviceGroup,"ax",%progbits
 235              		.align	2
 236              		.global	getLocalDeviceGroup
 237              		.code	16
 238              		.thumb_func
 239              		.type	getLocalDeviceGroup, %function
 240              	getLocalDeviceGroup:
 241              	.LFB38:
 121:PortCANDebug.c **** uint8_t getLocalDeviceGroup()
 122:PortCANDebug.c **** {
 242              		.loc 1 122 0
 243              		.cfi_startproc
 244              		@ args = 0, pretend = 0, frame = 0
 245              		@ frame_needed = 0, uses_anonymous_args = 0
 246              		@ link register save eliminated.
 123:PortCANDebug.c ****     return deviceGroup;
 247              		.loc 1 123 0
 248 0000 014B     		ldr	r3, .L12
 249 0002 1878     		ldrb	r0, [r3]
 124:PortCANDebug.c **** }
 250              		.loc 1 124 0
 251              		@ sp needed
 252 0004 7047     		bx	lr
 253              	.L13:
 254 0006 C046     		.align	2
 255              	.L12:
 256 0008 00000000 		.word	deviceGroup
 257              		.cfi_endproc
 258              	.LFE38:
 259              		.size	getLocalDeviceGroup, .-getLocalDeviceGroup
 260              		.section	.text.getChipType,"ax",%progbits
 261              		.align	2
 262              		.global	getChipType
 263              		.code	16
 264              		.thumb_func
 265              		.type	getChipType, %function
 266              	getChipType:
 267              	.LFB39:
 125:PortCANDebug.c **** 
 126:PortCANDebug.c **** uint8_t getChipType()
 127:PortCANDebug.c **** {
 268              		.loc 1 127 0
 269              		.cfi_startproc
 270              		@ args = 0, pretend = 0, frame = 0
 271              		@ frame_needed = 0, uses_anonymous_args = 0
ARM GAS  C:\Users\DAVISS~1\AppData\Local\Temp\cc47UyYF.s 			page 8


 272              		@ link register save eliminated.
 128:PortCANDebug.c ****     return 0x0000000; //This is supposed to be the CHIP_TYPE but Idk how that works so it's 0 now
 129:PortCANDebug.c **** }
 273              		.loc 1 129 0
 274 0000 0020     		movs	r0, #0
 275              		@ sp needed
 276 0002 7047     		bx	lr
 277              		.cfi_endproc
 278              	.LFE39:
 279              		.size	getChipType, .-getChipType
 280              		.section	.text.FIFOSize,"ax",%progbits
 281              		.align	2
 282              		.global	FIFOSize
 283              		.code	16
 284              		.thumb_func
 285              		.type	FIFOSize, %function
 286              	FIFOSize:
 287              	.LFB40:
 130:PortCANDebug.c **** 
 131:PortCANDebug.c **** //helper function calculate size of Fifo
 132:PortCANDebug.c **** uint8_t FIFOSize(){
 288              		.loc 1 132 0
 289              		.cfi_startproc
 290              		@ args = 0, pretend = 0, frame = 0
 291              		@ frame_needed = 0, uses_anonymous_args = 0
 292              		@ link register save eliminated.
 133:PortCANDebug.c ****     if(latestMessageFull) {
 293              		.loc 1 133 0
 294 0000 104B     		ldr	r3, .L19
 295 0002 1878     		ldrb	r0, [r3]
 296 0004 C0B2     		uxtb	r0, r0
 297 0006 0028     		cmp	r0, #0
 298 0008 19D1     		bne	.L18
 134:PortCANDebug.c ****         return FIFO_SIZE;
 135:PortCANDebug.c ****     }
 136:PortCANDebug.c ****     else if(latestMessageHead < latestMessageTail) {
 299              		.loc 1 136 0
 300 000a 5A78     		ldrb	r2, [r3, #1]
 301 000c D2B2     		uxtb	r2, r2
 302 000e 9B78     		ldrb	r3, [r3, #2]
 303 0010 DBB2     		uxtb	r3, r3
 304 0012 9A42     		cmp	r2, r3
 305 0014 05D2     		bcs	.L17
 137:PortCANDebug.c ****         return latestMessageTail - latestMessageHead;
 306              		.loc 1 137 0
 307 0016 0B4A     		ldr	r2, .L19
 308 0018 9378     		ldrb	r3, [r2, #2]
 309 001a 5078     		ldrb	r0, [r2, #1]
 310 001c 181A     		subs	r0, r3, r0
 311 001e C0B2     		uxtb	r0, r0
 312 0020 0EE0     		b	.L16
 313              	.L17:
 138:PortCANDebug.c ****     }
 139:PortCANDebug.c ****     else if(latestMessageHead > latestMessageTail) {
 314              		.loc 1 139 0
 315 0022 084B     		ldr	r3, .L19
 316 0024 5A78     		ldrb	r2, [r3, #1]
ARM GAS  C:\Users\DAVISS~1\AppData\Local\Temp\cc47UyYF.s 			page 9


 317 0026 D2B2     		uxtb	r2, r2
 318 0028 9B78     		ldrb	r3, [r3, #2]
 319 002a DBB2     		uxtb	r3, r3
 320 002c 9A42     		cmp	r2, r3
 321 002e 07D9     		bls	.L16
 140:PortCANDebug.c ****         return (FIFO_SIZE - latestMessageHead) + latestMessageTail;
 322              		.loc 1 140 0
 323 0030 044A     		ldr	r2, .L19
 324 0032 9378     		ldrb	r3, [r2, #2]
 325 0034 5078     		ldrb	r0, [r2, #1]
 326 0036 181A     		subs	r0, r3, r0
 327 0038 1030     		adds	r0, r0, #16
 328 003a C0B2     		uxtb	r0, r0
 329 003c 00E0     		b	.L16
 330              	.L18:
 134:PortCANDebug.c ****     }
 331              		.loc 1 134 0
 332 003e 1020     		movs	r0, #16
 333              	.L16:
 141:PortCANDebug.c ****     }
 142:PortCANDebug.c ****     else { // latestMessageHead == latestMessageTail && !latestMessageFull
 143:PortCANDebug.c ****         return 0;
 144:PortCANDebug.c ****     }
 145:PortCANDebug.c **** }
 334              		.loc 1 145 0
 335              		@ sp needed
 336 0040 7047     		bx	lr
 337              	.L20:
 338 0042 C046     		.align	2
 339              	.L19:
 340 0044 00000000 		.word	.LANCHOR0
 341              		.cfi_endproc
 342              	.LFE40:
 343              		.size	FIFOSize, .-FIFOSize
 344              		.section	.text.countAddFIFO,"ax",%progbits
 345              		.align	2
 346              		.global	countAddFIFO
 347              		.code	16
 348              		.thumb_func
 349              		.type	countAddFIFO, %function
 350              	countAddFIFO:
 351              	.LFB41:
 146:PortCANDebug.c **** 
 147:PortCANDebug.c **** void countAddFIFO(){ 
 352              		.loc 1 147 0
 353              		.cfi_startproc
 354              		@ args = 0, pretend = 0, frame = 0
 355              		@ frame_needed = 0, uses_anonymous_args = 0
 356              		@ link register save eliminated.
 148:PortCANDebug.c ****     latestMessageTail++;
 357              		.loc 1 148 0
 358 0000 124A     		ldr	r2, .L24
 359 0002 9378     		ldrb	r3, [r2, #2]
 360 0004 0133     		adds	r3, r3, #1
 361 0006 DBB2     		uxtb	r3, r3
 362 0008 9370     		strb	r3, [r2, #2]
 149:PortCANDebug.c ****     if(latestMessageTail >= FIFO_SIZE){
ARM GAS  C:\Users\DAVISS~1\AppData\Local\Temp\cc47UyYF.s 			page 10


 363              		.loc 1 149 0
 364 000a 9378     		ldrb	r3, [r2, #2]
 365 000c DBB2     		uxtb	r3, r3
 366 000e 0F2B     		cmp	r3, #15
 367 0010 02D9     		bls	.L22
 150:PortCANDebug.c ****         latestMessageTail = 0;
 368              		.loc 1 150 0
 369 0012 0022     		movs	r2, #0
 370 0014 0D4B     		ldr	r3, .L24
 371 0016 9A70     		strb	r2, [r3, #2]
 372              	.L22:
 151:PortCANDebug.c ****     }
 152:PortCANDebug.c ****     if(latestMessageFull) {
 373              		.loc 1 152 0
 374 0018 0C4B     		ldr	r3, .L24
 375 001a 1B78     		ldrb	r3, [r3]
 376 001c 002B     		cmp	r3, #0
 377 001e 0BD0     		beq	.L23
 153:PortCANDebug.c ****         latestMessageHead++;
 378              		.loc 1 153 0
 379 0020 0A4A     		ldr	r2, .L24
 380 0022 5378     		ldrb	r3, [r2, #1]
 381 0024 0133     		adds	r3, r3, #1
 382 0026 DBB2     		uxtb	r3, r3
 383 0028 5370     		strb	r3, [r2, #1]
 154:PortCANDebug.c ****         if(latestMessageHead >= FIFO_SIZE) {
 384              		.loc 1 154 0
 385 002a 5378     		ldrb	r3, [r2, #1]
 386 002c DBB2     		uxtb	r3, r3
 387 002e 0F2B     		cmp	r3, #15
 388 0030 02D9     		bls	.L23
 155:PortCANDebug.c ****             latestMessageHead = 0;
 389              		.loc 1 155 0
 390 0032 0022     		movs	r2, #0
 391 0034 054B     		ldr	r3, .L24
 392 0036 5A70     		strb	r2, [r3, #1]
 393              	.L23:
 156:PortCANDebug.c ****         }
 157:PortCANDebug.c ****     }
 158:PortCANDebug.c ****     latestMessageFull = (latestMessageHead == latestMessageTail);
 394              		.loc 1 158 0
 395 0038 044A     		ldr	r2, .L24
 396 003a 5378     		ldrb	r3, [r2, #1]
 397 003c 9178     		ldrb	r1, [r2, #2]
 398 003e 5B1A     		subs	r3, r3, r1
 399 0040 5942     		rsbs	r1, r3, #0
 400 0042 4B41     		adcs	r3, r3, r1
 401 0044 DBB2     		uxtb	r3, r3
 402 0046 1370     		strb	r3, [r2]
 159:PortCANDebug.c **** }
 403              		.loc 1 159 0
 404              		@ sp needed
 405 0048 7047     		bx	lr
 406              	.L25:
 407 004a C046     		.align	2
 408              	.L24:
 409 004c 00000000 		.word	.LANCHOR0
ARM GAS  C:\Users\DAVISS~1\AppData\Local\Temp\cc47UyYF.s 			page 11


 410              		.cfi_endproc
 411              	.LFE41:
 412              		.size	countAddFIFO, .-countAddFIFO
 413              		.section	.text.CAN_FLAG_ISR,"ax",%progbits
 414              		.align	2
 415              		.global	CAN_FLAG_ISR
 416              		.code	16
 417              		.thumb_func
 418              		.type	CAN_FLAG_ISR, %function
 419              	CAN_FLAG_ISR:
 420              	.LFB43:
 160:PortCANDebug.c **** 
 161:PortCANDebug.c **** void countRemoveFIFO(){
 162:PortCANDebug.c ****     if(FIFOSize() > 0) {
 163:PortCANDebug.c ****         latestMessageHead++;
 164:PortCANDebug.c ****         if(latestMessageHead >= FIFO_SIZE) {
 165:PortCANDebug.c ****             latestMessageHead = 0;
 166:PortCANDebug.c ****         }
 167:PortCANDebug.c ****     }
 168:PortCANDebug.c **** }
 169:PortCANDebug.c **** 
 170:PortCANDebug.c **** 
 171:PortCANDebug.c **** 
 172:PortCANDebug.c **** CY_ISR(CAN_FLAG_ISR)
 173:PortCANDebug.c **** {
 421              		.loc 1 173 0
 422              		.cfi_startproc
 423              		@ args = 0, pretend = 0, frame = 0
 424              		@ frame_needed = 0, uses_anonymous_args = 0
 425 0000 70B5     		push	{r4, r5, r6, lr}
 426              		.cfi_def_cfa_offset 16
 427              		.cfi_offset 4, -16
 428              		.cfi_offset 5, -12
 429              		.cfi_offset 6, -8
 430              		.cfi_offset 14, -4
 174:PortCANDebug.c ****     Print("Interupt Triggered!\r\n");
 431              		.loc 1 174 0
 432 0002 4648     		ldr	r0, .L34
 433 0004 FFF7FEFF 		bl	DEBUG_UartPutString
 434              	.LVL15:
 175:PortCANDebug.c ****     //*(reg32*)0x402F0000 = CAN_RX_MESSAGE_MASK & CAN_SST_FAILURE_MASK & CAN_CRC_ERROR_MASK; //Clea
 176:PortCANDebug.c ****     CAN_INT_SR_REG = CAN_RX_MESSAGE_MASK;
 435              		.loc 1 176 0
 436 0008 8022     		movs	r2, #128
 437 000a 5201     		lsls	r2, r2, #5
 438 000c 444B     		ldr	r3, .L34+4
 439 000e 1A60     		str	r2, [r3]
 177:PortCANDebug.c ****     uint32_t statusReg = (uint32_t) CAN_BUF_SR_REG; //Hardcoded for speed, translation from reg
 440              		.loc 1 177 0
 441 0010 444B     		ldr	r3, .L34+8
 442 0012 1B68     		ldr	r3, [r3]
 443              	.LVL16:
 178:PortCANDebug.c ****     uint8_t mailbox;
 179:PortCANDebug.c ****     
 180:PortCANDebug.c ****     if(statusReg & 0b1) { // mailbox0 is full (individual)
 444              		.loc 1 180 0
 445 0014 DA07     		lsls	r2, r3, #31
ARM GAS  C:\Users\DAVISS~1\AppData\Local\Temp\cc47UyYF.s 			page 12


 446 0016 06D4     		bmi	.L30
 181:PortCANDebug.c ****         mailbox = CAN_RX_MAILBOX_0;
 182:PortCANDebug.c ****     }
 183:PortCANDebug.c ****     else if(statusReg & 0b10) { // mailbox1 is full (broadcast)
 447              		.loc 1 183 0
 448 0018 9A07     		lsls	r2, r3, #30
 449 001a 06D4     		bmi	.L31
 184:PortCANDebug.c ****         mailbox = CAN_RX_MAILBOX_1;
 185:PortCANDebug.c ****     }    
 186:PortCANDebug.c ****     else if(statusReg & 0b100) { // mailbox2 is full (group broadcast)
 450              		.loc 1 186 0
 451 001c 5A07     		lsls	r2, r3, #29
 452 001e 06D4     		bmi	.L32
 187:PortCANDebug.c ****         mailbox = CAN_RX_MAILBOX_2;
 188:PortCANDebug.c ****     } 
 189:PortCANDebug.c ****     else if(statusReg & 0b1000) { // mailbox3 is full currently recieves anything enable in top des
 453              		.loc 1 189 0
 454 0020 1B07     		lsls	r3, r3, #28
 455 0022 06D4     		bmi	.L33
 456              	.LVL17:
 457 0024 06E0     		b	.L27
 458              	.LVL18:
 459              	.L30:
 181:PortCANDebug.c ****     }
 460              		.loc 1 181 0
 461 0026 0024     		movs	r4, #0
 462 0028 04E0     		b	.L27
 463              	.L31:
 184:PortCANDebug.c ****         mailbox = CAN_RX_MAILBOX_1;
 464              		.loc 1 184 0
 465 002a 0124     		movs	r4, #1
 466 002c 02E0     		b	.L27
 467              	.L32:
 187:PortCANDebug.c ****         mailbox = CAN_RX_MAILBOX_2;
 468              		.loc 1 187 0
 469 002e 0224     		movs	r4, #2
 470 0030 00E0     		b	.L27
 471              	.LVL19:
 472              	.L33:
 190:PortCANDebug.c ****         mailbox = CAN_RX_MAILBOX_3;
 473              		.loc 1 190 0
 474 0032 0324     		movs	r4, #3
 475              	.L27:
 476              	.LVL20:
 191:PortCANDebug.c ****     }
 192:PortCANDebug.c ****     
 193:PortCANDebug.c ****     latestMessage[latestMessageTail].id = CAN_GET_RX_ID(mailbox);
 477              		.loc 1 193 0
 478 0034 3C4B     		ldr	r3, .L34+12
 479 0036 9A78     		ldrb	r2, [r3, #2]
 480 0038 D2B2     		uxtb	r2, r2
 481 003a 6401     		lsls	r4, r4, #5
 482              	.LVL21:
 483 003c 3B4B     		ldr	r3, .L34+16
 484 003e 9C46     		mov	ip, r3
 485 0040 6444     		add	r4, r4, ip
 486 0042 2368     		ldr	r3, [r4]
ARM GAS  C:\Users\DAVISS~1\AppData\Local\Temp\cc47UyYF.s 			page 13


 487 0044 DB02     		lsls	r3, r3, #11
 488 0046 02D4     		bmi	.L28
 489              		.loc 1 193 0 is_stmt 0 discriminator 1
 490 0048 6168     		ldr	r1, [r4, #4]
 491 004a 490D     		lsrs	r1, r1, #21
 492 004c 02E0     		b	.L29
 493              	.L28:
 494              		.loc 1 193 0 discriminator 2
 495 004e 6168     		ldr	r1, [r4, #4]
 496 0050 C908     		lsrs	r1, r1, #3
 497 0052 89B2     		uxth	r1, r1
 498              	.L29:
 499              		.loc 1 193 0 discriminator 4
 500 0054 364B     		ldr	r3, .L34+20
 501 0056 5000     		lsls	r0, r2, #1
 502 0058 8218     		adds	r2, r0, r2
 503 005a 9000     		lsls	r0, r2, #2
 504 005c C152     		strh	r1, [r0, r3]
 194:PortCANDebug.c ****     latestMessage[latestMessageTail].dlc = CAN_GET_DLC(mailbox);
 505              		.loc 1 194 0 is_stmt 1 discriminator 4
 506 005e 324A     		ldr	r2, .L34+12
 507 0060 9178     		ldrb	r1, [r2, #2]
 508 0062 C9B2     		uxtb	r1, r1
 509 0064 2068     		ldr	r0, [r4]
 510 0066 000C     		lsrs	r0, r0, #16
 511 0068 0F25     		movs	r5, #15
 512 006a 2840     		ands	r0, r5
 513 006c 4D00     		lsls	r5, r1, #1
 514 006e 6918     		adds	r1, r5, r1
 515 0070 8D00     		lsls	r5, r1, #2
 516 0072 5D19     		adds	r5, r3, r5
 517 0074 A870     		strb	r0, [r5, #2]
 195:PortCANDebug.c ****     latestMessage[latestMessageTail].data[0] = CAN_RX_DATA_BYTE1(mailbox);
 518              		.loc 1 195 0 discriminator 4
 519 0076 9178     		ldrb	r1, [r2, #2]
 520 0078 C9B2     		uxtb	r1, r1
 521 007a A568     		ldr	r5, [r4, #8]
 522 007c 2D0E     		lsrs	r5, r5, #24
 523 007e 4800     		lsls	r0, r1, #1
 524 0080 4118     		adds	r1, r0, r1
 525 0082 8800     		lsls	r0, r1, #2
 526 0084 1818     		adds	r0, r3, r0
 527 0086 C570     		strb	r5, [r0, #3]
 196:PortCANDebug.c ****     latestMessage[latestMessageTail].data[1] = CAN_RX_DATA_BYTE2(mailbox);
 528              		.loc 1 196 0 discriminator 4
 529 0088 9178     		ldrb	r1, [r2, #2]
 530 008a C9B2     		uxtb	r1, r1
 531 008c A068     		ldr	r0, [r4, #8]
 532 008e 000C     		lsrs	r0, r0, #16
 533 0090 C0B2     		uxtb	r0, r0
 534 0092 4D00     		lsls	r5, r1, #1
 535 0094 6918     		adds	r1, r5, r1
 536 0096 8D00     		lsls	r5, r1, #2
 537 0098 5D19     		adds	r5, r3, r5
 538 009a 2871     		strb	r0, [r5, #4]
 197:PortCANDebug.c ****     latestMessage[latestMessageTail].data[2] = CAN_RX_DATA_BYTE3(mailbox);
 539              		.loc 1 197 0 discriminator 4
ARM GAS  C:\Users\DAVISS~1\AppData\Local\Temp\cc47UyYF.s 			page 14


 540 009c 9178     		ldrb	r1, [r2, #2]
 541 009e C9B2     		uxtb	r1, r1
 542 00a0 A068     		ldr	r0, [r4, #8]
 543 00a2 000A     		lsrs	r0, r0, #8
 544 00a4 C0B2     		uxtb	r0, r0
 545 00a6 4D00     		lsls	r5, r1, #1
 546 00a8 6918     		adds	r1, r5, r1
 547 00aa 8D00     		lsls	r5, r1, #2
 548 00ac 5D19     		adds	r5, r3, r5
 549 00ae 6871     		strb	r0, [r5, #5]
 198:PortCANDebug.c ****     latestMessage[latestMessageTail].data[3] = CAN_RX_DATA_BYTE4(mailbox);
 550              		.loc 1 198 0 discriminator 4
 551 00b0 9178     		ldrb	r1, [r2, #2]
 552 00b2 C9B2     		uxtb	r1, r1
 553 00b4 A568     		ldr	r5, [r4, #8]
 554 00b6 EDB2     		uxtb	r5, r5
 555 00b8 4800     		lsls	r0, r1, #1
 556 00ba 4118     		adds	r1, r0, r1
 557 00bc 8800     		lsls	r0, r1, #2
 558 00be 1818     		adds	r0, r3, r0
 559 00c0 8571     		strb	r5, [r0, #6]
 199:PortCANDebug.c ****     latestMessage[latestMessageTail].data[4] = CAN_RX_DATA_BYTE5(mailbox);
 560              		.loc 1 199 0 discriminator 4
 561 00c2 9178     		ldrb	r1, [r2, #2]
 562 00c4 C9B2     		uxtb	r1, r1
 563 00c6 E568     		ldr	r5, [r4, #12]
 564 00c8 2D0E     		lsrs	r5, r5, #24
 565 00ca 4800     		lsls	r0, r1, #1
 566 00cc 4118     		adds	r1, r0, r1
 567 00ce 8800     		lsls	r0, r1, #2
 568 00d0 1818     		adds	r0, r3, r0
 569 00d2 C571     		strb	r5, [r0, #7]
 200:PortCANDebug.c ****     latestMessage[latestMessageTail].data[5] = CAN_RX_DATA_BYTE6(mailbox);
 570              		.loc 1 200 0 discriminator 4
 571 00d4 9178     		ldrb	r1, [r2, #2]
 572 00d6 C9B2     		uxtb	r1, r1
 573 00d8 E068     		ldr	r0, [r4, #12]
 574 00da 000C     		lsrs	r0, r0, #16
 575 00dc C0B2     		uxtb	r0, r0
 576 00de 4D00     		lsls	r5, r1, #1
 577 00e0 6918     		adds	r1, r5, r1
 578 00e2 8D00     		lsls	r5, r1, #2
 579 00e4 5D19     		adds	r5, r3, r5
 580 00e6 2872     		strb	r0, [r5, #8]
 201:PortCANDebug.c ****     latestMessage[latestMessageTail].data[6] = CAN_RX_DATA_BYTE7(mailbox);
 581              		.loc 1 201 0 discriminator 4
 582 00e8 9178     		ldrb	r1, [r2, #2]
 583 00ea C9B2     		uxtb	r1, r1
 584 00ec E068     		ldr	r0, [r4, #12]
 585 00ee 000A     		lsrs	r0, r0, #8
 586 00f0 C0B2     		uxtb	r0, r0
 587 00f2 4D00     		lsls	r5, r1, #1
 588 00f4 6918     		adds	r1, r5, r1
 589 00f6 8D00     		lsls	r5, r1, #2
 590 00f8 5D19     		adds	r5, r3, r5
 591 00fa 6872     		strb	r0, [r5, #9]
 202:PortCANDebug.c ****     latestMessage[latestMessageTail].data[7] = CAN_RX_DATA_BYTE8(mailbox);
ARM GAS  C:\Users\DAVISS~1\AppData\Local\Temp\cc47UyYF.s 			page 15


 592              		.loc 1 202 0 discriminator 4
 593 00fc 9278     		ldrb	r2, [r2, #2]
 594 00fe D2B2     		uxtb	r2, r2
 595 0100 E068     		ldr	r0, [r4, #12]
 596 0102 C0B2     		uxtb	r0, r0
 597 0104 5100     		lsls	r1, r2, #1
 598 0106 8A18     		adds	r2, r1, r2
 599 0108 9100     		lsls	r1, r2, #2
 600 010a 5B18     		adds	r3, r3, r1
 601 010c 9872     		strb	r0, [r3, #10]
 203:PortCANDebug.c ****     countAddFIFO();
 602              		.loc 1 203 0 discriminator 4
 603 010e FFF7FEFF 		bl	countAddFIFO
 604              	.LVL22:
 204:PortCANDebug.c **** 
 205:PortCANDebug.c ****     //CAN_ReceiveMsg(messagePresentFlag);
 206:PortCANDebug.c ****     CAN_RX_ACK_MESSAGE(mailbox);
 605              		.loc 1 206 0 discriminator 4
 606 0112 2268     		ldr	r2, [r4]
 607 0114 0123     		movs	r3, #1
 608 0116 1343     		orrs	r3, r2
 609 0118 2360     		str	r3, [r4]
 207:PortCANDebug.c **** }
 610              		.loc 1 207 0 discriminator 4
 611              		@ sp needed
 612 011a 70BD     		pop	{r4, r5, r6, pc}
 613              	.L35:
 614              		.align	2
 615              	.L34:
 616 011c 00000000 		.word	.LC8
 617 0120 00002F40 		.word	1076822016
 618 0124 08002F40 		.word	1076822024
 619 0128 00000000 		.word	.LANCHOR0
 620 012c A0002F40 		.word	1076822176
 621 0130 00000000 		.word	latestMessage
 622              		.cfi_endproc
 623              	.LFE43:
 624              		.size	CAN_FLAG_ISR, .-CAN_FLAG_ISR
 625              		.section	.text.countRemoveFIFO,"ax",%progbits
 626              		.align	2
 627              		.global	countRemoveFIFO
 628              		.code	16
 629              		.thumb_func
 630              		.type	countRemoveFIFO, %function
 631              	countRemoveFIFO:
 632              	.LFB42:
 161:PortCANDebug.c ****     if(FIFOSize() > 0) {
 633              		.loc 1 161 0
 634              		.cfi_startproc
 635              		@ args = 0, pretend = 0, frame = 0
 636              		@ frame_needed = 0, uses_anonymous_args = 0
 637 0000 10B5     		push	{r4, lr}
 638              		.cfi_def_cfa_offset 8
 639              		.cfi_offset 4, -8
 640              		.cfi_offset 14, -4
 162:PortCANDebug.c ****         latestMessageHead++;
 641              		.loc 1 162 0
ARM GAS  C:\Users\DAVISS~1\AppData\Local\Temp\cc47UyYF.s 			page 16


 642 0002 FFF7FEFF 		bl	FIFOSize
 643              	.LVL23:
 644 0006 0028     		cmp	r0, #0
 645 0008 0BD0     		beq	.L36
 163:PortCANDebug.c ****         if(latestMessageHead >= FIFO_SIZE) {
 646              		.loc 1 163 0
 647 000a 064A     		ldr	r2, .L38
 648 000c 5378     		ldrb	r3, [r2, #1]
 649 000e 0133     		adds	r3, r3, #1
 650 0010 DBB2     		uxtb	r3, r3
 651 0012 5370     		strb	r3, [r2, #1]
 164:PortCANDebug.c ****             latestMessageHead = 0;
 652              		.loc 1 164 0
 653 0014 5378     		ldrb	r3, [r2, #1]
 654 0016 DBB2     		uxtb	r3, r3
 655 0018 0F2B     		cmp	r3, #15
 656 001a 02D9     		bls	.L36
 165:PortCANDebug.c ****         }
 657              		.loc 1 165 0
 658 001c 0022     		movs	r2, #0
 659 001e 014B     		ldr	r3, .L38
 660 0020 5A70     		strb	r2, [r3, #1]
 661              	.L36:
 168:PortCANDebug.c **** 
 662              		.loc 1 168 0
 663              		@ sp needed
 664 0022 10BD     		pop	{r4, pc}
 665              	.L39:
 666              		.align	2
 667              	.L38:
 668 0024 00000000 		.word	.LANCHOR0
 669              		.cfi_endproc
 670              	.LFE42:
 671              		.size	countRemoveFIFO, .-countRemoveFIFO
 672              		.section	.text.PollAndReceiveCANPacket,"ax",%progbits
 673              		.align	2
 674              		.global	PollAndReceiveCANPacket
 675              		.code	16
 676              		.thumb_func
 677              		.type	PollAndReceiveCANPacket, %function
 678              	PollAndReceiveCANPacket:
 679              	.LFB36:
 103:PortCANDebug.c ****     if(!receivedPacket) {
 680              		.loc 1 103 0
 681              		.cfi_startproc
 682              		@ args = 0, pretend = 0, frame = 8
 683              		@ frame_needed = 0, uses_anonymous_args = 0
 684              	.LVL24:
 685 0000 10B5     		push	{r4, lr}
 686              		.cfi_def_cfa_offset 8
 687              		.cfi_offset 4, -8
 688              		.cfi_offset 14, -4
 689 0002 82B0     		sub	sp, sp, #8
 690              		.cfi_def_cfa_offset 16
 691 0004 041E     		subs	r4, r0, #0
 104:PortCANDebug.c ****         return ERROR_NULL_POINTER;
 692              		.loc 1 104 0
ARM GAS  C:\Users\DAVISS~1\AppData\Local\Temp\cc47UyYF.s 			page 17


 693 0006 17D0     		beq	.L42
 107:PortCANDebug.c ****     if(size)
 694              		.loc 1 107 0
 695 0008 FFF7FEFF 		bl	FIFOSize
 696              	.LVL25:
 697 000c 6B46     		mov	r3, sp
 698 000e D871     		strb	r0, [r3, #7]
 699 0010 0733     		adds	r3, r3, #7
 108:PortCANDebug.c ****     {
 700              		.loc 1 108 0
 701 0012 1B78     		ldrb	r3, [r3]
 702 0014 002B     		cmp	r3, #0
 703 0016 11D0     		beq	.L43
 110:PortCANDebug.c ****         countRemoveFIFO();
 704              		.loc 1 110 0
 705 0018 0A4B     		ldr	r3, .L44
 706 001a 5B78     		ldrb	r3, [r3, #1]
 707 001c DBB2     		uxtb	r3, r3
 708 001e 5A00     		lsls	r2, r3, #1
 709 0020 D318     		adds	r3, r2, r3
 710 0022 9900     		lsls	r1, r3, #2
 711 0024 084B     		ldr	r3, .L44+4
 712 0026 5918     		adds	r1, r3, r1
 713 0028 0C22     		movs	r2, #12
 714 002a 2000     		movs	r0, r4
 715 002c FFF7FEFF 		bl	memcpy
 716              	.LVL26:
 111:PortCANDebug.c ****         return ERROR_NONE;
 717              		.loc 1 111 0
 718 0030 FFF7FEFF 		bl	countRemoveFIFO
 719              	.LVL27:
 112:PortCANDebug.c ****     }
 720              		.loc 1 112 0
 721 0034 0020     		movs	r0, #0
 722 0036 02E0     		b	.L41
 723              	.LVL28:
 724              	.L42:
 105:PortCANDebug.c ****     }
 725              		.loc 1 105 0
 726 0038 0220     		movs	r0, #2
 727              	.LVL29:
 728 003a 00E0     		b	.L41
 729              	.L43:
 114:PortCANDebug.c **** }
 730              		.loc 1 114 0
 731 003c 0220     		movs	r0, #2
 732              	.L41:
 115:PortCANDebug.c **** 
 733              		.loc 1 115 0
 734 003e 02B0     		add	sp, sp, #8
 735              		@ sp needed
 736              	.LVL30:
 737 0040 10BD     		pop	{r4, pc}
 738              	.L45:
 739 0042 C046     		.align	2
 740              	.L44:
 741 0044 00000000 		.word	.LANCHOR0
ARM GAS  C:\Users\DAVISS~1\AppData\Local\Temp\cc47UyYF.s 			page 18


 742 0048 00000000 		.word	latestMessage
 743              		.cfi_endproc
 744              	.LFE36:
 745              		.size	PollAndReceiveCANPacket, .-PollAndReceiveCANPacket
 746              		.comm	rxMailbox,16,4
 747              		.comm	deviceGroup,4,4
 748              		.comm	deviceAddress,4,4
 749              		.global	latestMessageFull
 750              		.global	latestMessageTail
 751              		.global	latestMessageHead
 752              		.comm	latestMessage,192,4
 753              		.global	messageReadFlag
 754              		.global	messagePresentFlag
 755              		.data
 756              		.type	messagePresentFlag, %object
 757              		.size	messagePresentFlag, 1
 758              	messagePresentFlag:
 759 0000 FF       		.byte	-1
 760              		.section	.rodata.str1.4,"aMS",%progbits,1
 761              		.align	2
 762              	.LC8:
 763 0000 496E7465 		.ascii	"Interupt Triggered!\015\012\000"
 763      72757074 
 763      20547269 
 763      67676572 
 763      6564210D 
 764              		.bss
 765              		.set	.LANCHOR0,. + 0
 766              		.type	latestMessageFull, %object
 767              		.size	latestMessageFull, 1
 768              	latestMessageFull:
 769 0000 00       		.space	1
 770              		.type	latestMessageHead, %object
 771              		.size	latestMessageHead, 1
 772              	latestMessageHead:
 773 0001 00       		.space	1
 774              		.type	latestMessageTail, %object
 775              		.size	latestMessageTail, 1
 776              	latestMessageTail:
 777 0002 00       		.space	1
 778              		.type	messageReadFlag, %object
 779              		.size	messageReadFlag, 1
 780              	messageReadFlag:
 781 0003 00       		.space	1
 782              		.text
 783              	.Letext0:
 784              		.file 2 "x:\\programs\\cypress\\psoc creator\\4.4\\psoc creator\\import\\gnu\\arm\\5.4.1\\arm-none
 785              		.file 3 "x:\\programs\\cypress\\psoc creator\\4.4\\psoc creator\\import\\gnu\\arm\\5.4.1\\arm-none
 786              		.file 4 ".\\HindsightCAN/CANPacket.h"
 787              		.file 5 "Generated_Source\\PSoC4/cytypes.h"
 788              		.file 6 "Generated_Source\\PSoC4/CAN.h"
 789              		.file 7 "Generated_Source\\PSoC4/CyLib.h"
 790              		.file 8 "Generated_Source\\PSoC4/DEBUG_SPI_UART.h"