ARM GAS  C:\Users\Min\AppData\Local\Temp\ccpI1cwC.s 			page 1


   1              		.syntax unified
   2              		.cpu cortex-m0
   3              		.fpu softvfp
   4              		.eabi_attribute 20, 1
   5              		.eabi_attribute 21, 1
   6              		.eabi_attribute 23, 3
   7              		.eabi_attribute 24, 1
   8              		.eabi_attribute 25, 1
   9              		.eabi_attribute 26, 1
  10              		.eabi_attribute 30, 1
  11              		.eabi_attribute 34, 0
  12              		.eabi_attribute 18, 4
  13              		.thumb
  14              		.syntax unified
  15              		.file	"CANMotorUnit.c"
  16              		.text
  17              	.Ltext0:
  18              		.cfi_sections	.debug_frame
  19              		.section	.text.AssembleModeSetPacket,"ax",%progbits
  20              		.align	2
  21              		.global	AssembleModeSetPacket
  22              		.code	16
  23              		.thumb_func
  24              		.type	AssembleModeSetPacket, %function
  25              	AssembleModeSetPacket:
  26              	.LFB0:
  27              		.file 1 "HindsightCAN\\CANMotorUnit.c"
   1:HindsightCAN/CANMotorUnit.c **** /* File:         CANMotorUnit.c
   2:HindsightCAN/CANMotorUnit.c ****  * Authors:      Jaden Bottemiller, Benton Kwong, Dylan Tomberlin, Austin Chan.
   3:HindsightCAN/CANMotorUnit.c ****  * Organization: Husky Robotics Team
   4:HindsightCAN/CANMotorUnit.c ****  * 
   5:HindsightCAN/CANMotorUnit.c ****  * This file includes function definitions for CAN Packet manipulation
   6:HindsightCAN/CANMotorUnit.c ****  * using the Hindsight CAN Communication standard. Specific files
   7:HindsightCAN/CANMotorUnit.c ****  * for the motor unit boards.
   8:HindsightCAN/CANMotorUnit.c ****  * Documentation: https://huskyroboticsteam.slite.com/app/channels/iU0BryG7M9/collections/aXvWTcIR6
   9:HindsightCAN/CANMotorUnit.c ****  */
  10:HindsightCAN/CANMotorUnit.c **** 
  11:HindsightCAN/CANMotorUnit.c **** #include "CANPacket.h"
  12:HindsightCAN/CANMotorUnit.c **** #include "CANMotorUnit.h"
  13:HindsightCAN/CANMotorUnit.c **** #include "Port.h"
  14:HindsightCAN/CANMotorUnit.c **** 
  15:HindsightCAN/CANMotorUnit.c **** void AssembleModeSetPacket(CANPacket *packetToAssemble,
  16:HindsightCAN/CANMotorUnit.c ****     uint8_t targetDeviceGroup,
  17:HindsightCAN/CANMotorUnit.c ****     uint8_t targetDeviceSerial,
  18:HindsightCAN/CANMotorUnit.c ****     uint8_t mode)
  19:HindsightCAN/CANMotorUnit.c **** {
  28              		.loc 1 19 0
  29              		.cfi_startproc
  30              		@ args = 0, pretend = 0, frame = 0
  31              		@ frame_needed = 0, uses_anonymous_args = 0
  32              	.LVL0:
  33 0000 70B5     		push	{r4, r5, r6, lr}
  34              		.cfi_def_cfa_offset 16
  35              		.cfi_offset 4, -16
  36              		.cfi_offset 5, -12
  37              		.cfi_offset 6, -8
  38              		.cfi_offset 14, -4
ARM GAS  C:\Users\Min\AppData\Local\Temp\ccpI1cwC.s 			page 2


  39 0002 0400     		movs	r4, r0
  40 0004 1D00     		movs	r5, r3
  20:HindsightCAN/CANMotorUnit.c ****     packetToAssemble->id = ConstructCANID(PRIO_MOTOR_UNIT_MODE_SEL, targetDeviceGroup, targetDevice
  41              		.loc 1 20 0
  42 0006 0120     		movs	r0, #1
  43              	.LVL1:
  44 0008 FFF7FEFF 		bl	ConstructCANID
  45              	.LVL2:
  46 000c 2080     		strh	r0, [r4]
  21:HindsightCAN/CANMotorUnit.c ****     packetToAssemble->dlc = DLC_MOTOR_UNIT_MODE_SEL;
  47              		.loc 1 21 0
  48 000e 0223     		movs	r3, #2
  49 0010 A370     		strb	r3, [r4, #2]
  22:HindsightCAN/CANMotorUnit.c ****     int nextByte = WritePacketIDOnly(packetToAssemble->data, ID_MOTOR_UNIT_MODE_SEL);
  50              		.loc 1 22 0
  51 0012 E01C     		adds	r0, r4, #3
  52 0014 0021     		movs	r1, #0
  53 0016 FFF7FEFF 		bl	WritePacketIDOnly
  54              	.LVL3:
  23:HindsightCAN/CANMotorUnit.c ****     packetToAssemble->data[nextByte] = mode;
  55              		.loc 1 23 0
  56 001a 2418     		adds	r4, r4, r0
  57              	.LVL4:
  58 001c E570     		strb	r5, [r4, #3]
  24:HindsightCAN/CANMotorUnit.c **** }
  59              		.loc 1 24 0
  60              		@ sp needed
  61 001e 70BD     		pop	{r4, r5, r6, pc}
  62              		.cfi_endproc
  63              	.LFE0:
  64              		.size	AssembleModeSetPacket, .-AssembleModeSetPacket
  65              		.section	.text.GetModeFromPacket,"ax",%progbits
  66              		.align	2
  67              		.global	GetModeFromPacket
  68              		.code	16
  69              		.thumb_func
  70              		.type	GetModeFromPacket, %function
  71              	GetModeFromPacket:
  72              	.LFB1:
  25:HindsightCAN/CANMotorUnit.c **** 
  26:HindsightCAN/CANMotorUnit.c **** uint8_t GetModeFromPacket(CANPacket *packet)
  27:HindsightCAN/CANMotorUnit.c **** {
  73              		.loc 1 27 0
  74              		.cfi_startproc
  75              		@ args = 0, pretend = 0, frame = 0
  76              		@ frame_needed = 0, uses_anonymous_args = 0
  77              		@ link register save eliminated.
  78              	.LVL5:
  28:HindsightCAN/CANMotorUnit.c ****     return packet->data[1];
  79              		.loc 1 28 0
  80 0000 0079     		ldrb	r0, [r0, #4]
  81              	.LVL6:
  29:HindsightCAN/CANMotorUnit.c **** }
  82              		.loc 1 29 0
  83              		@ sp needed
  84 0002 7047     		bx	lr
  85              		.cfi_endproc
ARM GAS  C:\Users\Min\AppData\Local\Temp\ccpI1cwC.s 			page 3


  86              	.LFE1:
  87              		.size	GetModeFromPacket, .-GetModeFromPacket
  88              		.section	.text.AssemblePWMDirSetPacket,"ax",%progbits
  89              		.align	2
  90              		.global	AssemblePWMDirSetPacket
  91              		.code	16
  92              		.thumb_func
  93              		.type	AssemblePWMDirSetPacket, %function
  94              	AssemblePWMDirSetPacket:
  95              	.LFB2:
  30:HindsightCAN/CANMotorUnit.c **** 
  31:HindsightCAN/CANMotorUnit.c **** 
  32:HindsightCAN/CANMotorUnit.c **** void AssemblePWMDirSetPacket(CANPacket *packetToAssemble, 
  33:HindsightCAN/CANMotorUnit.c ****     uint8_t targetDeviceGroup,
  34:HindsightCAN/CANMotorUnit.c ****     uint8_t targetDeviceSerial,
  35:HindsightCAN/CANMotorUnit.c ****     int16_t PWMSet)
  36:HindsightCAN/CANMotorUnit.c **** {
  96              		.loc 1 36 0
  97              		.cfi_startproc
  98              		@ args = 0, pretend = 0, frame = 0
  99              		@ frame_needed = 0, uses_anonymous_args = 0
 100              	.LVL7:
 101 0000 70B5     		push	{r4, r5, r6, lr}
 102              		.cfi_def_cfa_offset 16
 103              		.cfi_offset 4, -16
 104              		.cfi_offset 5, -12
 105              		.cfi_offset 6, -8
 106              		.cfi_offset 14, -4
 107 0002 0400     		movs	r4, r0
 108 0004 1D00     		movs	r5, r3
  37:HindsightCAN/CANMotorUnit.c ****     packetToAssemble->id = ConstructCANID(PRIO_MOTOR_UNIT_PWM_DIR_SET, targetDeviceGroup, targetDev
 109              		.loc 1 37 0
 110 0006 0120     		movs	r0, #1
 111              	.LVL8:
 112 0008 FFF7FEFF 		bl	ConstructCANID
 113              	.LVL9:
 114 000c 2080     		strh	r0, [r4]
  38:HindsightCAN/CANMotorUnit.c ****     packetToAssemble->dlc = DLC_MOTOR_UNIT_PWM_DIR_SET;
 115              		.loc 1 38 0
 116 000e 0323     		movs	r3, #3
 117 0010 A370     		strb	r3, [r4, #2]
  39:HindsightCAN/CANMotorUnit.c ****     int nextByte = WritePacketIDOnly(packetToAssemble->data, ID_MOTOR_UNIT_PWM_DIR_SET);
 118              		.loc 1 39 0
 119 0012 0334     		adds	r4, r4, #3
 120              	.LVL10:
 121 0014 0321     		movs	r1, #3
 122 0016 2000     		movs	r0, r4
 123 0018 FFF7FEFF 		bl	WritePacketIDOnly
 124              	.LVL11:
 125 001c 0200     		movs	r2, r0
 126              	.LVL12:
  40:HindsightCAN/CANMotorUnit.c ****     PackShortIntoDataMSBFirst(packetToAssemble->data, PWMSet, nextByte);
 127              		.loc 1 40 0
 128 001e 2900     		movs	r1, r5
 129 0020 2000     		movs	r0, r4
 130              	.LVL13:
 131 0022 FFF7FEFF 		bl	PackShortIntoDataMSBFirst
ARM GAS  C:\Users\Min\AppData\Local\Temp\ccpI1cwC.s 			page 4


 132              	.LVL14:
  41:HindsightCAN/CANMotorUnit.c **** }
 133              		.loc 1 41 0
 134              		@ sp needed
 135              	.LVL15:
 136 0026 70BD     		pop	{r4, r5, r6, pc}
 137              		.cfi_endproc
 138              	.LFE2:
 139              		.size	AssemblePWMDirSetPacket, .-AssemblePWMDirSetPacket
 140              		.section	.text.GetPWMFromPacket,"ax",%progbits
 141              		.align	2
 142              		.global	GetPWMFromPacket
 143              		.code	16
 144              		.thumb_func
 145              		.type	GetPWMFromPacket, %function
 146              	GetPWMFromPacket:
 147              	.LFB3:
  42:HindsightCAN/CANMotorUnit.c **** 
  43:HindsightCAN/CANMotorUnit.c **** int16_t GetPWMFromPacket(CANPacket *packet)
  44:HindsightCAN/CANMotorUnit.c **** {
 148              		.loc 1 44 0
 149              		.cfi_startproc
 150              		@ args = 0, pretend = 0, frame = 0
 151              		@ frame_needed = 0, uses_anonymous_args = 0
 152              	.LVL16:
 153 0000 10B5     		push	{r4, lr}
 154              		.cfi_def_cfa_offset 8
 155              		.cfi_offset 4, -8
 156              		.cfi_offset 14, -4
  45:HindsightCAN/CANMotorUnit.c ****     return DecodeBytesToIntMSBFirst(packet->data, 1, 2);
 157              		.loc 1 45 0
 158 0002 0330     		adds	r0, r0, #3
 159              	.LVL17:
 160 0004 0222     		movs	r2, #2
 161 0006 0121     		movs	r1, #1
 162 0008 FFF7FEFF 		bl	DecodeBytesToIntMSBFirst
 163              	.LVL18:
 164 000c 00B2     		sxth	r0, r0
  46:HindsightCAN/CANMotorUnit.c **** }
 165              		.loc 1 46 0
 166              		@ sp needed
 167 000e 10BD     		pop	{r4, pc}
 168              		.cfi_endproc
 169              	.LFE3:
 170              		.size	GetPWMFromPacket, .-GetPWMFromPacket
 171              		.section	.text.GetDirectionFromPacket,"ax",%progbits
 172              		.align	2
 173              		.global	GetDirectionFromPacket
 174              		.code	16
 175              		.thumb_func
 176              		.type	GetDirectionFromPacket, %function
 177              	GetDirectionFromPacket:
 178              	.LFB4:
  47:HindsightCAN/CANMotorUnit.c **** 
  48:HindsightCAN/CANMotorUnit.c **** //Returns 2's compliment MSB (0 for stopped or forward, 1 for reverse)
  49:HindsightCAN/CANMotorUnit.c **** int32_t GetDirectionFromPacket(CANPacket *packet)
  50:HindsightCAN/CANMotorUnit.c **** {
ARM GAS  C:\Users\Min\AppData\Local\Temp\ccpI1cwC.s 			page 5


 179              		.loc 1 50 0
 180              		.cfi_startproc
 181              		@ args = 0, pretend = 0, frame = 0
 182              		@ frame_needed = 0, uses_anonymous_args = 0
 183              		@ link register save eliminated.
 184              	.LVL19:
  51:HindsightCAN/CANMotorUnit.c ****     return ((packet->data[1]) >> 7) & 0x1;
 185              		.loc 1 51 0
 186 0000 0079     		ldrb	r0, [r0, #4]
 187              	.LVL20:
 188 0002 C009     		lsrs	r0, r0, #7
  52:HindsightCAN/CANMotorUnit.c **** }
 189              		.loc 1 52 0
 190              		@ sp needed
 191 0004 7047     		bx	lr
 192              		.cfi_endproc
 193              	.LFE4:
 194              		.size	GetDirectionFromPacket, .-GetDirectionFromPacket
 195 0006 C046     		.section	.text.AssemblePIDTargetSetPacket,"ax",%progbits
 196              		.align	2
 197              		.global	AssemblePIDTargetSetPacket
 198              		.code	16
 199              		.thumb_func
 200              		.type	AssemblePIDTargetSetPacket, %function
 201              	AssemblePIDTargetSetPacket:
 202              	.LFB5:
  53:HindsightCAN/CANMotorUnit.c **** 
  54:HindsightCAN/CANMotorUnit.c **** void AssemblePIDTargetSetPacket(CANPacket *packetToAssemble,
  55:HindsightCAN/CANMotorUnit.c ****     uint8_t targetDeviceGroup,
  56:HindsightCAN/CANMotorUnit.c ****     uint8_t targetDeviceSerial,
  57:HindsightCAN/CANMotorUnit.c ****     int32_t target)
  58:HindsightCAN/CANMotorUnit.c **** {
 203              		.loc 1 58 0
 204              		.cfi_startproc
 205              		@ args = 0, pretend = 0, frame = 0
 206              		@ frame_needed = 0, uses_anonymous_args = 0
 207              	.LVL21:
 208 0000 70B5     		push	{r4, r5, r6, lr}
 209              		.cfi_def_cfa_offset 16
 210              		.cfi_offset 4, -16
 211              		.cfi_offset 5, -12
 212              		.cfi_offset 6, -8
 213              		.cfi_offset 14, -4
 214 0002 0400     		movs	r4, r0
 215 0004 1D00     		movs	r5, r3
  59:HindsightCAN/CANMotorUnit.c ****     packetToAssemble->id = ConstructCANID(PACKET_PRIORITY_NORMAL, targetDeviceGroup, targetDeviceSe
 216              		.loc 1 59 0
 217 0006 0120     		movs	r0, #1
 218              	.LVL22:
 219 0008 FFF7FEFF 		bl	ConstructCANID
 220              	.LVL23:
 221 000c 2080     		strh	r0, [r4]
  60:HindsightCAN/CANMotorUnit.c ****     packetToAssemble->dlc = DLC_MOTOR_UNIT_PID_POS_TGT_SET;
 222              		.loc 1 60 0
 223 000e 0523     		movs	r3, #5
 224 0010 A370     		strb	r3, [r4, #2]
  61:HindsightCAN/CANMotorUnit.c ****     int nextByte = WritePacketIDOnly(packetToAssemble->data, ID_MOTOR_UNIT_PID_POS_TGT_SET);
ARM GAS  C:\Users\Min\AppData\Local\Temp\ccpI1cwC.s 			page 6


 225              		.loc 1 61 0
 226 0012 0334     		adds	r4, r4, #3
 227              	.LVL24:
 228 0014 0421     		movs	r1, #4
 229 0016 2000     		movs	r0, r4
 230 0018 FFF7FEFF 		bl	WritePacketIDOnly
 231              	.LVL25:
 232 001c 0200     		movs	r2, r0
 233              	.LVL26:
  62:HindsightCAN/CANMotorUnit.c ****     PackIntIntoDataMSBFirst(packetToAssemble->data, target, nextByte);
 234              		.loc 1 62 0
 235 001e 2900     		movs	r1, r5
 236 0020 2000     		movs	r0, r4
 237              	.LVL27:
 238 0022 FFF7FEFF 		bl	PackIntIntoDataMSBFirst
 239              	.LVL28:
  63:HindsightCAN/CANMotorUnit.c **** }
 240              		.loc 1 63 0
 241              		@ sp needed
 242              	.LVL29:
 243              	.LVL30:
 244 0026 70BD     		pop	{r4, r5, r6, pc}
 245              		.cfi_endproc
 246              	.LFE5:
 247              		.size	AssemblePIDTargetSetPacket, .-AssemblePIDTargetSetPacket
 248              		.section	.text.GetPIDTargetFromPacket,"ax",%progbits
 249              		.align	2
 250              		.global	GetPIDTargetFromPacket
 251              		.code	16
 252              		.thumb_func
 253              		.type	GetPIDTargetFromPacket, %function
 254              	GetPIDTargetFromPacket:
 255              	.LFB6:
  64:HindsightCAN/CANMotorUnit.c **** 
  65:HindsightCAN/CANMotorUnit.c **** int32_t GetPIDTargetFromPacket(CANPacket *packet)
  66:HindsightCAN/CANMotorUnit.c **** {
 256              		.loc 1 66 0
 257              		.cfi_startproc
 258              		@ args = 0, pretend = 0, frame = 0
 259              		@ frame_needed = 0, uses_anonymous_args = 0
 260              	.LVL31:
 261 0000 10B5     		push	{r4, lr}
 262              		.cfi_def_cfa_offset 8
 263              		.cfi_offset 4, -8
 264              		.cfi_offset 14, -4
  67:HindsightCAN/CANMotorUnit.c ****     return DecodeBytesToIntMSBFirst(packet->data, DLC_MOTOR_UNIT_PID_POS_TGT_SET - 4, DLC_MOTOR_UNI
 265              		.loc 1 67 0
 266 0002 0330     		adds	r0, r0, #3
 267              	.LVL32:
 268 0004 0522     		movs	r2, #5
 269 0006 0121     		movs	r1, #1
 270 0008 FFF7FEFF 		bl	DecodeBytesToIntMSBFirst
 271              	.LVL33:
  68:HindsightCAN/CANMotorUnit.c **** }
 272              		.loc 1 68 0
 273              		@ sp needed
 274 000c 10BD     		pop	{r4, pc}
ARM GAS  C:\Users\Min\AppData\Local\Temp\ccpI1cwC.s 			page 7


 275              		.cfi_endproc
 276              	.LFE6:
 277              		.size	GetPIDTargetFromPacket, .-GetPIDTargetFromPacket
 278 000e C046     		.section	.text.AssemblePSetPacket,"ax",%progbits
 279              		.align	2
 280              		.global	AssemblePSetPacket
 281              		.code	16
 282              		.thumb_func
 283              		.type	AssemblePSetPacket, %function
 284              	AssemblePSetPacket:
 285              	.LFB7:
  69:HindsightCAN/CANMotorUnit.c **** 
  70:HindsightCAN/CANMotorUnit.c **** void AssemblePSetPacket(CANPacket *packetToAssemble,
  71:HindsightCAN/CANMotorUnit.c ****     uint8_t targetDeviceGroup,
  72:HindsightCAN/CANMotorUnit.c ****     uint8_t targetDeviceSerial,
  73:HindsightCAN/CANMotorUnit.c ****     int32_t pCoef)
  74:HindsightCAN/CANMotorUnit.c **** {
 286              		.loc 1 74 0
 287              		.cfi_startproc
 288              		@ args = 0, pretend = 0, frame = 0
 289              		@ frame_needed = 0, uses_anonymous_args = 0
 290              	.LVL34:
 291 0000 70B5     		push	{r4, r5, r6, lr}
 292              		.cfi_def_cfa_offset 16
 293              		.cfi_offset 4, -16
 294              		.cfi_offset 5, -12
 295              		.cfi_offset 6, -8
 296              		.cfi_offset 14, -4
 297 0002 0400     		movs	r4, r0
 298 0004 1D00     		movs	r5, r3
  75:HindsightCAN/CANMotorUnit.c ****     packetToAssemble->id = ConstructCANID(PACKET_PRIORITY_NORMAL, targetDeviceGroup, targetDeviceSe
 299              		.loc 1 75 0
 300 0006 0120     		movs	r0, #1
 301              	.LVL35:
 302 0008 FFF7FEFF 		bl	ConstructCANID
 303              	.LVL36:
 304 000c 2080     		strh	r0, [r4]
  76:HindsightCAN/CANMotorUnit.c ****     packetToAssemble->dlc = DLC_MOTOR_UNIT_PID_P_SET;
 305              		.loc 1 76 0
 306 000e 0523     		movs	r3, #5
 307 0010 A370     		strb	r3, [r4, #2]
  77:HindsightCAN/CANMotorUnit.c ****     int nextByte = WritePacketIDOnly(packetToAssemble->data, ID_MOTOR_UNIT_PID_P_SET);
 308              		.loc 1 77 0
 309 0012 0334     		adds	r4, r4, #3
 310              	.LVL37:
 311 0014 0521     		movs	r1, #5
 312 0016 2000     		movs	r0, r4
 313 0018 FFF7FEFF 		bl	WritePacketIDOnly
 314              	.LVL38:
 315 001c 0200     		movs	r2, r0
 316              	.LVL39:
  78:HindsightCAN/CANMotorUnit.c ****     PackIntIntoDataMSBFirst(packetToAssemble->data, pCoef, nextByte);
 317              		.loc 1 78 0
 318 001e 2900     		movs	r1, r5
 319 0020 2000     		movs	r0, r4
 320              	.LVL40:
 321 0022 FFF7FEFF 		bl	PackIntIntoDataMSBFirst
ARM GAS  C:\Users\Min\AppData\Local\Temp\ccpI1cwC.s 			page 8


 322              	.LVL41:
  79:HindsightCAN/CANMotorUnit.c **** }
 323              		.loc 1 79 0
 324              		@ sp needed
 325              	.LVL42:
 326              	.LVL43:
 327 0026 70BD     		pop	{r4, r5, r6, pc}
 328              		.cfi_endproc
 329              	.LFE7:
 330              		.size	AssemblePSetPacket, .-AssemblePSetPacket
 331              		.section	.text.GetPFromPacket,"ax",%progbits
 332              		.align	2
 333              		.global	GetPFromPacket
 334              		.code	16
 335              		.thumb_func
 336              		.type	GetPFromPacket, %function
 337              	GetPFromPacket:
 338              	.LFB8:
  80:HindsightCAN/CANMotorUnit.c **** 
  81:HindsightCAN/CANMotorUnit.c **** int32_t GetPFromPacket(CANPacket *packet)
  82:HindsightCAN/CANMotorUnit.c **** {
 339              		.loc 1 82 0
 340              		.cfi_startproc
 341              		@ args = 0, pretend = 0, frame = 0
 342              		@ frame_needed = 0, uses_anonymous_args = 0
 343              	.LVL44:
 344 0000 10B5     		push	{r4, lr}
 345              		.cfi_def_cfa_offset 8
 346              		.cfi_offset 4, -8
 347              		.cfi_offset 14, -4
  83:HindsightCAN/CANMotorUnit.c ****     return DecodeBytesToIntMSBFirst(packet->data, DLC_MOTOR_UNIT_PID_P_SET - 4, DLC_MOTOR_UNIT_PID_
 348              		.loc 1 83 0
 349 0002 0330     		adds	r0, r0, #3
 350              	.LVL45:
 351 0004 0522     		movs	r2, #5
 352 0006 0121     		movs	r1, #1
 353 0008 FFF7FEFF 		bl	DecodeBytesToIntMSBFirst
 354              	.LVL46:
  84:HindsightCAN/CANMotorUnit.c **** }
 355              		.loc 1 84 0
 356              		@ sp needed
 357 000c 10BD     		pop	{r4, pc}
 358              		.cfi_endproc
 359              	.LFE8:
 360              		.size	GetPFromPacket, .-GetPFromPacket
 361 000e C046     		.section	.text.AssembleISetPacket,"ax",%progbits
 362              		.align	2
 363              		.global	AssembleISetPacket
 364              		.code	16
 365              		.thumb_func
 366              		.type	AssembleISetPacket, %function
 367              	AssembleISetPacket:
 368              	.LFB9:
  85:HindsightCAN/CANMotorUnit.c **** 
  86:HindsightCAN/CANMotorUnit.c **** void AssembleISetPacket(CANPacket *packetToAssemble,
  87:HindsightCAN/CANMotorUnit.c ****     uint8_t targetDeviceGroup,
  88:HindsightCAN/CANMotorUnit.c ****     uint8_t targetDeviceSerial,
ARM GAS  C:\Users\Min\AppData\Local\Temp\ccpI1cwC.s 			page 9


  89:HindsightCAN/CANMotorUnit.c ****     int32_t iCoef)
  90:HindsightCAN/CANMotorUnit.c **** {
 369              		.loc 1 90 0
 370              		.cfi_startproc
 371              		@ args = 0, pretend = 0, frame = 0
 372              		@ frame_needed = 0, uses_anonymous_args = 0
 373              	.LVL47:
 374 0000 70B5     		push	{r4, r5, r6, lr}
 375              		.cfi_def_cfa_offset 16
 376              		.cfi_offset 4, -16
 377              		.cfi_offset 5, -12
 378              		.cfi_offset 6, -8
 379              		.cfi_offset 14, -4
 380 0002 0400     		movs	r4, r0
 381 0004 1D00     		movs	r5, r3
  91:HindsightCAN/CANMotorUnit.c ****     packetToAssemble->id = ConstructCANID(PACKET_PRIORITY_NORMAL, targetDeviceGroup, targetDeviceSe
 382              		.loc 1 91 0
 383 0006 0120     		movs	r0, #1
 384              	.LVL48:
 385 0008 FFF7FEFF 		bl	ConstructCANID
 386              	.LVL49:
 387 000c 2080     		strh	r0, [r4]
  92:HindsightCAN/CANMotorUnit.c ****     packetToAssemble->dlc = DLC_MOTOR_UNIT_PID_I_SET;
 388              		.loc 1 92 0
 389 000e 0523     		movs	r3, #5
 390 0010 A370     		strb	r3, [r4, #2]
  93:HindsightCAN/CANMotorUnit.c ****     int nextByte = WritePacketIDOnly(packetToAssemble->data, ID_MOTOR_UNIT_PID_I_SET);
 391              		.loc 1 93 0
 392 0012 0334     		adds	r4, r4, #3
 393              	.LVL50:
 394 0014 0621     		movs	r1, #6
 395 0016 2000     		movs	r0, r4
 396 0018 FFF7FEFF 		bl	WritePacketIDOnly
 397              	.LVL51:
 398 001c 0200     		movs	r2, r0
 399              	.LVL52:
  94:HindsightCAN/CANMotorUnit.c ****     PackIntIntoDataMSBFirst(packetToAssemble->data, iCoef, nextByte);
 400              		.loc 1 94 0
 401 001e 2900     		movs	r1, r5
 402 0020 2000     		movs	r0, r4
 403              	.LVL53:
 404 0022 FFF7FEFF 		bl	PackIntIntoDataMSBFirst
 405              	.LVL54:
  95:HindsightCAN/CANMotorUnit.c **** }
 406              		.loc 1 95 0
 407              		@ sp needed
 408              	.LVL55:
 409              	.LVL56:
 410 0026 70BD     		pop	{r4, r5, r6, pc}
 411              		.cfi_endproc
 412              	.LFE9:
 413              		.size	AssembleISetPacket, .-AssembleISetPacket
 414              		.section	.text.GetIFromPacket,"ax",%progbits
 415              		.align	2
 416              		.global	GetIFromPacket
 417              		.code	16
 418              		.thumb_func
ARM GAS  C:\Users\Min\AppData\Local\Temp\ccpI1cwC.s 			page 10


 419              		.type	GetIFromPacket, %function
 420              	GetIFromPacket:
 421              	.LFB10:
  96:HindsightCAN/CANMotorUnit.c **** 
  97:HindsightCAN/CANMotorUnit.c **** int32_t GetIFromPacket(CANPacket *packet)
  98:HindsightCAN/CANMotorUnit.c **** {
 422              		.loc 1 98 0
 423              		.cfi_startproc
 424              		@ args = 0, pretend = 0, frame = 0
 425              		@ frame_needed = 0, uses_anonymous_args = 0
 426              	.LVL57:
 427 0000 10B5     		push	{r4, lr}
 428              		.cfi_def_cfa_offset 8
 429              		.cfi_offset 4, -8
 430              		.cfi_offset 14, -4
  99:HindsightCAN/CANMotorUnit.c ****     return DecodeBytesToIntMSBFirst(packet->data, DLC_MOTOR_UNIT_PID_I_SET - 4, DLC_MOTOR_UNIT_PID_
 431              		.loc 1 99 0
 432 0002 0330     		adds	r0, r0, #3
 433              	.LVL58:
 434 0004 0522     		movs	r2, #5
 435 0006 0121     		movs	r1, #1
 436 0008 FFF7FEFF 		bl	DecodeBytesToIntMSBFirst
 437              	.LVL59:
 100:HindsightCAN/CANMotorUnit.c **** }
 438              		.loc 1 100 0
 439              		@ sp needed
 440 000c 10BD     		pop	{r4, pc}
 441              		.cfi_endproc
 442              	.LFE10:
 443              		.size	GetIFromPacket, .-GetIFromPacket
 444 000e C046     		.section	.text.AssembleDSetPacket,"ax",%progbits
 445              		.align	2
 446              		.global	AssembleDSetPacket
 447              		.code	16
 448              		.thumb_func
 449              		.type	AssembleDSetPacket, %function
 450              	AssembleDSetPacket:
 451              	.LFB11:
 101:HindsightCAN/CANMotorUnit.c **** 
 102:HindsightCAN/CANMotorUnit.c **** void AssembleDSetPacket(CANPacket *packetToAssemble,
 103:HindsightCAN/CANMotorUnit.c ****     uint8_t targetDeviceGroup,
 104:HindsightCAN/CANMotorUnit.c ****     uint8_t targetDeviceSerial,
 105:HindsightCAN/CANMotorUnit.c ****     int32_t dCoef)
 106:HindsightCAN/CANMotorUnit.c **** {
 452              		.loc 1 106 0
 453              		.cfi_startproc
 454              		@ args = 0, pretend = 0, frame = 0
 455              		@ frame_needed = 0, uses_anonymous_args = 0
 456              	.LVL60:
 457 0000 70B5     		push	{r4, r5, r6, lr}
 458              		.cfi_def_cfa_offset 16
 459              		.cfi_offset 4, -16
 460              		.cfi_offset 5, -12
 461              		.cfi_offset 6, -8
 462              		.cfi_offset 14, -4
 463 0002 0400     		movs	r4, r0
 464 0004 1D00     		movs	r5, r3
ARM GAS  C:\Users\Min\AppData\Local\Temp\ccpI1cwC.s 			page 11


 107:HindsightCAN/CANMotorUnit.c ****     packetToAssemble->id = ConstructCANID(PACKET_PRIORITY_NORMAL, targetDeviceGroup, targetDeviceSe
 465              		.loc 1 107 0
 466 0006 0120     		movs	r0, #1
 467              	.LVL61:
 468 0008 FFF7FEFF 		bl	ConstructCANID
 469              	.LVL62:
 470 000c 2080     		strh	r0, [r4]
 108:HindsightCAN/CANMotorUnit.c ****     packetToAssemble->dlc = DLC_MOTOR_UNIT_PID_D_SET;
 471              		.loc 1 108 0
 472 000e 0523     		movs	r3, #5
 473 0010 A370     		strb	r3, [r4, #2]
 109:HindsightCAN/CANMotorUnit.c ****     int nextByte = WritePacketIDOnly(packetToAssemble->data, ID_MOTOR_UNIT_PID_D_SET);
 474              		.loc 1 109 0
 475 0012 0334     		adds	r4, r4, #3
 476              	.LVL63:
 477 0014 0721     		movs	r1, #7
 478 0016 2000     		movs	r0, r4
 479 0018 FFF7FEFF 		bl	WritePacketIDOnly
 480              	.LVL64:
 481 001c 0200     		movs	r2, r0
 482              	.LVL65:
 110:HindsightCAN/CANMotorUnit.c ****     PackIntIntoDataMSBFirst(packetToAssemble->data, dCoef, nextByte);
 483              		.loc 1 110 0
 484 001e 2900     		movs	r1, r5
 485 0020 2000     		movs	r0, r4
 486              	.LVL66:
 487 0022 FFF7FEFF 		bl	PackIntIntoDataMSBFirst
 488              	.LVL67:
 111:HindsightCAN/CANMotorUnit.c **** }
 489              		.loc 1 111 0
 490              		@ sp needed
 491              	.LVL68:
 492              	.LVL69:
 493 0026 70BD     		pop	{r4, r5, r6, pc}
 494              		.cfi_endproc
 495              	.LFE11:
 496              		.size	AssembleDSetPacket, .-AssembleDSetPacket
 497              		.section	.text.GetDFromPacket,"ax",%progbits
 498              		.align	2
 499              		.global	GetDFromPacket
 500              		.code	16
 501              		.thumb_func
 502              		.type	GetDFromPacket, %function
 503              	GetDFromPacket:
 504              	.LFB12:
 112:HindsightCAN/CANMotorUnit.c **** 
 113:HindsightCAN/CANMotorUnit.c **** int32_t GetDFromPacket(CANPacket *packet)
 114:HindsightCAN/CANMotorUnit.c **** {
 505              		.loc 1 114 0
 506              		.cfi_startproc
 507              		@ args = 0, pretend = 0, frame = 0
 508              		@ frame_needed = 0, uses_anonymous_args = 0
 509              	.LVL70:
 510 0000 10B5     		push	{r4, lr}
 511              		.cfi_def_cfa_offset 8
 512              		.cfi_offset 4, -8
 513              		.cfi_offset 14, -4
ARM GAS  C:\Users\Min\AppData\Local\Temp\ccpI1cwC.s 			page 12


 115:HindsightCAN/CANMotorUnit.c ****     return DecodeBytesToIntMSBFirst(packet->data, DLC_MOTOR_UNIT_PID_D_SET - 4, DLC_MOTOR_UNIT_PID_
 514              		.loc 1 115 0
 515 0002 0330     		adds	r0, r0, #3
 516              	.LVL71:
 517 0004 0522     		movs	r2, #5
 518 0006 0121     		movs	r1, #1
 519 0008 FFF7FEFF 		bl	DecodeBytesToIntMSBFirst
 520              	.LVL72:
 116:HindsightCAN/CANMotorUnit.c **** }
 521              		.loc 1 116 0
 522              		@ sp needed
 523 000c 10BD     		pop	{r4, pc}
 524              		.cfi_endproc
 525              	.LFE12:
 526              		.size	GetDFromPacket, .-GetDFromPacket
 527 000e C046     		.section	.text.AssembleInitializePacket,"ax",%progbits
 528              		.align	2
 529              		.global	AssembleInitializePacket
 530              		.code	16
 531              		.thumb_func
 532              		.type	AssembleInitializePacket, %function
 533              	AssembleInitializePacket:
 534              	.LFB13:
 117:HindsightCAN/CANMotorUnit.c **** 
 118:HindsightCAN/CANMotorUnit.c **** void AssembleInitializePacket(CANPacket *packetToAssemble,
 119:HindsightCAN/CANMotorUnit.c ****     uint8_t targetDeviceGroup,
 120:HindsightCAN/CANMotorUnit.c ****     uint8_t targetDeviceSerial,
 121:HindsightCAN/CANMotorUnit.c ****     uint8_t initMode)
 122:HindsightCAN/CANMotorUnit.c **** {
 535              		.loc 1 122 0
 536              		.cfi_startproc
 537              		@ args = 0, pretend = 0, frame = 0
 538              		@ frame_needed = 0, uses_anonymous_args = 0
 539              	.LVL73:
 540 0000 70B5     		push	{r4, r5, r6, lr}
 541              		.cfi_def_cfa_offset 16
 542              		.cfi_offset 4, -16
 543              		.cfi_offset 5, -12
 544              		.cfi_offset 6, -8
 545              		.cfi_offset 14, -4
 546 0002 0400     		movs	r4, r0
 547 0004 1D00     		movs	r5, r3
 123:HindsightCAN/CANMotorUnit.c ****     packetToAssemble->id = ConstructCANID(PRIO_MOTOR_UNIT_INIT, targetDeviceGroup, targetDeviceSeri
 548              		.loc 1 123 0
 549 0006 0120     		movs	r0, #1
 550              	.LVL74:
 551 0008 FFF7FEFF 		bl	ConstructCANID
 552              	.LVL75:
 553 000c 2080     		strh	r0, [r4]
 124:HindsightCAN/CANMotorUnit.c ****     packetToAssemble->dlc = DLC_MOTOR_UNIT_INIT;
 554              		.loc 1 124 0
 555 000e 0223     		movs	r3, #2
 556 0010 A370     		strb	r3, [r4, #2]
 125:HindsightCAN/CANMotorUnit.c ****     int nextByte = WritePacketIDOnly(packetToAssemble->data, ID_MOTOR_UNIT_INIT);
 557              		.loc 1 125 0
 558 0012 E01C     		adds	r0, r4, #3
 559 0014 0821     		movs	r1, #8
ARM GAS  C:\Users\Min\AppData\Local\Temp\ccpI1cwC.s 			page 13


 560 0016 FFF7FEFF 		bl	WritePacketIDOnly
 561              	.LVL76:
 126:HindsightCAN/CANMotorUnit.c ****     packetToAssemble->data[nextByte] = initMode;
 562              		.loc 1 126 0
 563 001a 2418     		adds	r4, r4, r0
 564              	.LVL77:
 565 001c E570     		strb	r5, [r4, #3]
 127:HindsightCAN/CANMotorUnit.c **** }
 566              		.loc 1 127 0
 567              		@ sp needed
 568 001e 70BD     		pop	{r4, r5, r6, pc}
 569              		.cfi_endproc
 570              	.LFE13:
 571              		.size	AssembleInitializePacket, .-AssembleInitializePacket
 572              		.section	.text.GetInitModeFromPacket,"ax",%progbits
 573              		.align	2
 574              		.global	GetInitModeFromPacket
 575              		.code	16
 576              		.thumb_func
 577              		.type	GetInitModeFromPacket, %function
 578              	GetInitModeFromPacket:
 579              	.LFB14:
 128:HindsightCAN/CANMotorUnit.c **** uint8_t GetInitModeFromPacket(CANPacket *packet)
 129:HindsightCAN/CANMotorUnit.c **** {
 580              		.loc 1 129 0
 581              		.cfi_startproc
 582              		@ args = 0, pretend = 0, frame = 0
 583              		@ frame_needed = 0, uses_anonymous_args = 0
 584              		@ link register save eliminated.
 585              	.LVL78:
 130:HindsightCAN/CANMotorUnit.c ****     return packet->data[1];
 586              		.loc 1 130 0
 587 0000 0079     		ldrb	r0, [r0, #4]
 588              	.LVL79:
 131:HindsightCAN/CANMotorUnit.c **** }
 589              		.loc 1 131 0
 590              		@ sp needed
 591 0002 7047     		bx	lr
 592              		.cfi_endproc
 593              	.LFE14:
 594              		.size	GetInitModeFromPacket, .-GetInitModeFromPacket
 595              		.section	.text.AssembleLimitSwitchAlertPacket,"ax",%progbits
 596              		.align	2
 597              		.global	AssembleLimitSwitchAlertPacket
 598              		.code	16
 599              		.thumb_func
 600              		.type	AssembleLimitSwitchAlertPacket, %function
 601              	AssembleLimitSwitchAlertPacket:
 602              	.LFB15:
 132:HindsightCAN/CANMotorUnit.c **** 
 133:HindsightCAN/CANMotorUnit.c **** void AssembleLimitSwitchAlertPacket(CANPacket *packetToAssemble,
 134:HindsightCAN/CANMotorUnit.c ****     uint8_t targetDeviceGroup,
 135:HindsightCAN/CANMotorUnit.c ****     uint8_t targetDeviceSerial,
 136:HindsightCAN/CANMotorUnit.c ****     uint8_t switches)
 137:HindsightCAN/CANMotorUnit.c **** {
 603              		.loc 1 137 0
 604              		.cfi_startproc
ARM GAS  C:\Users\Min\AppData\Local\Temp\ccpI1cwC.s 			page 14


 605              		@ args = 0, pretend = 0, frame = 0
 606              		@ frame_needed = 0, uses_anonymous_args = 0
 607              	.LVL80:
 608 0000 70B5     		push	{r4, r5, r6, lr}
 609              		.cfi_def_cfa_offset 16
 610              		.cfi_offset 4, -16
 611              		.cfi_offset 5, -12
 612              		.cfi_offset 6, -8
 613              		.cfi_offset 14, -4
 614 0002 0400     		movs	r4, r0
 615 0004 1D00     		movs	r5, r3
 138:HindsightCAN/CANMotorUnit.c ****     packetToAssemble->id = ConstructCANID(PRIO_MOTOR_UNIT_LIM_ALERT, targetDeviceGroup, targetDevic
 616              		.loc 1 138 0
 617 0006 0020     		movs	r0, #0
 618              	.LVL81:
 619 0008 FFF7FEFF 		bl	ConstructCANID
 620              	.LVL82:
 621 000c 2080     		strh	r0, [r4]
 139:HindsightCAN/CANMotorUnit.c ****     packetToAssemble->dlc = DLC_MOTOR_UNIT_LIM_ALERT;
 622              		.loc 1 139 0
 623 000e 0423     		movs	r3, #4
 624 0010 A370     		strb	r3, [r4, #2]
 140:HindsightCAN/CANMotorUnit.c ****     int nextByte = WriteSenderSerialAndPacketID(packetToAssemble->data, ID_MOTOR_UNIT_LIM_ALERT);
 625              		.loc 1 140 0
 626 0012 E01C     		adds	r0, r4, #3
 627 0014 0921     		movs	r1, #9
 628 0016 FFF7FEFF 		bl	WriteSenderSerialAndPacketID
 629              	.LVL83:
 141:HindsightCAN/CANMotorUnit.c ****     packetToAssemble->data[nextByte] = switches; 
 630              		.loc 1 141 0
 631 001a 2418     		adds	r4, r4, r0
 632              	.LVL84:
 633 001c E570     		strb	r5, [r4, #3]
 142:HindsightCAN/CANMotorUnit.c **** }
 634              		.loc 1 142 0
 635              		@ sp needed
 636 001e 70BD     		pop	{r4, r5, r6, pc}
 637              		.cfi_endproc
 638              	.LFE15:
 639              		.size	AssembleLimitSwitchAlertPacket, .-AssembleLimitSwitchAlertPacket
 640              		.section	.text.GetLimStatusFromPacket,"ax",%progbits
 641              		.align	2
 642              		.global	GetLimStatusFromPacket
 643              		.code	16
 644              		.thumb_func
 645              		.type	GetLimStatusFromPacket, %function
 646              	GetLimStatusFromPacket:
 647              	.LFB16:
 143:HindsightCAN/CANMotorUnit.c **** uint8_t GetLimStatusFromPacket(CANPacket *packet)
 144:HindsightCAN/CANMotorUnit.c **** {
 648              		.loc 1 144 0
 649              		.cfi_startproc
 650              		@ args = 0, pretend = 0, frame = 0
 651              		@ frame_needed = 0, uses_anonymous_args = 0
 652              		@ link register save eliminated.
 653              	.LVL85:
 145:HindsightCAN/CANMotorUnit.c ****     return packet->data[1];
ARM GAS  C:\Users\Min\AppData\Local\Temp\ccpI1cwC.s 			page 15


 654              		.loc 1 145 0
 655 0000 0079     		ldrb	r0, [r0, #4]
 656              	.LVL86:
 146:HindsightCAN/CANMotorUnit.c **** }
 657              		.loc 1 146 0
 658              		@ sp needed
 659 0002 7047     		bx	lr
 660              		.cfi_endproc
 661              	.LFE16:
 662              		.size	GetLimStatusFromPacket, .-GetLimStatusFromPacket
 663              		.section	.text.AssembleEncoderPPJRSetPacket,"ax",%progbits
 664              		.align	2
 665              		.global	AssembleEncoderPPJRSetPacket
 666              		.code	16
 667              		.thumb_func
 668              		.type	AssembleEncoderPPJRSetPacket, %function
 669              	AssembleEncoderPPJRSetPacket:
 670              	.LFB17:
 147:HindsightCAN/CANMotorUnit.c **** 
 148:HindsightCAN/CANMotorUnit.c **** void AssembleEncoderPPJRSetPacket(CANPacket *packetToAssemble,
 149:HindsightCAN/CANMotorUnit.c ****     uint8_t targetDeviceGroup,
 150:HindsightCAN/CANMotorUnit.c ****     uint8_t targetDeviceSerial,
 151:HindsightCAN/CANMotorUnit.c ****     uint32_t pulses)
 152:HindsightCAN/CANMotorUnit.c **** {
 671              		.loc 1 152 0
 672              		.cfi_startproc
 673              		@ args = 0, pretend = 0, frame = 0
 674              		@ frame_needed = 0, uses_anonymous_args = 0
 675              	.LVL87:
 676 0000 70B5     		push	{r4, r5, r6, lr}
 677              		.cfi_def_cfa_offset 16
 678              		.cfi_offset 4, -16
 679              		.cfi_offset 5, -12
 680              		.cfi_offset 6, -8
 681              		.cfi_offset 14, -4
 682 0002 0400     		movs	r4, r0
 683 0004 1D00     		movs	r5, r3
 153:HindsightCAN/CANMotorUnit.c ****     packetToAssemble->id = ConstructCANID(PRIO_MOTOR_UNIT_ENC_PPJR_SET, targetDeviceGroup, targetDe
 684              		.loc 1 153 0
 685 0006 0120     		movs	r0, #1
 686              	.LVL88:
 687 0008 FFF7FEFF 		bl	ConstructCANID
 688              	.LVL89:
 689 000c 2080     		strh	r0, [r4]
 154:HindsightCAN/CANMotorUnit.c ****     packetToAssemble->dlc = DLC_MOTOR_UNIT_ENC_PPJR_SET;
 690              		.loc 1 154 0
 691 000e 0523     		movs	r3, #5
 692 0010 A370     		strb	r3, [r4, #2]
 155:HindsightCAN/CANMotorUnit.c ****     int nextByte = WritePacketIDOnly(packetToAssemble->data, ID_MOTOR_UNIT_ENC_PPJR_SET);
 693              		.loc 1 155 0
 694 0012 0334     		adds	r4, r4, #3
 695              	.LVL90:
 696 0014 0A21     		movs	r1, #10
 697 0016 2000     		movs	r0, r4
 698 0018 FFF7FEFF 		bl	WritePacketIDOnly
 699              	.LVL91:
 700 001c 0200     		movs	r2, r0
ARM GAS  C:\Users\Min\AppData\Local\Temp\ccpI1cwC.s 			page 16


 701              	.LVL92:
 156:HindsightCAN/CANMotorUnit.c ****     PackIntIntoDataMSBFirst(packetToAssemble->data, pulses, nextByte);
 702              		.loc 1 156 0
 703 001e 2900     		movs	r1, r5
 704 0020 2000     		movs	r0, r4
 705              	.LVL93:
 706 0022 FFF7FEFF 		bl	PackIntIntoDataMSBFirst
 707              	.LVL94:
 157:HindsightCAN/CANMotorUnit.c **** }
 708              		.loc 1 157 0
 709              		@ sp needed
 710              	.LVL95:
 711              	.LVL96:
 712 0026 70BD     		pop	{r4, r5, r6, pc}
 713              		.cfi_endproc
 714              	.LFE17:
 715              		.size	AssembleEncoderPPJRSetPacket, .-AssembleEncoderPPJRSetPacket
 716              		.section	.text.GetEncoderPPJRFromPacket,"ax",%progbits
 717              		.align	2
 718              		.global	GetEncoderPPJRFromPacket
 719              		.code	16
 720              		.thumb_func
 721              		.type	GetEncoderPPJRFromPacket, %function
 722              	GetEncoderPPJRFromPacket:
 723              	.LFB18:
 158:HindsightCAN/CANMotorUnit.c **** 
 159:HindsightCAN/CANMotorUnit.c **** uint32_t GetEncoderPPJRFromPacket(CANPacket *packet)
 160:HindsightCAN/CANMotorUnit.c **** {
 724              		.loc 1 160 0
 725              		.cfi_startproc
 726              		@ args = 0, pretend = 0, frame = 0
 727              		@ frame_needed = 0, uses_anonymous_args = 0
 728              	.LVL97:
 729 0000 10B5     		push	{r4, lr}
 730              		.cfi_def_cfa_offset 8
 731              		.cfi_offset 4, -8
 732              		.cfi_offset 14, -4
 161:HindsightCAN/CANMotorUnit.c ****     return DecodeBytesToIntMSBFirst(packet->data, 1, 4);
 733              		.loc 1 161 0
 734 0002 0330     		adds	r0, r0, #3
 735              	.LVL98:
 736 0004 0422     		movs	r2, #4
 737 0006 0121     		movs	r1, #1
 738 0008 FFF7FEFF 		bl	DecodeBytesToIntMSBFirst
 739              	.LVL99:
 162:HindsightCAN/CANMotorUnit.c **** }
 740              		.loc 1 162 0
 741              		@ sp needed
 742 000c 10BD     		pop	{r4, pc}
 743              		.cfi_endproc
 744              	.LFE18:
 745              		.size	GetEncoderPPJRFromPacket, .-GetEncoderPPJRFromPacket
 746 000e C046     		.section	.text.AssembleMaxJointRevolutionPacket,"ax",%progbits
 747              		.align	2
 748              		.global	AssembleMaxJointRevolutionPacket
 749              		.code	16
 750              		.thumb_func
ARM GAS  C:\Users\Min\AppData\Local\Temp\ccpI1cwC.s 			page 17


 751              		.type	AssembleMaxJointRevolutionPacket, %function
 752              	AssembleMaxJointRevolutionPacket:
 753              	.LFB19:
 163:HindsightCAN/CANMotorUnit.c **** 
 164:HindsightCAN/CANMotorUnit.c **** void AssembleMaxJointRevolutionPacket(CANPacket *packetToAssemble,
 165:HindsightCAN/CANMotorUnit.c ****     uint8_t targetDeviceGroup,
 166:HindsightCAN/CANMotorUnit.c ****     uint8_t targetDeviceSerial,
 167:HindsightCAN/CANMotorUnit.c ****     uint32_t revolutions)
 168:HindsightCAN/CANMotorUnit.c **** {
 754              		.loc 1 168 0
 755              		.cfi_startproc
 756              		@ args = 0, pretend = 0, frame = 0
 757              		@ frame_needed = 0, uses_anonymous_args = 0
 758              	.LVL100:
 759 0000 70B5     		push	{r4, r5, r6, lr}
 760              		.cfi_def_cfa_offset 16
 761              		.cfi_offset 4, -16
 762              		.cfi_offset 5, -12
 763              		.cfi_offset 6, -8
 764              		.cfi_offset 14, -4
 765 0002 0400     		movs	r4, r0
 766 0004 1D00     		movs	r5, r3
 169:HindsightCAN/CANMotorUnit.c ****     packetToAssemble->id = ConstructCANID(PRIO_MOTOR_UNIT_MAX_JNT_REV_SET, targetDeviceGroup, targe
 767              		.loc 1 169 0
 768 0006 0120     		movs	r0, #1
 769              	.LVL101:
 770 0008 FFF7FEFF 		bl	ConstructCANID
 771              	.LVL102:
 772 000c 2080     		strh	r0, [r4]
 170:HindsightCAN/CANMotorUnit.c ****     packetToAssemble->dlc = DLC_MOTOR_UNIT_MAX_JNT_REV_SET;
 773              		.loc 1 170 0
 774 000e 0223     		movs	r3, #2
 775 0010 A370     		strb	r3, [r4, #2]
 171:HindsightCAN/CANMotorUnit.c ****     int nextByte = WritePacketIDOnly(packetToAssemble->data, ID_MOTOR_UNIT_MAX_JNT_REV_SET);
 776              		.loc 1 171 0
 777 0012 0334     		adds	r4, r4, #3
 778              	.LVL103:
 779 0014 0B21     		movs	r1, #11
 780 0016 2000     		movs	r0, r4
 781 0018 FFF7FEFF 		bl	WritePacketIDOnly
 782              	.LVL104:
 783 001c 0200     		movs	r2, r0
 784              	.LVL105:
 172:HindsightCAN/CANMotorUnit.c ****     PackIntIntoDataMSBFirst(packetToAssemble->data, revolutions, nextByte);
 785              		.loc 1 172 0
 786 001e 2900     		movs	r1, r5
 787 0020 2000     		movs	r0, r4
 788              	.LVL106:
 789 0022 FFF7FEFF 		bl	PackIntIntoDataMSBFirst
 790              	.LVL107:
 173:HindsightCAN/CANMotorUnit.c ****     
 174:HindsightCAN/CANMotorUnit.c **** }
 791              		.loc 1 174 0
 792              		@ sp needed
 793              	.LVL108:
 794              	.LVL109:
 795 0026 70BD     		pop	{r4, r5, r6, pc}
ARM GAS  C:\Users\Min\AppData\Local\Temp\ccpI1cwC.s 			page 18


 796              		.cfi_endproc
 797              	.LFE19:
 798              		.size	AssembleMaxJointRevolutionPacket, .-AssembleMaxJointRevolutionPacket
 799              		.section	.text.GetMaxJointRevolutionsFromPacket,"ax",%progbits
 800              		.align	2
 801              		.global	GetMaxJointRevolutionsFromPacket
 802              		.code	16
 803              		.thumb_func
 804              		.type	GetMaxJointRevolutionsFromPacket, %function
 805              	GetMaxJointRevolutionsFromPacket:
 806              	.LFB20:
 175:HindsightCAN/CANMotorUnit.c **** uint32_t GetMaxJointRevolutionsFromPacket(CANPacket *packet)
 176:HindsightCAN/CANMotorUnit.c **** {
 807              		.loc 1 176 0
 808              		.cfi_startproc
 809              		@ args = 0, pretend = 0, frame = 0
 810              		@ frame_needed = 0, uses_anonymous_args = 0
 811              	.LVL110:
 812 0000 10B5     		push	{r4, lr}
 813              		.cfi_def_cfa_offset 8
 814              		.cfi_offset 4, -8
 815              		.cfi_offset 14, -4
 177:HindsightCAN/CANMotorUnit.c ****     return DecodeBytesToIntMSBFirst(packet->data, 1, 4);
 816              		.loc 1 177 0
 817 0002 0330     		adds	r0, r0, #3
 818              	.LVL111:
 819 0004 0422     		movs	r2, #4
 820 0006 0121     		movs	r1, #1
 821 0008 FFF7FEFF 		bl	DecodeBytesToIntMSBFirst
 822              	.LVL112:
 178:HindsightCAN/CANMotorUnit.c **** }
 823              		.loc 1 178 0
 824              		@ sp needed
 825 000c 10BD     		pop	{r4, pc}
 826              		.cfi_endproc
 827              	.LFE20:
 828              		.size	GetMaxJointRevolutionsFromPacket, .-GetMaxJointRevolutionsFromPacket
 829 000e C046     		.section	.text.AssemblePotHiSetPacket,"ax",%progbits
 830              		.align	2
 831              		.global	AssemblePotHiSetPacket
 832              		.code	16
 833              		.thumb_func
 834              		.type	AssemblePotHiSetPacket, %function
 835              	AssemblePotHiSetPacket:
 836              	.LFB21:
 179:HindsightCAN/CANMotorUnit.c **** 
 180:HindsightCAN/CANMotorUnit.c **** void AssemblePotHiSetPacket(CANPacket *packetToAssemble,
 181:HindsightCAN/CANMotorUnit.c ****     uint8_t targetDeviceGroup,
 182:HindsightCAN/CANMotorUnit.c ****     uint8_t targetDeviceSerial,
 183:HindsightCAN/CANMotorUnit.c ****     uint16_t adcHi,
 184:HindsightCAN/CANMotorUnit.c ****     int32_t mdegHi)
 185:HindsightCAN/CANMotorUnit.c **** {
 837              		.loc 1 185 0
 838              		.cfi_startproc
 839              		@ args = 4, pretend = 0, frame = 0
 840              		@ frame_needed = 0, uses_anonymous_args = 0
 841              	.LVL113:
ARM GAS  C:\Users\Min\AppData\Local\Temp\ccpI1cwC.s 			page 19


 842 0000 70B5     		push	{r4, r5, r6, lr}
 843              		.cfi_def_cfa_offset 16
 844              		.cfi_offset 4, -16
 845              		.cfi_offset 5, -12
 846              		.cfi_offset 6, -8
 847              		.cfi_offset 14, -4
 848 0002 0400     		movs	r4, r0
 849 0004 1E00     		movs	r6, r3
 186:HindsightCAN/CANMotorUnit.c ****     packetToAssemble->id = ConstructCANID(PRIO_MOTOR_UNIT_POT_INIT, targetDeviceGroup, targetDevice
 850              		.loc 1 186 0
 851 0006 0120     		movs	r0, #1
 852              	.LVL114:
 853 0008 FFF7FEFF 		bl	ConstructCANID
 854              	.LVL115:
 855 000c 2080     		strh	r0, [r4]
 187:HindsightCAN/CANMotorUnit.c ****     packetToAssemble->dlc = DLC_MOTOR_UNIT_POT_INIT;
 856              		.loc 1 187 0
 857 000e 0623     		movs	r3, #6
 858 0010 A370     		strb	r3, [r4, #2]
 188:HindsightCAN/CANMotorUnit.c **** 
 189:HindsightCAN/CANMotorUnit.c ****     int idx = WritePacketIDOnly(packetToAssemble->data, ID_MOTOR_UNIT_POT_INIT_HI);
 859              		.loc 1 189 0
 860 0012 0334     		adds	r4, r4, #3
 861              	.LVL116:
 862 0014 1021     		movs	r1, #16
 863 0016 2000     		movs	r0, r4
 864 0018 FFF7FEFF 		bl	WritePacketIDOnly
 865              	.LVL117:
 866 001c 0500     		movs	r5, r0
 867              	.LVL118:
 190:HindsightCAN/CANMotorUnit.c ****     PackShortIntoDataMSBFirst(packetToAssemble->data, adcHi, idx);
 868              		.loc 1 190 0
 869 001e 31B2     		sxth	r1, r6
 870 0020 0200     		movs	r2, r0
 871 0022 2000     		movs	r0, r4
 872              	.LVL119:
 873 0024 FFF7FEFF 		bl	PackShortIntoDataMSBFirst
 874              	.LVL120:
 191:HindsightCAN/CANMotorUnit.c ****     idx += 2;
 875              		.loc 1 191 0
 876 0028 AA1C     		adds	r2, r5, #2
 877              	.LVL121:
 192:HindsightCAN/CANMotorUnit.c ****     PackIntIntoDataMSBFirst(packetToAssemble->data, mdegHi, idx);
 878              		.loc 1 192 0
 879 002a 0499     		ldr	r1, [sp, #16]
 880 002c 2000     		movs	r0, r4
 881 002e FFF7FEFF 		bl	PackIntIntoDataMSBFirst
 882              	.LVL122:
 193:HindsightCAN/CANMotorUnit.c **** }
 883              		.loc 1 193 0
 884              		@ sp needed
 885              	.LVL123:
 886              	.LVL124:
 887 0032 70BD     		pop	{r4, r5, r6, pc}
 888              		.cfi_endproc
 889              	.LFE21:
 890              		.size	AssemblePotHiSetPacket, .-AssemblePotHiSetPacket
ARM GAS  C:\Users\Min\AppData\Local\Temp\ccpI1cwC.s 			page 20


 891              		.section	.text.AssemblePotLoSetPacket,"ax",%progbits
 892              		.align	2
 893              		.global	AssemblePotLoSetPacket
 894              		.code	16
 895              		.thumb_func
 896              		.type	AssemblePotLoSetPacket, %function
 897              	AssemblePotLoSetPacket:
 898              	.LFB22:
 194:HindsightCAN/CANMotorUnit.c **** 
 195:HindsightCAN/CANMotorUnit.c **** void AssemblePotLoSetPacket(CANPacket *packetToAssemble,
 196:HindsightCAN/CANMotorUnit.c ****     uint8_t targetDeviceGroup,
 197:HindsightCAN/CANMotorUnit.c ****     uint8_t targetDeviceSerial,
 198:HindsightCAN/CANMotorUnit.c ****     uint16_t adcLo,
 199:HindsightCAN/CANMotorUnit.c ****     int32_t mdegLo)
 200:HindsightCAN/CANMotorUnit.c **** {
 899              		.loc 1 200 0
 900              		.cfi_startproc
 901              		@ args = 4, pretend = 0, frame = 0
 902              		@ frame_needed = 0, uses_anonymous_args = 0
 903              	.LVL125:
 904 0000 70B5     		push	{r4, r5, r6, lr}
 905              		.cfi_def_cfa_offset 16
 906              		.cfi_offset 4, -16
 907              		.cfi_offset 5, -12
 908              		.cfi_offset 6, -8
 909              		.cfi_offset 14, -4
 910 0002 0400     		movs	r4, r0
 911 0004 1E00     		movs	r6, r3
 201:HindsightCAN/CANMotorUnit.c ****     packetToAssemble->id = ConstructCANID(PRIO_MOTOR_UNIT_POT_INIT, targetDeviceGroup, targetDevice
 912              		.loc 1 201 0
 913 0006 0120     		movs	r0, #1
 914              	.LVL126:
 915 0008 FFF7FEFF 		bl	ConstructCANID
 916              	.LVL127:
 917 000c 2080     		strh	r0, [r4]
 202:HindsightCAN/CANMotorUnit.c ****     packetToAssemble->dlc = DLC_MOTOR_UNIT_POT_INIT;
 918              		.loc 1 202 0
 919 000e 0623     		movs	r3, #6
 920 0010 A370     		strb	r3, [r4, #2]
 203:HindsightCAN/CANMotorUnit.c **** 
 204:HindsightCAN/CANMotorUnit.c ****     int idx = WritePacketIDOnly(packetToAssemble->data, ID_MOTOR_UNIT_POT_INIT_LO);
 921              		.loc 1 204 0
 922 0012 0334     		adds	r4, r4, #3
 923              	.LVL128:
 924 0014 0F21     		movs	r1, #15
 925 0016 2000     		movs	r0, r4
 926 0018 FFF7FEFF 		bl	WritePacketIDOnly
 927              	.LVL129:
 928 001c 0500     		movs	r5, r0
 929              	.LVL130:
 205:HindsightCAN/CANMotorUnit.c ****     PackShortIntoDataMSBFirst(packetToAssemble->data, adcLo, idx);
 930              		.loc 1 205 0
 931 001e 31B2     		sxth	r1, r6
 932 0020 0200     		movs	r2, r0
 933 0022 2000     		movs	r0, r4
 934              	.LVL131:
 935 0024 FFF7FEFF 		bl	PackShortIntoDataMSBFirst
ARM GAS  C:\Users\Min\AppData\Local\Temp\ccpI1cwC.s 			page 21


 936              	.LVL132:
 206:HindsightCAN/CANMotorUnit.c ****     idx += 2;
 937              		.loc 1 206 0
 938 0028 AA1C     		adds	r2, r5, #2
 939              	.LVL133:
 207:HindsightCAN/CANMotorUnit.c ****     PackIntIntoDataMSBFirst(packetToAssemble->data, mdegLo, idx);
 940              		.loc 1 207 0
 941 002a 0499     		ldr	r1, [sp, #16]
 942 002c 2000     		movs	r0, r4
 943 002e FFF7FEFF 		bl	PackIntIntoDataMSBFirst
 944              	.LVL134:
 208:HindsightCAN/CANMotorUnit.c **** }
 945              		.loc 1 208 0
 946              		@ sp needed
 947              	.LVL135:
 948              	.LVL136:
 949 0032 70BD     		pop	{r4, r5, r6, pc}
 950              		.cfi_endproc
 951              	.LFE22:
 952              		.size	AssemblePotLoSetPacket, .-AssemblePotLoSetPacket
 953              		.section	.text.GetPotADCFromPacket,"ax",%progbits
 954              		.align	2
 955              		.global	GetPotADCFromPacket
 956              		.code	16
 957              		.thumb_func
 958              		.type	GetPotADCFromPacket, %function
 959              	GetPotADCFromPacket:
 960              	.LFB23:
 209:HindsightCAN/CANMotorUnit.c **** 
 210:HindsightCAN/CANMotorUnit.c **** uint16_t GetPotADCFromPacket(const CANPacket *packet)
 211:HindsightCAN/CANMotorUnit.c **** {
 961              		.loc 1 211 0
 962              		.cfi_startproc
 963              		@ args = 0, pretend = 0, frame = 0
 964              		@ frame_needed = 0, uses_anonymous_args = 0
 965              	.LVL137:
 966 0000 10B5     		push	{r4, lr}
 967              		.cfi_def_cfa_offset 8
 968              		.cfi_offset 4, -8
 969              		.cfi_offset 14, -4
 212:HindsightCAN/CANMotorUnit.c ****     return DecodeBytesToIntMSBFirst(packet->data, 1, 2);
 970              		.loc 1 212 0
 971 0002 0330     		adds	r0, r0, #3
 972              	.LVL138:
 973 0004 0222     		movs	r2, #2
 974 0006 0121     		movs	r1, #1
 975 0008 FFF7FEFF 		bl	DecodeBytesToIntMSBFirst
 976              	.LVL139:
 977 000c 80B2     		uxth	r0, r0
 213:HindsightCAN/CANMotorUnit.c **** }
 978              		.loc 1 213 0
 979              		@ sp needed
 980 000e 10BD     		pop	{r4, pc}
 981              		.cfi_endproc
 982              	.LFE23:
 983              		.size	GetPotADCFromPacket, .-GetPotADCFromPacket
 984              		.section	.text.GetPotmDegFromPacket,"ax",%progbits
ARM GAS  C:\Users\Min\AppData\Local\Temp\ccpI1cwC.s 			page 22


 985              		.align	2
 986              		.global	GetPotmDegFromPacket
 987              		.code	16
 988              		.thumb_func
 989              		.type	GetPotmDegFromPacket, %function
 990              	GetPotmDegFromPacket:
 991              	.LFB24:
 214:HindsightCAN/CANMotorUnit.c **** 
 215:HindsightCAN/CANMotorUnit.c **** int32_t GetPotmDegFromPacket(const CANPacket *packet)
 216:HindsightCAN/CANMotorUnit.c **** {
 992              		.loc 1 216 0
 993              		.cfi_startproc
 994              		@ args = 0, pretend = 0, frame = 0
 995              		@ frame_needed = 0, uses_anonymous_args = 0
 996              	.LVL140:
 997 0000 10B5     		push	{r4, lr}
 998              		.cfi_def_cfa_offset 8
 999              		.cfi_offset 4, -8
 1000              		.cfi_offset 14, -4
 217:HindsightCAN/CANMotorUnit.c ****     return DecodeBytesToIntMSBFirst(packet->data, 3, 6);
 1001              		.loc 1 217 0
 1002 0002 0330     		adds	r0, r0, #3
 1003              	.LVL141:
 1004 0004 0622     		movs	r2, #6
 1005 0006 0321     		movs	r1, #3
 1006 0008 FFF7FEFF 		bl	DecodeBytesToIntMSBFirst
 1007              	.LVL142:
 218:HindsightCAN/CANMotorUnit.c **** }
 1008              		.loc 1 218 0
 1009              		@ sp needed
 1010 000c 10BD     		pop	{r4, pc}
 1011              		.cfi_endproc
 1012              	.LFE24:
 1013              		.size	GetPotmDegFromPacket, .-GetPotmDegFromPacket
 1014 000e C046     		.section	.text.AssembleEncoderInitializePacket,"ax",%progbits
 1015              		.align	2
 1016              		.global	AssembleEncoderInitializePacket
 1017              		.code	16
 1018              		.thumb_func
 1019              		.type	AssembleEncoderInitializePacket, %function
 1020              	AssembleEncoderInitializePacket:
 1021              	.LFB25:
 219:HindsightCAN/CANMotorUnit.c **** 
 220:HindsightCAN/CANMotorUnit.c **** void AssembleEncoderInitializePacket(CANPacket *packetToAssemble,
 221:HindsightCAN/CANMotorUnit.c ****     uint8_t targetDeviceGroup,
 222:HindsightCAN/CANMotorUnit.c ****     uint8_t targetDeviceSerial,
 223:HindsightCAN/CANMotorUnit.c ****     uint8_t encoderType,
 224:HindsightCAN/CANMotorUnit.c ****     uint8_t angleDirection,
 225:HindsightCAN/CANMotorUnit.c ****     uint8_t zeroAngle)
 226:HindsightCAN/CANMotorUnit.c **** {
 1022              		.loc 1 226 0
 1023              		.cfi_startproc
 1024              		@ args = 8, pretend = 0, frame = 0
 1025              		@ frame_needed = 0, uses_anonymous_args = 0
 1026              	.LVL143:
 1027 0000 F8B5     		push	{r3, r4, r5, r6, r7, lr}
 1028              		.cfi_def_cfa_offset 24
ARM GAS  C:\Users\Min\AppData\Local\Temp\ccpI1cwC.s 			page 23


 1029              		.cfi_offset 3, -24
 1030              		.cfi_offset 4, -20
 1031              		.cfi_offset 5, -16
 1032              		.cfi_offset 6, -12
 1033              		.cfi_offset 7, -8
 1034              		.cfi_offset 14, -4
 1035 0002 0400     		movs	r4, r0
 1036 0004 1F00     		movs	r7, r3
 1037 0006 06AB     		add	r3, sp, #24
 1038              	.LVL144:
 1039 0008 1E78     		ldrb	r6, [r3]
 1040 000a 07AB     		add	r3, sp, #28
 1041              	.LVL145:
 1042 000c 1D78     		ldrb	r5, [r3]
 227:HindsightCAN/CANMotorUnit.c ****     packetToAssemble->id = ConstructCANID(PRIO_MOTOR_UNIT_ENC_INIT, targetDeviceGroup, targetDevice
 1043              		.loc 1 227 0
 1044 000e 0120     		movs	r0, #1
 1045              	.LVL146:
 1046 0010 FFF7FEFF 		bl	ConstructCANID
 1047              	.LVL147:
 1048 0014 2080     		strh	r0, [r4]
 228:HindsightCAN/CANMotorUnit.c ****     packetToAssemble->dlc = DLC_MOTOR_UNIT_ENC_INIT;
 1049              		.loc 1 228 0
 1050 0016 0223     		movs	r3, #2
 1051 0018 A370     		strb	r3, [r4, #2]
 229:HindsightCAN/CANMotorUnit.c ****     int nextByte = WritePacketIDOnly(packetToAssemble->data, ID_MOTOR_UNIT_ENC_INIT);
 1052              		.loc 1 229 0
 1053 001a E01C     		adds	r0, r4, #3
 1054 001c 0C21     		movs	r1, #12
 1055 001e FFF7FEFF 		bl	WritePacketIDOnly
 1056              	.LVL148:
 230:HindsightCAN/CANMotorUnit.c ****     packetToAssemble->data[nextByte] = 0;
 1057              		.loc 1 230 0
 1058 0022 2318     		adds	r3, r4, r0
 1059 0024 0022     		movs	r2, #0
 1060 0026 DA70     		strb	r2, [r3, #3]
 231:HindsightCAN/CANMotorUnit.c ****     if(encoderType)
 1061              		.loc 1 231 0
 1062 0028 002F     		cmp	r7, #0
 1063 002a 01D0     		beq	.L27
 232:HindsightCAN/CANMotorUnit.c ****     {
 233:HindsightCAN/CANMotorUnit.c ****         packetToAssemble->data[nextByte] |= 0b100;
 1064              		.loc 1 233 0
 1065 002c 0432     		adds	r2, r2, #4
 1066 002e DA70     		strb	r2, [r3, #3]
 1067              	.L27:
 234:HindsightCAN/CANMotorUnit.c ****     }
 235:HindsightCAN/CANMotorUnit.c ****     if(angleDirection)
 1068              		.loc 1 235 0
 1069 0030 002E     		cmp	r6, #0
 1070 0032 04D0     		beq	.L28
 236:HindsightCAN/CANMotorUnit.c ****     {
 237:HindsightCAN/CANMotorUnit.c ****         packetToAssemble->data[nextByte] |= 0b010;
 1071              		.loc 1 237 0
 1072 0034 2218     		adds	r2, r4, r0
 1073 0036 D178     		ldrb	r1, [r2, #3]
 1074 0038 0223     		movs	r3, #2
ARM GAS  C:\Users\Min\AppData\Local\Temp\ccpI1cwC.s 			page 24


 1075 003a 0B43     		orrs	r3, r1
 1076 003c D370     		strb	r3, [r2, #3]
 1077              	.L28:
 238:HindsightCAN/CANMotorUnit.c ****     }
 239:HindsightCAN/CANMotorUnit.c ****     if(zeroAngle)
 1078              		.loc 1 239 0
 1079 003e 002D     		cmp	r5, #0
 1080 0040 04D0     		beq	.L26
 240:HindsightCAN/CANMotorUnit.c ****     {
 241:HindsightCAN/CANMotorUnit.c ****         packetToAssemble->data[nextByte] |= 0b001;
 1081              		.loc 1 241 0
 1082 0042 2018     		adds	r0, r4, r0
 1083              	.LVL149:
 1084 0044 C278     		ldrb	r2, [r0, #3]
 1085 0046 0123     		movs	r3, #1
 1086 0048 1343     		orrs	r3, r2
 1087 004a C370     		strb	r3, [r0, #3]
 1088              	.L26:
 242:HindsightCAN/CANMotorUnit.c ****     }
 243:HindsightCAN/CANMotorUnit.c **** }
 1089              		.loc 1 243 0
 1090              		@ sp needed
 1091              	.LVL150:
 1092 004c F8BD     		pop	{r3, r4, r5, r6, r7, pc}
 1093              		.cfi_endproc
 1094              	.LFE25:
 1095              		.size	AssembleEncoderInitializePacket, .-AssembleEncoderInitializePacket
 1096 004e C046     		.section	.text.GetEncoderTypeFromPacket,"ax",%progbits
 1097              		.align	2
 1098              		.global	GetEncoderTypeFromPacket
 1099              		.code	16
 1100              		.thumb_func
 1101              		.type	GetEncoderTypeFromPacket, %function
 1102              	GetEncoderTypeFromPacket:
 1103              	.LFB26:
 244:HindsightCAN/CANMotorUnit.c **** 
 245:HindsightCAN/CANMotorUnit.c **** uint8_t GetEncoderTypeFromPacket(CANPacket *packet)
 246:HindsightCAN/CANMotorUnit.c **** {
 1104              		.loc 1 246 0
 1105              		.cfi_startproc
 1106              		@ args = 0, pretend = 0, frame = 0
 1107              		@ frame_needed = 0, uses_anonymous_args = 0
 1108              		@ link register save eliminated.
 1109              	.LVL151:
 247:HindsightCAN/CANMotorUnit.c ****     return(packet->data[1] & 0b100);
 1110              		.loc 1 247 0
 1111 0000 0379     		ldrb	r3, [r0, #4]
 1112 0002 0420     		movs	r0, #4
 1113              	.LVL152:
 1114 0004 1840     		ands	r0, r3
 248:HindsightCAN/CANMotorUnit.c **** }
 1115              		.loc 1 248 0
 1116              		@ sp needed
 1117 0006 7047     		bx	lr
 1118              		.cfi_endproc
 1119              	.LFE26:
 1120              		.size	GetEncoderTypeFromPacket, .-GetEncoderTypeFromPacket
ARM GAS  C:\Users\Min\AppData\Local\Temp\ccpI1cwC.s 			page 25


 1121              		.section	.text.GetEncoderDirectionFromPacket,"ax",%progbits
 1122              		.align	2
 1123              		.global	GetEncoderDirectionFromPacket
 1124              		.code	16
 1125              		.thumb_func
 1126              		.type	GetEncoderDirectionFromPacket, %function
 1127              	GetEncoderDirectionFromPacket:
 1128              	.LFB27:
 249:HindsightCAN/CANMotorUnit.c **** uint8_t GetEncoderDirectionFromPacket(CANPacket *packet)
 250:HindsightCAN/CANMotorUnit.c **** {
 1129              		.loc 1 250 0
 1130              		.cfi_startproc
 1131              		@ args = 0, pretend = 0, frame = 0
 1132              		@ frame_needed = 0, uses_anonymous_args = 0
 1133              		@ link register save eliminated.
 1134              	.LVL153:
 251:HindsightCAN/CANMotorUnit.c ****     return(packet->data[1] & 0b010);
 1135              		.loc 1 251 0
 1136 0000 0379     		ldrb	r3, [r0, #4]
 1137 0002 0220     		movs	r0, #2
 1138              	.LVL154:
 1139 0004 1840     		ands	r0, r3
 252:HindsightCAN/CANMotorUnit.c **** }
 1140              		.loc 1 252 0
 1141              		@ sp needed
 1142 0006 7047     		bx	lr
 1143              		.cfi_endproc
 1144              	.LFE27:
 1145              		.size	GetEncoderDirectionFromPacket, .-GetEncoderDirectionFromPacket
 1146              		.section	.text.GetEncoderZeroFromPacket,"ax",%progbits
 1147              		.align	2
 1148              		.global	GetEncoderZeroFromPacket
 1149              		.code	16
 1150              		.thumb_func
 1151              		.type	GetEncoderZeroFromPacket, %function
 1152              	GetEncoderZeroFromPacket:
 1153              	.LFB28:
 253:HindsightCAN/CANMotorUnit.c **** uint8_t GetEncoderZeroFromPacket(CANPacket *packet)
 254:HindsightCAN/CANMotorUnit.c **** {
 1154              		.loc 1 254 0
 1155              		.cfi_startproc
 1156              		@ args = 0, pretend = 0, frame = 0
 1157              		@ frame_needed = 0, uses_anonymous_args = 0
 1158              		@ link register save eliminated.
 1159              	.LVL155:
 255:HindsightCAN/CANMotorUnit.c ****     return(packet->data[1] & 0b001);
 1160              		.loc 1 255 0
 1161 0000 0379     		ldrb	r3, [r0, #4]
 1162 0002 0120     		movs	r0, #1
 1163              	.LVL156:
 1164 0004 1840     		ands	r0, r3
 256:HindsightCAN/CANMotorUnit.c **** }
 1165              		.loc 1 256 0
 1166              		@ sp needed
 1167 0006 7047     		bx	lr
 1168              		.cfi_endproc
 1169              	.LFE28:
ARM GAS  C:\Users\Min\AppData\Local\Temp\ccpI1cwC.s 			page 26


 1170              		.size	GetEncoderZeroFromPacket, .-GetEncoderZeroFromPacket
 1171              		.section	.text.AssembleMaxPIDPWMPacket,"ax",%progbits
 1172              		.align	2
 1173              		.global	AssembleMaxPIDPWMPacket
 1174              		.code	16
 1175              		.thumb_func
 1176              		.type	AssembleMaxPIDPWMPacket, %function
 1177              	AssembleMaxPIDPWMPacket:
 1178              	.LFB29:
 257:HindsightCAN/CANMotorUnit.c **** 
 258:HindsightCAN/CANMotorUnit.c **** void AssembleMaxPIDPWMPacket(CANPacket *packetToAssemble, 
 259:HindsightCAN/CANMotorUnit.c ****     uint8_t targetDeviceGroup,
 260:HindsightCAN/CANMotorUnit.c ****     uint8_t targetDeviceSerial,
 261:HindsightCAN/CANMotorUnit.c ****     uint16_t PWMSetMax)
 262:HindsightCAN/CANMotorUnit.c ****     {
 1179              		.loc 1 262 0
 1180              		.cfi_startproc
 1181              		@ args = 0, pretend = 0, frame = 0
 1182              		@ frame_needed = 0, uses_anonymous_args = 0
 1183              	.LVL157:
 1184 0000 70B5     		push	{r4, r5, r6, lr}
 1185              		.cfi_def_cfa_offset 16
 1186              		.cfi_offset 4, -16
 1187              		.cfi_offset 5, -12
 1188              		.cfi_offset 6, -8
 1189              		.cfi_offset 14, -4
 1190 0002 0400     		movs	r4, r0
 1191 0004 1D00     		movs	r5, r3
 263:HindsightCAN/CANMotorUnit.c ****     packetToAssemble->id = ConstructCANID(PRIO_MOTOR_UNIT_MAX_PID_PWM, targetDeviceGroup, targetDev
 1192              		.loc 1 263 0
 1193 0006 0120     		movs	r0, #1
 1194              	.LVL158:
 1195 0008 FFF7FEFF 		bl	ConstructCANID
 1196              	.LVL159:
 1197 000c 2080     		strh	r0, [r4]
 264:HindsightCAN/CANMotorUnit.c ****     packetToAssemble->dlc = DLC_MOTOR_UNIT_MAX_PID_PWM;
 1198              		.loc 1 264 0
 1199 000e 0323     		movs	r3, #3
 1200 0010 A370     		strb	r3, [r4, #2]
 265:HindsightCAN/CANMotorUnit.c ****     int nextByte = WritePacketIDOnly(packetToAssemble->data, DLC_MOTOR_UNIT_MAX_PID_PWM);
 1201              		.loc 1 265 0
 1202 0012 0334     		adds	r4, r4, #3
 1203              	.LVL160:
 1204 0014 0321     		movs	r1, #3
 1205 0016 2000     		movs	r0, r4
 1206 0018 FFF7FEFF 		bl	WritePacketIDOnly
 1207              	.LVL161:
 1208 001c 0200     		movs	r2, r0
 1209              	.LVL162:
 266:HindsightCAN/CANMotorUnit.c ****     PackShortIntoDataMSBFirst(packetToAssemble->data, PWMSetMax, nextByte);
 1210              		.loc 1 266 0
 1211 001e 29B2     		sxth	r1, r5
 1212 0020 2000     		movs	r0, r4
 1213              	.LVL163:
 1214 0022 FFF7FEFF 		bl	PackShortIntoDataMSBFirst
 1215              	.LVL164:
 267:HindsightCAN/CANMotorUnit.c **** }
ARM GAS  C:\Users\Min\AppData\Local\Temp\ccpI1cwC.s 			page 27


 1216              		.loc 1 267 0
 1217              		@ sp needed
 1218              	.LVL165:
 1219 0026 70BD     		pop	{r4, r5, r6, pc}
 1220              		.cfi_endproc
 1221              	.LFE29:
 1222              		.size	AssembleMaxPIDPWMPacket, .-AssembleMaxPIDPWMPacket
 1223              		.section	.text.GetMaxPIDPWMFromPacket,"ax",%progbits
 1224              		.align	2
 1225              		.global	GetMaxPIDPWMFromPacket
 1226              		.code	16
 1227              		.thumb_func
 1228              		.type	GetMaxPIDPWMFromPacket, %function
 1229              	GetMaxPIDPWMFromPacket:
 1230              	.LFB30:
 268:HindsightCAN/CANMotorUnit.c **** 
 269:HindsightCAN/CANMotorUnit.c **** uint16_t GetMaxPIDPWMFromPacket(CANPacket *packet){
 1231              		.loc 1 269 0
 1232              		.cfi_startproc
 1233              		@ args = 0, pretend = 0, frame = 0
 1234              		@ frame_needed = 0, uses_anonymous_args = 0
 1235              	.LVL166:
 1236 0000 10B5     		push	{r4, lr}
 1237              		.cfi_def_cfa_offset 8
 1238              		.cfi_offset 4, -8
 1239              		.cfi_offset 14, -4
 270:HindsightCAN/CANMotorUnit.c ****     return DecodeBytesToIntMSBFirst(packet->data, 1, 2);
 1240              		.loc 1 270 0
 1241 0002 0330     		adds	r0, r0, #3
 1242              	.LVL167:
 1243 0004 0222     		movs	r2, #2
 1244 0006 0121     		movs	r1, #1
 1245 0008 FFF7FEFF 		bl	DecodeBytesToIntMSBFirst
 1246              	.LVL168:
 1247 000c 80B2     		uxth	r0, r0
 271:HindsightCAN/CANMotorUnit.c **** }
 1248              		.loc 1 271 0
 1249              		@ sp needed
 1250 000e 10BD     		pop	{r4, pc}
 1251              		.cfi_endproc
 1252              	.LFE30:
 1253              		.size	GetMaxPIDPWMFromPacket, .-GetMaxPIDPWMFromPacket
 1254              		.text
 1255              	.Letext0:
 1256              		.file 2 "c:\\program files (x86)\\cypress\\psoc creator\\4.4\\psoc creator\\import\\gnu\\arm\\5.4.
 1257              		.file 3 "c:\\program files (x86)\\cypress\\psoc creator\\4.4\\psoc creator\\import\\gnu\\arm\\5.4.
 1258              		.file 4 "HindsightCAN\\CANPacket.h"