ARM GAS  C:\Users\Min\AppData\Local\Temp\ccytjKve.s 			page 1


   1              		.syntax unified
   2              		.cpu cortex-m0
   3              		.fpu softvfp
   4              		.eabi_attribute 20, 1
   5              		.eabi_attribute 21, 1
   6              		.eabi_attribute 23, 3
   7              		.eabi_attribute 24, 1
   8              		.eabi_attribute 25, 1
   9              		.eabi_attribute 26, 1
  10              		.eabi_attribute 30, 1
  11              		.eabi_attribute 34, 0
  12              		.eabi_attribute 18, 4
  13              		.thumb
  14              		.syntax unified
  15              		.file	"CANScience.c"
  16              		.text
  17              	.Ltext0:
  18              		.cfi_sections	.debug_frame
  19              		.section	.text.AssembleScienceLazySusanPosSetPacket,"ax",%progbits
  20              		.align	2
  21              		.global	AssembleScienceLazySusanPosSetPacket
  22              		.code	16
  23              		.thumb_func
  24              		.type	AssembleScienceLazySusanPosSetPacket, %function
  25              	AssembleScienceLazySusanPosSetPacket:
  26              	.LFB0:
  27              		.file 1 "HindsightCAN-master\\CANScience.c"
   1:HindsightCAN-master/CANScience.c **** #include "CANPacket.h"
   2:HindsightCAN-master/CANScience.c **** #include "CANCommon.h"
   3:HindsightCAN-master/CANScience.c **** #include "CANScience.h"
   4:HindsightCAN-master/CANScience.c **** #include "CANMotorUnit.h"
   5:HindsightCAN-master/CANScience.c **** 
   6:HindsightCAN-master/CANScience.c **** void AssembleScienceLazySusanPosSetPacket(CANPacket *packetToAssemble,
   7:HindsightCAN-master/CANScience.c **** 										  uint8_t targetDeviceGroup,
   8:HindsightCAN-master/CANScience.c **** 										  uint8_t targetDeviceSerial,
   9:HindsightCAN-master/CANScience.c **** 										  uint8_t position)
  10:HindsightCAN-master/CANScience.c **** {
  28              		.loc 1 10 0
  29              		.cfi_startproc
  30              		@ args = 0, pretend = 0, frame = 0
  31              		@ frame_needed = 0, uses_anonymous_args = 0
  32              	.LVL0:
  33 0000 70B5     		push	{r4, r5, r6, lr}
  34              		.cfi_def_cfa_offset 16
  35              		.cfi_offset 4, -16
  36              		.cfi_offset 5, -12
  37              		.cfi_offset 6, -8
  38              		.cfi_offset 14, -4
  39 0002 0400     		movs	r4, r0
  40 0004 1D00     		movs	r5, r3
  11:HindsightCAN-master/CANScience.c **** 	packetToAssemble->id = ConstructCANID(PACKET_PRIORITY_NORMAL, targetDeviceGroup, targetDeviceSeria
  41              		.loc 1 11 0
  42 0006 0120     		movs	r0, #1
  43              	.LVL1:
  44 0008 FFF7FEFF 		bl	ConstructCANID
  45              	.LVL2:
  46 000c 2080     		strh	r0, [r4]
ARM GAS  C:\Users\Min\AppData\Local\Temp\ccytjKve.s 			page 2


  12:HindsightCAN-master/CANScience.c **** 	packetToAssemble->dlc = 2;
  47              		.loc 1 12 0
  48 000e 0223     		movs	r3, #2
  49 0010 A370     		strb	r3, [r4, #2]
  13:HindsightCAN-master/CANScience.c **** 	WritePacketIDOnly(packetToAssemble->data, ID_SCIENCE_LAZY_SUSAN_POS_SET);
  50              		.loc 1 13 0
  51 0012 E01C     		adds	r0, r4, #3
  52 0014 0C21     		movs	r1, #12
  53 0016 FFF7FEFF 		bl	WritePacketIDOnly
  54              	.LVL3:
  14:HindsightCAN-master/CANScience.c **** 	packetToAssemble->data[1] = position;
  55              		.loc 1 14 0
  56 001a 2571     		strb	r5, [r4, #4]
  15:HindsightCAN-master/CANScience.c **** }
  57              		.loc 1 15 0
  58              		@ sp needed
  59              	.LVL4:
  60 001c 70BD     		pop	{r4, r5, r6, pc}
  61              		.cfi_endproc
  62              	.LFE0:
  63              		.size	AssembleScienceLazySusanPosSetPacket, .-AssembleScienceLazySusanPosSetPacket
  64 001e C046     		.section	.text.AssembleScienceServoPacket,"ax",%progbits
  65              		.align	2
  66              		.global	AssembleScienceServoPacket
  67              		.code	16
  68              		.thumb_func
  69              		.type	AssembleScienceServoPacket, %function
  70              	AssembleScienceServoPacket:
  71              	.LFB1:
  16:HindsightCAN-master/CANScience.c **** 
  17:HindsightCAN-master/CANScience.c **** void AssembleScienceServoPacket(CANPacket *packetToAssemble,
  18:HindsightCAN-master/CANScience.c **** 	uint8_t targetGroup,
  19:HindsightCAN-master/CANScience.c **** 	uint8_t targetSerial,
  20:HindsightCAN-master/CANScience.c **** 	uint8_t servo,
  21:HindsightCAN-master/CANScience.c **** 	uint8_t degrees)
  22:HindsightCAN-master/CANScience.c **** {
  72              		.loc 1 22 0
  73              		.cfi_startproc
  74              		@ args = 4, pretend = 0, frame = 0
  75              		@ frame_needed = 0, uses_anonymous_args = 0
  76              	.LVL5:
  77 0000 70B5     		push	{r4, r5, r6, lr}
  78              		.cfi_def_cfa_offset 16
  79              		.cfi_offset 4, -16
  80              		.cfi_offset 5, -12
  81              		.cfi_offset 6, -8
  82              		.cfi_offset 14, -4
  83 0002 0400     		movs	r4, r0
  84 0004 1E00     		movs	r6, r3
  85 0006 04AB     		add	r3, sp, #16
  86              	.LVL6:
  87 0008 1D78     		ldrb	r5, [r3]
  23:HindsightCAN-master/CANScience.c **** 	packetToAssemble->id = ConstructCANID(PACKET_PRIORITY_NORMAL, targetGroup, targetSerial);
  88              		.loc 1 23 0
  89 000a 0120     		movs	r0, #1
  90              	.LVL7:
  91 000c FFF7FEFF 		bl	ConstructCANID
ARM GAS  C:\Users\Min\AppData\Local\Temp\ccytjKve.s 			page 3


  92              	.LVL8:
  93 0010 2080     		strh	r0, [r4]
  24:HindsightCAN-master/CANScience.c **** 	packetToAssemble->dlc = 3;
  94              		.loc 1 24 0
  95 0012 0323     		movs	r3, #3
  96 0014 A370     		strb	r3, [r4, #2]
  25:HindsightCAN-master/CANScience.c **** 	WritePacketIDOnly(packetToAssemble->data, ID_SCIENCE_SERVO_SET);
  97              		.loc 1 25 0
  98 0016 E01C     		adds	r0, r4, #3
  99 0018 0D21     		movs	r1, #13
 100 001a FFF7FEFF 		bl	WritePacketIDOnly
 101              	.LVL9:
  26:HindsightCAN-master/CANScience.c **** 	packetToAssemble->data[1] = servo;
 102              		.loc 1 26 0
 103 001e 2671     		strb	r6, [r4, #4]
  27:HindsightCAN-master/CANScience.c **** 	packetToAssemble->data[2] = degrees;
 104              		.loc 1 27 0
 105 0020 6571     		strb	r5, [r4, #5]
  28:HindsightCAN-master/CANScience.c **** }
 106              		.loc 1 28 0
 107              		@ sp needed
 108              	.LVL10:
 109 0022 70BD     		pop	{r4, r5, r6, pc}
 110              		.cfi_endproc
 111              	.LFE1:
 112              		.size	AssembleScienceServoPacket, .-AssembleScienceServoPacket
 113              		.section	.text.AssembleScienceContServoPowerSetPacket,"ax",%progbits
 114              		.align	2
 115              		.global	AssembleScienceContServoPowerSetPacket
 116              		.code	16
 117              		.thumb_func
 118              		.type	AssembleScienceContServoPowerSetPacket, %function
 119              	AssembleScienceContServoPowerSetPacket:
 120              	.LFB2:
  29:HindsightCAN-master/CANScience.c **** 
  30:HindsightCAN-master/CANScience.c **** void AssembleScienceContServoPowerSetPacket(CANPacket *packetToAssemble,
  31:HindsightCAN-master/CANScience.c **** 											uint8_t targetDeviceGroup,
  32:HindsightCAN-master/CANScience.c **** 											uint8_t targetDeviceSerial,
  33:HindsightCAN-master/CANScience.c **** 											uint8_t servo,
  34:HindsightCAN-master/CANScience.c **** 											int8_t power)
  35:HindsightCAN-master/CANScience.c **** {
 121              		.loc 1 35 0
 122              		.cfi_startproc
 123              		@ args = 4, pretend = 0, frame = 0
 124              		@ frame_needed = 0, uses_anonymous_args = 0
 125              	.LVL11:
 126 0000 70B5     		push	{r4, r5, r6, lr}
 127              		.cfi_def_cfa_offset 16
 128              		.cfi_offset 4, -16
 129              		.cfi_offset 5, -12
 130              		.cfi_offset 6, -8
 131              		.cfi_offset 14, -4
 132 0002 0400     		movs	r4, r0
 133 0004 1E00     		movs	r6, r3
 134 0006 04AB     		add	r3, sp, #16
 135              	.LVL12:
 136 0008 0025     		movs	r5, #0
ARM GAS  C:\Users\Min\AppData\Local\Temp\ccytjKve.s 			page 4


 137 000a 5D57     		ldrsb	r5, [r3, r5]
  36:HindsightCAN-master/CANScience.c **** 	packetToAssemble->id = ConstructCANID(PACKET_PRIORITY_NORMAL, targetDeviceGroup, targetDeviceSeria
 138              		.loc 1 36 0
 139 000c 0120     		movs	r0, #1
 140              	.LVL13:
 141 000e FFF7FEFF 		bl	ConstructCANID
 142              	.LVL14:
 143 0012 2080     		strh	r0, [r4]
  37:HindsightCAN-master/CANScience.c **** 	packetToAssemble->dlc = 3;
 144              		.loc 1 37 0
 145 0014 0323     		movs	r3, #3
 146 0016 A370     		strb	r3, [r4, #2]
  38:HindsightCAN-master/CANScience.c **** 	WritePacketIDOnly(packetToAssemble->data, ID_SCIENCE_CONT_SERVO_POWER_SET);
 147              		.loc 1 38 0
 148 0018 E01C     		adds	r0, r4, #3
 149 001a 0E21     		movs	r1, #14
 150 001c FFF7FEFF 		bl	WritePacketIDOnly
 151              	.LVL15:
  39:HindsightCAN-master/CANScience.c **** 	packetToAssemble->data[1] = servo;
 152              		.loc 1 39 0
 153 0020 2671     		strb	r6, [r4, #4]
  40:HindsightCAN-master/CANScience.c **** 	packetToAssemble->data[2] = power;
 154              		.loc 1 40 0
 155 0022 6571     		strb	r5, [r4, #5]
  41:HindsightCAN-master/CANScience.c **** }
 156              		.loc 1 41 0
 157              		@ sp needed
 158              	.LVL16:
 159 0024 70BD     		pop	{r4, r5, r6, pc}
 160              		.cfi_endproc
 161              	.LFE2:
 162              		.size	AssembleScienceContServoPowerSetPacket, .-AssembleScienceContServoPowerSetPacket
 163 0026 C046     		.section	.text.GetScienceContServoPowerFromPacket,"ax",%progbits
 164              		.align	2
 165              		.global	GetScienceContServoPowerFromPacket
 166              		.code	16
 167              		.thumb_func
 168              		.type	GetScienceContServoPowerFromPacket, %function
 169              	GetScienceContServoPowerFromPacket:
 170              	.LFB3:
  42:HindsightCAN-master/CANScience.c **** 
  43:HindsightCAN-master/CANScience.c **** int8_t GetScienceContServoPowerFromPacket(const CANPacket *packet) {
 171              		.loc 1 43 0
 172              		.cfi_startproc
 173              		@ args = 0, pretend = 0, frame = 0
 174              		@ frame_needed = 0, uses_anonymous_args = 0
 175              		@ link register save eliminated.
 176              	.LVL17:
  44:HindsightCAN-master/CANScience.c **** 	return packet->data[2];
 177              		.loc 1 44 0
 178 0000 4079     		ldrb	r0, [r0, #5]
 179              	.LVL18:
 180 0002 40B2     		sxtb	r0, r0
  45:HindsightCAN-master/CANScience.c **** }
 181              		.loc 1 45 0
 182              		@ sp needed
 183 0004 7047     		bx	lr
ARM GAS  C:\Users\Min\AppData\Local\Temp\ccytjKve.s 			page 5


 184              		.cfi_endproc
 185              	.LFE3:
 186              		.size	GetScienceContServoPowerFromPacket, .-GetScienceContServoPowerFromPacket
 187 0006 C046     		.section	.text.GetScienceServoAngleFromPacket,"ax",%progbits
 188              		.align	2
 189              		.global	GetScienceServoAngleFromPacket
 190              		.code	16
 191              		.thumb_func
 192              		.type	GetScienceServoAngleFromPacket, %function
 193              	GetScienceServoAngleFromPacket:
 194              	.LFB4:
  46:HindsightCAN-master/CANScience.c **** 
  47:HindsightCAN-master/CANScience.c **** uint8_t GetScienceServoAngleFromPacket(const CANPacket *packet){
 195              		.loc 1 47 0
 196              		.cfi_startproc
 197              		@ args = 0, pretend = 0, frame = 0
 198              		@ frame_needed = 0, uses_anonymous_args = 0
 199              		@ link register save eliminated.
 200              	.LVL19:
  48:HindsightCAN-master/CANScience.c **** 	return packet->data[2];
 201              		.loc 1 48 0
 202 0000 4079     		ldrb	r0, [r0, #5]
 203              	.LVL20:
  49:HindsightCAN-master/CANScience.c **** }
 204              		.loc 1 49 0
 205              		@ sp needed
 206 0002 7047     		bx	lr
 207              		.cfi_endproc
 208              	.LFE4:
 209              		.size	GetScienceServoAngleFromPacket, .-GetScienceServoAngleFromPacket
 210              		.section	.text.GetScienceLazySusanPosFromPacket,"ax",%progbits
 211              		.align	2
 212              		.global	GetScienceLazySusanPosFromPacket
 213              		.code	16
 214              		.thumb_func
 215              		.type	GetScienceLazySusanPosFromPacket, %function
 216              	GetScienceLazySusanPosFromPacket:
 217              	.LFB5:
  50:HindsightCAN-master/CANScience.c **** 
  51:HindsightCAN-master/CANScience.c **** uint8_t GetScienceLazySusanPosFromPacket(const CANPacket *packet) {
 218              		.loc 1 51 0
 219              		.cfi_startproc
 220              		@ args = 0, pretend = 0, frame = 0
 221              		@ frame_needed = 0, uses_anonymous_args = 0
 222              		@ link register save eliminated.
 223              	.LVL21:
  52:HindsightCAN-master/CANScience.c ****     return packet->data[1];
 224              		.loc 1 52 0
 225 0000 0079     		ldrb	r0, [r0, #4]
 226              	.LVL22:
  53:HindsightCAN-master/CANScience.c **** }
 227              		.loc 1 53 0
 228              		@ sp needed
 229 0002 7047     		bx	lr
 230              		.cfi_endproc
 231              	.LFE5:
 232              		.size	GetScienceLazySusanPosFromPacket, .-GetScienceLazySusanPosFromPacket
ARM GAS  C:\Users\Min\AppData\Local\Temp\ccytjKve.s 			page 6


 233              		.section	.text.GetScienceServoIDFromPacket,"ax",%progbits
 234              		.align	2
 235              		.global	GetScienceServoIDFromPacket
 236              		.code	16
 237              		.thumb_func
 238              		.type	GetScienceServoIDFromPacket, %function
 239              	GetScienceServoIDFromPacket:
 240              	.LFB6:
  54:HindsightCAN-master/CANScience.c **** 
  55:HindsightCAN-master/CANScience.c **** uint8_t GetScienceServoIDFromPacket(const CANPacket *packet){
 241              		.loc 1 55 0
 242              		.cfi_startproc
 243              		@ args = 0, pretend = 0, frame = 0
 244              		@ frame_needed = 0, uses_anonymous_args = 0
 245              		@ link register save eliminated.
 246              	.LVL23:
  56:HindsightCAN-master/CANScience.c **** 	return packet->data[1];
 247              		.loc 1 56 0
 248 0000 0079     		ldrb	r0, [r0, #4]
 249              	.LVL24:
  57:HindsightCAN-master/CANScience.c **** }
 250              		.loc 1 57 0
 251              		@ sp needed
 252 0002 7047     		bx	lr
 253              		.cfi_endproc
 254              	.LFE6:
 255              		.size	GetScienceServoIDFromPacket, .-GetScienceServoIDFromPacket
 256              		.text
 257              	.Letext0:
 258              		.file 2 "c:\\program files (x86)\\cypress\\psoc creator\\4.4\\psoc creator\\import\\gnu\\arm\\5.4.
 259              		.file 3 "c:\\program files (x86)\\cypress\\psoc creator\\4.4\\psoc creator\\import\\gnu\\arm\\5.4.
 260              		.file 4 "HindsightCAN-master\\CANPacket.h"