ARM GAS  C:\Users\DAVISS~1\AppData\Local\Temp\ccr8iJqP.s 			page 1


   1              		.syntax unified
   2              		.cpu cortex-m0
   3              		.fpu softvfp
   4              		.eabi_attribute 20, 1
   5              		.eabi_attribute 21, 1
   6              		.eabi_attribute 23, 3
   7              		.eabi_attribute 24, 1
   8              		.eabi_attribute 25, 1
   9              		.eabi_attribute 26, 1
  10              		.eabi_attribute 30, 1
  11              		.eabi_attribute 34, 0
  12              		.eabi_attribute 18, 4
  13              		.thumb
  14              		.syntax unified
  15              		.file	"bno_i2c.c"
  16              		.text
  17              	.Ltext0:
  18              		.cfi_sections	.debug_frame
  19              		.section	.text.bno055_init,"ax",%progbits
  20              		.align	2
  21              		.global	bno055_init
  22              		.code	16
  23              		.thumb_func
  24              		.type	bno055_init, %function
  25              	bno055_init:
  26              	.LFB34:
  27              		.file 1 "BNO055-Sensor-Driver\\bno_i2c.c"
   1:BNO055-Sensor-Driver/bno_i2c.c **** #ifndef bno_i2c_C
   2:BNO055-Sensor-Driver/bno_i2c.c **** #define bno_i2c_C
   3:BNO055-Sensor-Driver/bno_i2c.c **** 
   4:BNO055-Sensor-Driver/bno_i2c.c **** #include "project.h"
   5:BNO055-Sensor-Driver/bno_i2c.c **** #include "bno_i2c.h"
   6:BNO055-Sensor-Driver/bno_i2c.c **** #include "support.h"
   7:BNO055-Sensor-Driver/bno_i2c.c ****    
   8:BNO055-Sensor-Driver/bno_i2c.c **** static struct bno055_t *p_bno055;
   9:BNO055-Sensor-Driver/bno_i2c.c **** /*Most of the interactions with the bno055 is by communicating with registers. Thus, functions that
  10:BNO055-Sensor-Driver/bno_i2c.c ****   registers will follow the same pattern of:
  11:BNO055-Sensor-Driver/bno_i2c.c ****    1) checking if the struct is empty
  12:BNO055-Sensor-Driver/bno_i2c.c ****    2) checking if the page id is correct
  13:BNO055-Sensor-Driver/bno_i2c.c ****    3) accessing the register and reading information by passing in the desired register address and
  14:BNO055-Sensor-Driver/bno_i2c.c ****       communicating with the I2C by reading the information bit by bit and storing them in a buffer
  15:BNO055-Sensor-Driver/bno_i2c.c ****       the I2C can use (support.c shows the functions that do this)
  16:BNO055-Sensor-Driver/bno_i2c.c ****    4) returning a success or error depending on if the checks succeed or fail*/
  17:BNO055-Sensor-Driver/bno_i2c.c ****    
  18:BNO055-Sensor-Driver/bno_i2c.c **** BNO055_RETURN_FUNCTION_TYPE bno055_init(struct bno055_t *bno055)
  19:BNO055-Sensor-Driver/bno_i2c.c **** {
  28              		.loc 1 19 0
  29              		.cfi_startproc
  30              		@ args = 0, pretend = 0, frame = 8
  31              		@ frame_needed = 0, uses_anonymous_args = 0
  32              	.LVL0:
  33 0000 F0B5     		push	{r4, r5, r6, r7, lr}
  34              		.cfi_def_cfa_offset 20
  35              		.cfi_offset 4, -20
  36              		.cfi_offset 5, -16
  37              		.cfi_offset 6, -12
  38              		.cfi_offset 7, -8
ARM GAS  C:\Users\DAVISS~1\AppData\Local\Temp\ccr8iJqP.s 			page 2


  39              		.cfi_offset 14, -4
  40 0002 83B0     		sub	sp, sp, #12
  41              		.cfi_def_cfa_offset 32
  42              	.LVL1:
  20:BNO055-Sensor-Driver/bno_i2c.c ****     /* Variable used to return value of communication routine*/
  21:BNO055-Sensor-Driver/bno_i2c.c ****     BNO055_RETURN_FUNCTION_TYPE com_rslt = BNO055_ERROR;
  22:BNO055-Sensor-Driver/bno_i2c.c **** 
  23:BNO055-Sensor-Driver/bno_i2c.c ****     u8 data_u8 = BNO055_INIT_VALUE;
  43              		.loc 1 23 0
  44 0004 6B46     		mov	r3, sp
  45 0006 DD1D     		adds	r5, r3, #7
  46 0008 0023     		movs	r3, #0
  47 000a 2B70     		strb	r3, [r5]
  24:BNO055-Sensor-Driver/bno_i2c.c ****     u8 bno055_page_zero_u8 = BNO055_PAGE_ZERO;
  48              		.loc 1 24 0
  49 000c 6A46     		mov	r2, sp
  50 000e 0632     		adds	r2, r2, #6
  51 0010 1370     		strb	r3, [r2]
  25:BNO055-Sensor-Driver/bno_i2c.c **** 
  26:BNO055-Sensor-Driver/bno_i2c.c ****     /* stuct parameters are assign to bno055*/
  27:BNO055-Sensor-Driver/bno_i2c.c ****     p_bno055 = bno055;
  52              		.loc 1 27 0
  53 0012 174E     		ldr	r6, .L4
  54 0014 3060     		str	r0, [r6]
  28:BNO055-Sensor-Driver/bno_i2c.c ****     p_bno055->bus_write = &BNO055_I2C_bus_write ; 
  55              		.loc 1 28 0
  56 0016 174B     		ldr	r3, .L4+4
  57 0018 C360     		str	r3, [r0, #12]
  29:BNO055-Sensor-Driver/bno_i2c.c ****     p_bno055->bus_read = &BNO055_I2C_bus_read ;
  58              		.loc 1 29 0
  59 001a 174B     		ldr	r3, .L4+8
  60 001c 0361     		str	r3, [r0, #16]
  30:BNO055-Sensor-Driver/bno_i2c.c ****     
  31:BNO055-Sensor-Driver/bno_i2c.c **** 
  32:BNO055-Sensor-Driver/bno_i2c.c ****     /* Write the default page as zero*/
  33:BNO055-Sensor-Driver/bno_i2c.c **** 
  34:BNO055-Sensor-Driver/bno_i2c.c ****     com_rslt = p_bno055->bus_write(p_bno055->dev_addr,BNO055_PAGE_ID_REG,&bno055_page_zero_u8,BNO05
  61              		.loc 1 34 0
  62 001e 407A     		ldrb	r0, [r0, #9]
  63              	.LVL2:
  64 0020 0123     		movs	r3, #1
  65 0022 0721     		movs	r1, #7
  66 0024 FFF7FEFF 		bl	BNO055_I2C_bus_write
  67              	.LVL3:
  68 0028 0400     		movs	r4, r0
  69              	.LVL4:
  35:BNO055-Sensor-Driver/bno_i2c.c ****     //com_rslt = imu_bno055_I2CMasterWriteBuf(BNO055_PAGE_ID_REG, &data_u8, BNO055_GEN_READ_WRITE_L
  36:BNO055-Sensor-Driver/bno_i2c.c ****   
  37:BNO055-Sensor-Driver/bno_i2c.c ****     //I2C_UART_UartPutString(" Default page Successfully Written,");
  38:BNO055-Sensor-Driver/bno_i2c.c ****     /* Read the chip id of the sensor from page zero 0x00 register*/
  39:BNO055-Sensor-Driver/bno_i2c.c **** 
  40:BNO055-Sensor-Driver/bno_i2c.c ****     com_rslt += p_bno055->bus_read(p_bno055->dev_addr,BNO055_CHIP_ID_ADDR,&data_u8, BNO055_GEN_READ
  70              		.loc 1 40 0
  71 002a 3368     		ldr	r3, [r6]
  72 002c 1F69     		ldr	r7, [r3, #16]
  73 002e 587A     		ldrb	r0, [r3, #9]
  74 0030 0123     		movs	r3, #1
ARM GAS  C:\Users\DAVISS~1\AppData\Local\Temp\ccr8iJqP.s 			page 3


  75 0032 2A00     		movs	r2, r5
  76 0034 0021     		movs	r1, #0
  77 0036 B847     		blx	r7
  78              	.LVL5:
  79 0038 0419     		adds	r4, r0, r4
  80              	.LVL6:
  81 003a E4B2     		uxtb	r4, r4
  82              	.LVL7:
  41:BNO055-Sensor-Driver/bno_i2c.c ****     p_bno055->chip_id = data_u8;
  83              		.loc 1 41 0
  84 003c 3368     		ldr	r3, [r6]
  85 003e 2A78     		ldrb	r2, [r5]
  86 0040 1A70     		strb	r2, [r3]
  42:BNO055-Sensor-Driver/bno_i2c.c **** 
  43:BNO055-Sensor-Driver/bno_i2c.c ****     /* Read the page id from the register 0x07*/
  44:BNO055-Sensor-Driver/bno_i2c.c **** 
  45:BNO055-Sensor-Driver/bno_i2c.c ****     com_rslt += p_bno055->bus_read(p_bno055->dev_addr,BNO055_PAGE_ID_REG,&data_u8,BNO055_GEN_READ_W
  87              		.loc 1 45 0
  88 0042 1F69     		ldr	r7, [r3, #16]
  89 0044 587A     		ldrb	r0, [r3, #9]
  90 0046 0123     		movs	r3, #1
  91 0048 2A00     		movs	r2, r5
  92 004a 0721     		movs	r1, #7
  93 004c B847     		blx	r7
  94              	.LVL8:
  95 004e 2018     		adds	r0, r4, r0
  96 0050 44B2     		sxtb	r4, r0
  97              	.LVL9:
  46:BNO055-Sensor-Driver/bno_i2c.c ****     p_bno055->page_id = data_u8;
  98              		.loc 1 46 0
  99 0052 3368     		ldr	r3, [r6]
 100 0054 2A78     		ldrb	r2, [r5]
 101 0056 1A71     		strb	r2, [r3, #4]
  47:BNO055-Sensor-Driver/bno_i2c.c ****     
  48:BNO055-Sensor-Driver/bno_i2c.c ****     if(com_rslt == BNO055_ERROR){
 102              		.loc 1 48 0
 103 0058 631C     		adds	r3, r4, #1
 104 005a 03D1     		bne	.L2
 105              	.LBB2:
  49:BNO055-Sensor-Driver/bno_i2c.c ****      I2C_UART_UartPutString(" Initalization failed,");   
 106              		.loc 1 49 0
 107 005c 0748     		ldr	r0, .L4+12
 108 005e FFF7FEFF 		bl	I2C_UART_UartPutString
 109              	.LVL10:
 110              	.LBE2:
 111 0062 02E0     		b	.L3
 112              	.L2:
 113              	.LBB3:
  50:BNO055-Sensor-Driver/bno_i2c.c ****     } else {
  51:BNO055-Sensor-Driver/bno_i2c.c ****      I2C_UART_UartPutString(" Initalization Success,");   
 114              		.loc 1 51 0
 115 0064 0648     		ldr	r0, .L4+16
 116 0066 FFF7FEFF 		bl	I2C_UART_UartPutString
 117              	.LVL11:
 118              	.L3:
 119              	.LBE3:
  52:BNO055-Sensor-Driver/bno_i2c.c ****     }
ARM GAS  C:\Users\DAVISS~1\AppData\Local\Temp\ccr8iJqP.s 			page 4


  53:BNO055-Sensor-Driver/bno_i2c.c ****     
  54:BNO055-Sensor-Driver/bno_i2c.c ****     return com_rslt;
  55:BNO055-Sensor-Driver/bno_i2c.c **** }
 120              		.loc 1 55 0
 121 006a 2000     		movs	r0, r4
 122 006c 03B0     		add	sp, sp, #12
 123              		@ sp needed
 124              	.LVL12:
 125 006e F0BD     		pop	{r4, r5, r6, r7, pc}
 126              	.L5:
 127              		.align	2
 128              	.L4:
 129 0070 00000000 		.word	.LANCHOR0
 130 0074 00000000 		.word	BNO055_I2C_bus_write
 131 0078 00000000 		.word	BNO055_I2C_bus_read
 132 007c 00000000 		.word	.LC3
 133 0080 18000000 		.word	.LC5
 134              		.cfi_endproc
 135              	.LFE34:
 136              		.size	bno055_init, .-bno055_init
 137              		.section	.text.bno055_write_register,"ax",%progbits
 138              		.align	2
 139              		.global	bno055_write_register
 140              		.code	16
 141              		.thumb_func
 142              		.type	bno055_write_register, %function
 143              	bno055_write_register:
 144              	.LFB35:
  56:BNO055-Sensor-Driver/bno_i2c.c **** 
  57:BNO055-Sensor-Driver/bno_i2c.c **** BNO055_RETURN_FUNCTION_TYPE bno055_write_register(u8 addr_u8, u8 *data_u8, u8 len_u8)
  58:BNO055-Sensor-Driver/bno_i2c.c **** {
 145              		.loc 1 58 0
 146              		.cfi_startproc
 147              		@ args = 0, pretend = 0, frame = 0
 148              		@ frame_needed = 0, uses_anonymous_args = 0
 149              	.LVL13:
 150 0000 70B5     		push	{r4, r5, r6, lr}
 151              		.cfi_def_cfa_offset 16
 152              		.cfi_offset 4, -16
 153              		.cfi_offset 5, -12
 154              		.cfi_offset 6, -8
 155              		.cfi_offset 14, -4
 156 0002 0500     		movs	r5, r0
 157              	.LVL14:
  59:BNO055-Sensor-Driver/bno_i2c.c ****     /* Variable used to return value of communication routine*/
  60:BNO055-Sensor-Driver/bno_i2c.c ****     BNO055_RETURN_FUNCTION_TYPE com_rslt = BNO055_ERROR;
  61:BNO055-Sensor-Driver/bno_i2c.c **** 
  62:BNO055-Sensor-Driver/bno_i2c.c ****     /* Check the struct p_bno055 is empty */
  63:BNO055-Sensor-Driver/bno_i2c.c ****     if (p_bno055 == NULL)
 158              		.loc 1 63 0
 159 0004 064C     		ldr	r4, .L9
 160 0006 2468     		ldr	r4, [r4]
 161 0008 002C     		cmp	r4, #0
 162 000a 06D0     		beq	.L8
  64:BNO055-Sensor-Driver/bno_i2c.c ****     {
  65:BNO055-Sensor-Driver/bno_i2c.c ****         return BNO055_E_NULL_PTR;
  66:BNO055-Sensor-Driver/bno_i2c.c ****     }
ARM GAS  C:\Users\DAVISS~1\AppData\Local\Temp\ccr8iJqP.s 			page 5


  67:BNO055-Sensor-Driver/bno_i2c.c ****     else
  68:BNO055-Sensor-Driver/bno_i2c.c ****     {
  69:BNO055-Sensor-Driver/bno_i2c.c ****         /* Write the values of respective given register */
  70:BNO055-Sensor-Driver/bno_i2c.c ****         com_rslt = p_bno055->bus_write(p_bno055->dev_addr, addr_u8, data_u8, len_u8);        
 163              		.loc 1 70 0
 164 000c E668     		ldr	r6, [r4, #12]
 165 000e 607A     		ldrb	r0, [r4, #9]
 166              	.LVL15:
 167 0010 1300     		movs	r3, r2
 168 0012 0A00     		movs	r2, r1
 169              	.LVL16:
 170 0014 2900     		movs	r1, r5
 171              	.LVL17:
 172 0016 B047     		blx	r6
 173              	.LVL18:
  71:BNO055-Sensor-Driver/bno_i2c.c ****     }
  72:BNO055-Sensor-Driver/bno_i2c.c **** 
  73:BNO055-Sensor-Driver/bno_i2c.c ****     return com_rslt;
 174              		.loc 1 73 0
 175 0018 01E0     		b	.L7
 176              	.LVL19:
 177              	.L8:
  65:BNO055-Sensor-Driver/bno_i2c.c ****     }
 178              		.loc 1 65 0
 179 001a 7F20     		movs	r0, #127
 180              	.LVL20:
 181 001c 4042     		rsbs	r0, r0, #0
 182              	.LVL21:
 183              	.L7:
  74:BNO055-Sensor-Driver/bno_i2c.c **** }
 184              		.loc 1 74 0
 185              		@ sp needed
 186 001e 70BD     		pop	{r4, r5, r6, pc}
 187              	.L10:
 188              		.align	2
 189              	.L9:
 190 0020 00000000 		.word	.LANCHOR0
 191              		.cfi_endproc
 192              	.LFE35:
 193              		.size	bno055_write_register, .-bno055_write_register
 194              		.section	.text.bno055_read_register,"ax",%progbits
 195              		.align	2
 196              		.global	bno055_read_register
 197              		.code	16
 198              		.thumb_func
 199              		.type	bno055_read_register, %function
 200              	bno055_read_register:
 201              	.LFB36:
  75:BNO055-Sensor-Driver/bno_i2c.c **** 
  76:BNO055-Sensor-Driver/bno_i2c.c **** BNO055_RETURN_FUNCTION_TYPE bno055_read_register(u8 addr_u8, u8 *data_u8, u8 len_u8)
  77:BNO055-Sensor-Driver/bno_i2c.c **** {
 202              		.loc 1 77 0
 203              		.cfi_startproc
 204              		@ args = 0, pretend = 0, frame = 0
 205              		@ frame_needed = 0, uses_anonymous_args = 0
 206              	.LVL22:
 207 0000 70B5     		push	{r4, r5, r6, lr}
ARM GAS  C:\Users\DAVISS~1\AppData\Local\Temp\ccr8iJqP.s 			page 6


 208              		.cfi_def_cfa_offset 16
 209              		.cfi_offset 4, -16
 210              		.cfi_offset 5, -12
 211              		.cfi_offset 6, -8
 212              		.cfi_offset 14, -4
 213 0002 0500     		movs	r5, r0
 214              	.LVL23:
  78:BNO055-Sensor-Driver/bno_i2c.c ****     /* Variable used to return value of communication routine*/
  79:BNO055-Sensor-Driver/bno_i2c.c ****     BNO055_RETURN_FUNCTION_TYPE com_rslt = BNO055_ERROR;
  80:BNO055-Sensor-Driver/bno_i2c.c **** 
  81:BNO055-Sensor-Driver/bno_i2c.c ****     /* Check the struct p_bno055 is empty */
  82:BNO055-Sensor-Driver/bno_i2c.c ****     if (p_bno055 == NULL)
 215              		.loc 1 82 0
 216 0004 064C     		ldr	r4, .L14
 217 0006 2468     		ldr	r4, [r4]
 218 0008 002C     		cmp	r4, #0
 219 000a 06D0     		beq	.L13
  83:BNO055-Sensor-Driver/bno_i2c.c ****     {
  84:BNO055-Sensor-Driver/bno_i2c.c ****         return BNO055_E_NULL_PTR;
  85:BNO055-Sensor-Driver/bno_i2c.c ****     }
  86:BNO055-Sensor-Driver/bno_i2c.c ****     else
  87:BNO055-Sensor-Driver/bno_i2c.c ****     {
  88:BNO055-Sensor-Driver/bno_i2c.c ****         /* Read the value from given register*/
  89:BNO055-Sensor-Driver/bno_i2c.c **** 
  90:BNO055-Sensor-Driver/bno_i2c.c ****         com_rslt = p_bno055->bus_read(p_bno055->dev_addr, addr_u8, data_u8, len_u8); 
 220              		.loc 1 90 0
 221 000c 2669     		ldr	r6, [r4, #16]
 222 000e 607A     		ldrb	r0, [r4, #9]
 223              	.LVL24:
 224 0010 1300     		movs	r3, r2
 225 0012 0A00     		movs	r2, r1
 226              	.LVL25:
 227 0014 2900     		movs	r1, r5
 228              	.LVL26:
 229 0016 B047     		blx	r6
 230              	.LVL27:
  91:BNO055-Sensor-Driver/bno_i2c.c ****     }
  92:BNO055-Sensor-Driver/bno_i2c.c **** 
  93:BNO055-Sensor-Driver/bno_i2c.c ****     return com_rslt;
 231              		.loc 1 93 0
 232 0018 01E0     		b	.L12
 233              	.LVL28:
 234              	.L13:
  84:BNO055-Sensor-Driver/bno_i2c.c ****     }
 235              		.loc 1 84 0
 236 001a 7F20     		movs	r0, #127
 237              	.LVL29:
 238 001c 4042     		rsbs	r0, r0, #0
 239              	.LVL30:
 240              	.L12:
  94:BNO055-Sensor-Driver/bno_i2c.c **** }
 241              		.loc 1 94 0
 242              		@ sp needed
 243 001e 70BD     		pop	{r4, r5, r6, pc}
 244              	.L15:
 245              		.align	2
 246              	.L14:
ARM GAS  C:\Users\DAVISS~1\AppData\Local\Temp\ccr8iJqP.s 			page 7


 247 0020 00000000 		.word	.LANCHOR0
 248              		.cfi_endproc
 249              	.LFE36:
 250              		.size	bno055_read_register, .-bno055_read_register
 251              		.section	.text.bno055_read_page_id,"ax",%progbits
 252              		.align	2
 253              		.global	bno055_read_page_id
 254              		.code	16
 255              		.thumb_func
 256              		.type	bno055_read_page_id, %function
 257              	bno055_read_page_id:
 258              	.LFB37:
  95:BNO055-Sensor-Driver/bno_i2c.c **** 
  96:BNO055-Sensor-Driver/bno_i2c.c **** BNO055_RETURN_FUNCTION_TYPE bno055_read_page_id(u8 *page_id_u8)
  97:BNO055-Sensor-Driver/bno_i2c.c **** {
 259              		.loc 1 97 0
 260              		.cfi_startproc
 261              		@ args = 0, pretend = 0, frame = 8
 262              		@ frame_needed = 0, uses_anonymous_args = 0
 263              	.LVL31:
 264 0000 30B5     		push	{r4, r5, lr}
 265              		.cfi_def_cfa_offset 12
 266              		.cfi_offset 4, -12
 267              		.cfi_offset 5, -8
 268              		.cfi_offset 14, -4
 269 0002 83B0     		sub	sp, sp, #12
 270              		.cfi_def_cfa_offset 24
 271 0004 0500     		movs	r5, r0
 272              	.LVL32:
  98:BNO055-Sensor-Driver/bno_i2c.c ****     /* Variable used to return value of communication routine*/
  99:BNO055-Sensor-Driver/bno_i2c.c ****     BNO055_RETURN_FUNCTION_TYPE com_rslt = BNO055_ERROR;
 100:BNO055-Sensor-Driver/bno_i2c.c ****     u8 data_u8 = BNO055_INIT_VALUE;
 273              		.loc 1 100 0
 274 0006 0022     		movs	r2, #0
 275 0008 6B46     		mov	r3, sp
 276 000a DA71     		strb	r2, [r3, #7]
 101:BNO055-Sensor-Driver/bno_i2c.c **** 
 102:BNO055-Sensor-Driver/bno_i2c.c ****     /* Check the struct p_bno055 is empty */
 103:BNO055-Sensor-Driver/bno_i2c.c ****     if (p_bno055 == NULL)
 277              		.loc 1 103 0
 278 000c 0D4B     		ldr	r3, .L20
 279 000e 1B68     		ldr	r3, [r3]
 280 0010 002B     		cmp	r3, #0
 281 0012 10D0     		beq	.L18
 104:BNO055-Sensor-Driver/bno_i2c.c ****     {
 105:BNO055-Sensor-Driver/bno_i2c.c ****         return BNO055_E_NULL_PTR;
 106:BNO055-Sensor-Driver/bno_i2c.c ****     }
 107:BNO055-Sensor-Driver/bno_i2c.c ****     else
 108:BNO055-Sensor-Driver/bno_i2c.c ****     {
 109:BNO055-Sensor-Driver/bno_i2c.c ****         /* Read the page id form 0x07*/
 110:BNO055-Sensor-Driver/bno_i2c.c ****       
 111:BNO055-Sensor-Driver/bno_i2c.c ****         com_rslt = p_bno055->bus_read(p_bno055->dev_addr,BNO055_PAGE_ID_REG,&data_u8,BNO055_GEN_REA
 282              		.loc 1 111 0
 283 0014 1C69     		ldr	r4, [r3, #16]
 284 0016 587A     		ldrb	r0, [r3, #9]
 285              	.LVL33:
 286 0018 0123     		movs	r3, #1
ARM GAS  C:\Users\DAVISS~1\AppData\Local\Temp\ccr8iJqP.s 			page 8


 287 001a 6A46     		mov	r2, sp
 288 001c 0732     		adds	r2, r2, #7
 289 001e 0721     		movs	r1, #7
 290 0020 A047     		blx	r4
 291              	.LVL34:
 112:BNO055-Sensor-Driver/bno_i2c.c ****         if (com_rslt == BNO055_SUCCESS)
 292              		.loc 1 112 0
 293 0022 0028     		cmp	r0, #0
 294 0024 0AD1     		bne	.L19
 113:BNO055-Sensor-Driver/bno_i2c.c ****         {
 114:BNO055-Sensor-Driver/bno_i2c.c ****             data_u8 = BNO055_GET_BITSLICE(data_u8, BNO055_PAGE_ID);
 295              		.loc 1 114 0
 296 0026 6B46     		mov	r3, sp
 297 0028 0733     		adds	r3, r3, #7
 298 002a 1B78     		ldrb	r3, [r3]
 115:BNO055-Sensor-Driver/bno_i2c.c ****             *page_id_u8 = data_u8;
 299              		.loc 1 115 0
 300 002c 2B70     		strb	r3, [r5]
 116:BNO055-Sensor-Driver/bno_i2c.c ****             p_bno055->page_id = data_u8;
 301              		.loc 1 116 0
 302 002e 054A     		ldr	r2, .L20
 303 0030 1268     		ldr	r2, [r2]
 304 0032 1371     		strb	r3, [r2, #4]
 305 0034 04E0     		b	.L17
 306              	.LVL35:
 307              	.L18:
 105:BNO055-Sensor-Driver/bno_i2c.c ****     }
 308              		.loc 1 105 0
 309 0036 7F20     		movs	r0, #127
 310              	.LVL36:
 311 0038 4042     		rsbs	r0, r0, #0
 312 003a 01E0     		b	.L17
 313              	.LVL37:
 314              	.L19:
 117:BNO055-Sensor-Driver/bno_i2c.c ****         }
 118:BNO055-Sensor-Driver/bno_i2c.c ****         else
 119:BNO055-Sensor-Driver/bno_i2c.c ****         {
 120:BNO055-Sensor-Driver/bno_i2c.c ****             com_rslt = BNO055_ERROR;
 315              		.loc 1 120 0
 316 003c 0120     		movs	r0, #1
 317              	.LVL38:
 318 003e 4042     		rsbs	r0, r0, #0
 319              	.L17:
 121:BNO055-Sensor-Driver/bno_i2c.c ****         }
 122:BNO055-Sensor-Driver/bno_i2c.c ****     }
 123:BNO055-Sensor-Driver/bno_i2c.c **** 
 124:BNO055-Sensor-Driver/bno_i2c.c ****     return com_rslt;
 125:BNO055-Sensor-Driver/bno_i2c.c **** }
 320              		.loc 1 125 0
 321 0040 03B0     		add	sp, sp, #12
 322              		@ sp needed
 323              	.LVL39:
 324 0042 30BD     		pop	{r4, r5, pc}
 325              	.L21:
 326              		.align	2
 327              	.L20:
 328 0044 00000000 		.word	.LANCHOR0
ARM GAS  C:\Users\DAVISS~1\AppData\Local\Temp\ccr8iJqP.s 			page 9


 329              		.cfi_endproc
 330              	.LFE37:
 331              		.size	bno055_read_page_id, .-bno055_read_page_id
 332              		.section	.text.bno055_write_page_id,"ax",%progbits
 333              		.align	2
 334              		.global	bno055_write_page_id
 335              		.code	16
 336              		.thumb_func
 337              		.type	bno055_write_page_id, %function
 338              	bno055_write_page_id:
 339              	.LFB38:
 126:BNO055-Sensor-Driver/bno_i2c.c **** 
 127:BNO055-Sensor-Driver/bno_i2c.c **** BNO055_RETURN_FUNCTION_TYPE bno055_write_page_id(u8 page_id_u8)
 128:BNO055-Sensor-Driver/bno_i2c.c **** {
 340              		.loc 1 128 0
 341              		.cfi_startproc
 342              		@ args = 0, pretend = 0, frame = 8
 343              		@ frame_needed = 0, uses_anonymous_args = 0
 344              	.LVL40:
 345 0000 70B5     		push	{r4, r5, r6, lr}
 346              		.cfi_def_cfa_offset 16
 347              		.cfi_offset 4, -16
 348              		.cfi_offset 5, -12
 349              		.cfi_offset 6, -8
 350              		.cfi_offset 14, -4
 351 0002 82B0     		sub	sp, sp, #8
 352              		.cfi_def_cfa_offset 24
 353 0004 0500     		movs	r5, r0
 354              	.LVL41:
 129:BNO055-Sensor-Driver/bno_i2c.c ****     /* Variable used to return value of communication routine*/
 130:BNO055-Sensor-Driver/bno_i2c.c ****     BNO055_RETURN_FUNCTION_TYPE com_rslt = BNO055_ERROR;
 131:BNO055-Sensor-Driver/bno_i2c.c ****     u8 data_u8r = BNO055_INIT_VALUE;
 355              		.loc 1 131 0
 356 0006 0022     		movs	r2, #0
 357 0008 6B46     		mov	r3, sp
 358 000a DA71     		strb	r2, [r3, #7]
 132:BNO055-Sensor-Driver/bno_i2c.c **** 
 133:BNO055-Sensor-Driver/bno_i2c.c ****     /* Check the struct p_bno055 is empty */
 134:BNO055-Sensor-Driver/bno_i2c.c ****     if (p_bno055 == NULL)
 359              		.loc 1 134 0
 360 000c 124B     		ldr	r3, .L27
 361 000e 1B68     		ldr	r3, [r3]
 362 0010 002B     		cmp	r3, #0
 363 0012 1AD0     		beq	.L24
 135:BNO055-Sensor-Driver/bno_i2c.c ****     {
 136:BNO055-Sensor-Driver/bno_i2c.c ****         return BNO055_E_NULL_PTR;
 137:BNO055-Sensor-Driver/bno_i2c.c ****     }
 138:BNO055-Sensor-Driver/bno_i2c.c ****     else
 139:BNO055-Sensor-Driver/bno_i2c.c ****     {
 140:BNO055-Sensor-Driver/bno_i2c.c ****         /* Read the current page*/
 141:BNO055-Sensor-Driver/bno_i2c.c ****        
 142:BNO055-Sensor-Driver/bno_i2c.c ****         com_rslt = p_bno055->bus_read(p_bno055->dev_addr,  BNO055_PAGE_ID_REG,&data_u8r,BNO055_GEN_
 364              		.loc 1 142 0
 365 0014 1C69     		ldr	r4, [r3, #16]
 366 0016 587A     		ldrb	r0, [r3, #9]
 367              	.LVL42:
 368 0018 0123     		movs	r3, #1
ARM GAS  C:\Users\DAVISS~1\AppData\Local\Temp\ccr8iJqP.s 			page 10


 369 001a 6A46     		mov	r2, sp
 370 001c 0732     		adds	r2, r2, #7
 371 001e 0721     		movs	r1, #7
 372 0020 A047     		blx	r4
 373              	.LVL43:
 374 0022 041E     		subs	r4, r0, #0
 375              	.LVL44:
 143:BNO055-Sensor-Driver/bno_i2c.c **** 
 144:BNO055-Sensor-Driver/bno_i2c.c ****         /* Check condition for communication BNO055_SUCCESS*/
 145:BNO055-Sensor-Driver/bno_i2c.c ****         if (com_rslt == BNO055_SUCCESS)
 376              		.loc 1 145 0
 377 0024 14D1     		bne	.L25
 146:BNO055-Sensor-Driver/bno_i2c.c ****         {
 147:BNO055-Sensor-Driver/bno_i2c.c ****             data_u8r = BNO055_SET_BITSLICE(data_u8r, BNO055_PAGE_ID, page_id_u8);
 378              		.loc 1 147 0
 379 0026 6B46     		mov	r3, sp
 380 0028 DA1D     		adds	r2, r3, #7
 381 002a 1570     		strb	r5, [r2]
 148:BNO055-Sensor-Driver/bno_i2c.c **** 
 149:BNO055-Sensor-Driver/bno_i2c.c ****             /* Write the page id*/
 150:BNO055-Sensor-Driver/bno_i2c.c ****            
 151:BNO055-Sensor-Driver/bno_i2c.c ****             com_rslt += p_bno055->bus_write(p_bno055->dev_addr,BNO055_PAGE_ID_REG,&data_u8r,BNO055_
 382              		.loc 1 151 0
 383 002c 0A4B     		ldr	r3, .L27
 384 002e 1B68     		ldr	r3, [r3]
 385 0030 DE68     		ldr	r6, [r3, #12]
 386 0032 587A     		ldrb	r0, [r3, #9]
 387              	.LVL45:
 388 0034 0123     		movs	r3, #1
 389 0036 0721     		movs	r1, #7
 390 0038 B047     		blx	r6
 391              	.LVL46:
 392 003a 0419     		adds	r4, r0, r4
 393 003c 60B2     		sxtb	r0, r4
 394              	.LVL47:
 152:BNO055-Sensor-Driver/bno_i2c.c ****             if (com_rslt == BNO055_SUCCESS)
 395              		.loc 1 152 0
 396 003e 0028     		cmp	r0, #0
 397 0040 08D1     		bne	.L23
 153:BNO055-Sensor-Driver/bno_i2c.c ****             {
 154:BNO055-Sensor-Driver/bno_i2c.c ****                 p_bno055->page_id = page_id_u8;
 398              		.loc 1 154 0
 399 0042 054B     		ldr	r3, .L27
 400 0044 1B68     		ldr	r3, [r3]
 401 0046 1D71     		strb	r5, [r3, #4]
 402 0048 04E0     		b	.L23
 403              	.LVL48:
 404              	.L24:
 136:BNO055-Sensor-Driver/bno_i2c.c ****     }
 405              		.loc 1 136 0
 406 004a 7F20     		movs	r0, #127
 407              	.LVL49:
 408 004c 4042     		rsbs	r0, r0, #0
 409 004e 01E0     		b	.L23
 410              	.LVL50:
 411              	.L25:
 155:BNO055-Sensor-Driver/bno_i2c.c ****             }
ARM GAS  C:\Users\DAVISS~1\AppData\Local\Temp\ccr8iJqP.s 			page 11


 156:BNO055-Sensor-Driver/bno_i2c.c ****         }
 157:BNO055-Sensor-Driver/bno_i2c.c ****         else
 158:BNO055-Sensor-Driver/bno_i2c.c ****         {
 159:BNO055-Sensor-Driver/bno_i2c.c ****             com_rslt = BNO055_ERROR;
 412              		.loc 1 159 0
 413 0050 0120     		movs	r0, #1
 414              	.LVL51:
 415 0052 4042     		rsbs	r0, r0, #0
 416              	.L23:
 160:BNO055-Sensor-Driver/bno_i2c.c ****         }
 161:BNO055-Sensor-Driver/bno_i2c.c ****     }
 162:BNO055-Sensor-Driver/bno_i2c.c **** 
 163:BNO055-Sensor-Driver/bno_i2c.c ****     return com_rslt;
 164:BNO055-Sensor-Driver/bno_i2c.c **** }
 417              		.loc 1 164 0
 418 0054 02B0     		add	sp, sp, #8
 419              		@ sp needed
 420 0056 70BD     		pop	{r4, r5, r6, pc}
 421              	.L28:
 422              		.align	2
 423              	.L27:
 424 0058 00000000 		.word	.LANCHOR0
 425              		.cfi_endproc
 426              	.LFE38:
 427              		.size	bno055_write_page_id, .-bno055_write_page_id
 428              		.section	.text.bno055_get_operation_mode,"ax",%progbits
 429              		.align	2
 430              		.global	bno055_get_operation_mode
 431              		.code	16
 432              		.thumb_func
 433              		.type	bno055_get_operation_mode, %function
 434              	bno055_get_operation_mode:
 435              	.LFB39:
 165:BNO055-Sensor-Driver/bno_i2c.c **** 
 166:BNO055-Sensor-Driver/bno_i2c.c **** BNO055_RETURN_FUNCTION_TYPE bno055_get_operation_mode(u8 *operation_mode_u8)
 167:BNO055-Sensor-Driver/bno_i2c.c **** {
 436              		.loc 1 167 0
 437              		.cfi_startproc
 438              		@ args = 0, pretend = 0, frame = 8
 439              		@ frame_needed = 0, uses_anonymous_args = 0
 440              	.LVL52:
 441 0000 70B5     		push	{r4, r5, r6, lr}
 442              		.cfi_def_cfa_offset 16
 443              		.cfi_offset 4, -16
 444              		.cfi_offset 5, -12
 445              		.cfi_offset 6, -8
 446              		.cfi_offset 14, -4
 447 0002 82B0     		sub	sp, sp, #8
 448              		.cfi_def_cfa_offset 24
 449 0004 0600     		movs	r6, r0
 450              	.LVL53:
 168:BNO055-Sensor-Driver/bno_i2c.c ****     /* Variable used to return value of communication routine*/
 169:BNO055-Sensor-Driver/bno_i2c.c ****     BNO055_RETURN_FUNCTION_TYPE com_rslt = BNO055_ERROR;
 170:BNO055-Sensor-Driver/bno_i2c.c ****     u8 data_u8r = BNO055_INIT_VALUE;
 451              		.loc 1 170 0
 452 0006 0022     		movs	r2, #0
 453 0008 6B46     		mov	r3, sp
ARM GAS  C:\Users\DAVISS~1\AppData\Local\Temp\ccr8iJqP.s 			page 12


 454 000a DA71     		strb	r2, [r3, #7]
 455              	.LVL54:
 171:BNO055-Sensor-Driver/bno_i2c.c ****     s8 stat_s8 = BNO055_ERROR;
 172:BNO055-Sensor-Driver/bno_i2c.c **** 
 173:BNO055-Sensor-Driver/bno_i2c.c ****     /* Check the struct p_bno055 is empty */
 174:BNO055-Sensor-Driver/bno_i2c.c ****     if (p_bno055 == NULL)
 456              		.loc 1 174 0
 457 000c 1A4B     		ldr	r3, .L37
 458 000e 1B68     		ldr	r3, [r3]
 459 0010 002B     		cmp	r3, #0
 460 0012 2CD0     		beq	.L35
 461              	.LBB4:
 175:BNO055-Sensor-Driver/bno_i2c.c ****     {
 176:BNO055-Sensor-Driver/bno_i2c.c ****         return BNO055_E_NULL_PTR;
 177:BNO055-Sensor-Driver/bno_i2c.c ****     }
 178:BNO055-Sensor-Driver/bno_i2c.c ****     else
 179:BNO055-Sensor-Driver/bno_i2c.c ****     {
 180:BNO055-Sensor-Driver/bno_i2c.c ****         /*condition check for page, operation mode is available in the page zero*/
 181:BNO055-Sensor-Driver/bno_i2c.c ****         if (p_bno055->page_id != BNO055_PAGE_ZERO)
 462              		.loc 1 181 0
 463 0014 1B79     		ldrb	r3, [r3, #4]
 464 0016 002B     		cmp	r3, #0
 465 0018 03D0     		beq	.L36
 182:BNO055-Sensor-Driver/bno_i2c.c ****         {
 183:BNO055-Sensor-Driver/bno_i2c.c ****             /* Write the page zero*/
 184:BNO055-Sensor-Driver/bno_i2c.c ****             stat_s8 = bno055_write_page_id(BNO055_PAGE_ZERO);
 466              		.loc 1 184 0
 467 001a 0020     		movs	r0, #0
 468              	.LVL55:
 469 001c FFF7FEFF 		bl	bno055_write_page_id
 470              	.LVL56:
 471 0020 01E0     		b	.L31
 472              	.LVL57:
 473              	.L36:
 474              	.LBE4:
 171:BNO055-Sensor-Driver/bno_i2c.c **** 
 475              		.loc 1 171 0
 476 0022 0120     		movs	r0, #1
 477              	.LVL58:
 478 0024 4042     		rsbs	r0, r0, #0
 479              	.LVL59:
 480              	.L31:
 481              	.LBB7:
 185:BNO055-Sensor-Driver/bno_i2c.c ****         }
 186:BNO055-Sensor-Driver/bno_i2c.c ****         if ((stat_s8 == BNO055_SUCCESS) || (p_bno055->page_id == BNO055_PAGE_ZERO))
 482              		.loc 1 186 0
 483 0026 0028     		cmp	r0, #0
 484 0028 04D0     		beq	.L32
 485              		.loc 1 186 0 is_stmt 0 discriminator 1
 486 002a 134B     		ldr	r3, .L37
 487 002c 1B68     		ldr	r3, [r3]
 488 002e 1B79     		ldrb	r3, [r3, #4]
 489 0030 002B     		cmp	r3, #0
 490 0032 12D1     		bne	.L33
 491              	.L32:
 492              	.LBB5:
 187:BNO055-Sensor-Driver/bno_i2c.c ****         {
ARM GAS  C:\Users\DAVISS~1\AppData\Local\Temp\ccr8iJqP.s 			page 13


 188:BNO055-Sensor-Driver/bno_i2c.c ****             /* Read the value of operation mode*/         
 189:BNO055-Sensor-Driver/bno_i2c.c ****             com_rslt = p_bno055->bus_read(p_bno055->dev_addr,BNO055_OPERATION_MODE_REG,&data_u8r, B
 493              		.loc 1 189 0 is_stmt 1
 494 0034 104B     		ldr	r3, .L37
 495 0036 1B68     		ldr	r3, [r3]
 496 0038 1C69     		ldr	r4, [r3, #16]
 497 003a 587A     		ldrb	r0, [r3, #9]
 498              	.LVL60:
 499 003c 6B46     		mov	r3, sp
 500 003e DD1D     		adds	r5, r3, #7
 501 0040 0123     		movs	r3, #1
 502 0042 2A00     		movs	r2, r5
 503 0044 3D21     		movs	r1, #61
 504 0046 A047     		blx	r4
 505              	.LVL61:
 506 0048 0400     		movs	r4, r0
 507              	.LVL62:
 190:BNO055-Sensor-Driver/bno_i2c.c ****             
 191:BNO055-Sensor-Driver/bno_i2c.c ****             *operation_mode_u8 = BNO055_GET_BITSLICE(data_u8r, BNO055_OPERATION_MODE);
 508              		.loc 1 191 0
 509 004a 2B78     		ldrb	r3, [r5]
 510 004c 0F22     		movs	r2, #15
 511 004e 1340     		ands	r3, r2
 512 0050 3370     		strb	r3, [r6]
 192:BNO055-Sensor-Driver/bno_i2c.c ****             I2C_UART_UartPutString(" Get Mode == Success,");
 513              		.loc 1 192 0
 514 0052 0A48     		ldr	r0, .L37+4
 515              	.LVL63:
 516 0054 FFF7FEFF 		bl	I2C_UART_UartPutString
 517              	.LVL64:
 518              	.LBE5:
 187:BNO055-Sensor-Driver/bno_i2c.c ****         {
 519              		.loc 1 187 0
 520 0058 04E0     		b	.L34
 521              	.LVL65:
 522              	.L33:
 523              	.LBB6:
 193:BNO055-Sensor-Driver/bno_i2c.c ****         }
 194:BNO055-Sensor-Driver/bno_i2c.c ****         else
 195:BNO055-Sensor-Driver/bno_i2c.c ****         {
 196:BNO055-Sensor-Driver/bno_i2c.c ****             I2C_UART_UartPutString(" Get Mode == Fail,");
 524              		.loc 1 196 0
 525 005a 0948     		ldr	r0, .L37+8
 526              	.LVL66:
 527 005c FFF7FEFF 		bl	I2C_UART_UartPutString
 528              	.LVL67:
 529              	.LBE6:
 530              	.LBE7:
 169:BNO055-Sensor-Driver/bno_i2c.c ****     u8 data_u8r = BNO055_INIT_VALUE;
 531              		.loc 1 169 0
 532 0060 0124     		movs	r4, #1
 533 0062 6442     		rsbs	r4, r4, #0
 534              	.LVL68:
 535              	.L34:
 536              	.LBB8:
 197:BNO055-Sensor-Driver/bno_i2c.c ****         }
 198:BNO055-Sensor-Driver/bno_i2c.c ****         
ARM GAS  C:\Users\DAVISS~1\AppData\Local\Temp\ccr8iJqP.s 			page 14


 199:BNO055-Sensor-Driver/bno_i2c.c ****         I2C_UART_UartPutString(" Get Operation Done,");
 537              		.loc 1 199 0
 538 0064 0748     		ldr	r0, .L37+12
 539 0066 FFF7FEFF 		bl	I2C_UART_UartPutString
 540              	.LVL69:
 541              	.LBE8:
 200:BNO055-Sensor-Driver/bno_i2c.c ****     }
 201:BNO055-Sensor-Driver/bno_i2c.c ****     
 202:BNO055-Sensor-Driver/bno_i2c.c ****     return com_rslt;
 542              		.loc 1 202 0
 543 006a 2000     		movs	r0, r4
 544 006c 01E0     		b	.L30
 545              	.LVL70:
 546              	.L35:
 176:BNO055-Sensor-Driver/bno_i2c.c ****     }
 547              		.loc 1 176 0
 548 006e 7F20     		movs	r0, #127
 549              	.LVL71:
 550 0070 4042     		rsbs	r0, r0, #0
 551              	.LVL72:
 552              	.L30:
 203:BNO055-Sensor-Driver/bno_i2c.c **** }
 553              		.loc 1 203 0
 554 0072 02B0     		add	sp, sp, #8
 555              		@ sp needed
 556              	.LVL73:
 557 0074 70BD     		pop	{r4, r5, r6, pc}
 558              	.L38:
 559 0076 C046     		.align	2
 560              	.L37:
 561 0078 00000000 		.word	.LANCHOR0
 562 007c 30000000 		.word	.LC12
 563 0080 48000000 		.word	.LC14
 564 0084 5C000000 		.word	.LC16
 565              		.cfi_endproc
 566              	.LFE39:
 567              		.size	bno055_get_operation_mode, .-bno055_get_operation_mode
 568              		.section	.text.bno055_set_operation_mode,"ax",%progbits
 569              		.align	2
 570              		.global	bno055_set_operation_mode
 571              		.code	16
 572              		.thumb_func
 573              		.type	bno055_set_operation_mode, %function
 574              	bno055_set_operation_mode:
 575              	.LFB40:
 204:BNO055-Sensor-Driver/bno_i2c.c **** 
 205:BNO055-Sensor-Driver/bno_i2c.c **** BNO055_RETURN_FUNCTION_TYPE bno055_set_operation_mode(u8 operation_mode_u8)
 206:BNO055-Sensor-Driver/bno_i2c.c **** {
 576              		.loc 1 206 0
 577              		.cfi_startproc
 578              		@ args = 0, pretend = 0, frame = 8
 579              		@ frame_needed = 0, uses_anonymous_args = 0
 580              	.LVL74:
 581 0000 F0B5     		push	{r4, r5, r6, r7, lr}
 582              		.cfi_def_cfa_offset 20
 583              		.cfi_offset 4, -20
 584              		.cfi_offset 5, -16
ARM GAS  C:\Users\DAVISS~1\AppData\Local\Temp\ccr8iJqP.s 			page 15


 585              		.cfi_offset 6, -12
 586              		.cfi_offset 7, -8
 587              		.cfi_offset 14, -4
 588 0002 83B0     		sub	sp, sp, #12
 589              		.cfi_def_cfa_offset 32
 590 0004 0500     		movs	r5, r0
 591              	.LVL75:
 207:BNO055-Sensor-Driver/bno_i2c.c ****     BNO055_RETURN_FUNCTION_TYPE com_rslt = BNO055_ERROR;
 208:BNO055-Sensor-Driver/bno_i2c.c ****     u8 data_u8r = BNO055_INIT_VALUE;
 592              		.loc 1 208 0
 593 0006 0023     		movs	r3, #0
 594 0008 6A46     		mov	r2, sp
 595 000a D371     		strb	r3, [r2, #7]
 209:BNO055-Sensor-Driver/bno_i2c.c ****     u8 prev_opmode_u8 = BNO055_OPERATION_MODE_CONFIG;
 596              		.loc 1 209 0
 597 000c 6A46     		mov	r2, sp
 598 000e 9371     		strb	r3, [r2, #6]
 599              	.LVL76:
 210:BNO055-Sensor-Driver/bno_i2c.c ****     s8 stat_s8 = BNO055_ERROR;
 211:BNO055-Sensor-Driver/bno_i2c.c **** 
 212:BNO055-Sensor-Driver/bno_i2c.c ****     /* Check the struct p_bno055 is empty */
 213:BNO055-Sensor-Driver/bno_i2c.c ****     if (p_bno055 == NULL)
 600              		.loc 1 213 0
 601 0010 524B     		ldr	r3, .L48
 602 0012 1B68     		ldr	r3, [r3]
 603 0014 002B     		cmp	r3, #0
 604 0016 05D1     		bne	.L40
 605              	.LBB9:
 214:BNO055-Sensor-Driver/bno_i2c.c ****     {
 215:BNO055-Sensor-Driver/bno_i2c.c ****         I2C_UART_UartPutString(" struct == empty,");
 606              		.loc 1 215 0
 607 0018 5148     		ldr	r0, .L48+4
 608              	.LVL77:
 609 001a FFF7FEFF 		bl	I2C_UART_UartPutString
 610              	.LVL78:
 216:BNO055-Sensor-Driver/bno_i2c.c ****         return BNO055_E_NULL_PTR;
 611              		.loc 1 216 0
 612 001e 7F20     		movs	r0, #127
 613 0020 4042     		rsbs	r0, r0, #0
 614 0022 99E0     		b	.L41
 615              	.LVL79:
 616              	.L40:
 617              	.LBE9:
 217:BNO055-Sensor-Driver/bno_i2c.c ****     }
 218:BNO055-Sensor-Driver/bno_i2c.c ****     else
 219:BNO055-Sensor-Driver/bno_i2c.c ****     {
 220:BNO055-Sensor-Driver/bno_i2c.c ****         /* The write operation effective only if the operation mode is in config mode, this part of
 221:BNO055-Sensor-Driver/bno_i2c.c ****          current operation mode and set the config mode */
 222:BNO055-Sensor-Driver/bno_i2c.c ****         stat_s8 = bno055_get_operation_mode(&prev_opmode_u8);
 618              		.loc 1 222 0
 619 0024 6B46     		mov	r3, sp
 620 0026 981D     		adds	r0, r3, #6
 621              	.LVL80:
 622 0028 FFF7FEFF 		bl	bno055_get_operation_mode
 623              	.LVL81:
 223:BNO055-Sensor-Driver/bno_i2c.c ****         
 224:BNO055-Sensor-Driver/bno_i2c.c ****         if (stat_s8 == BNO055_SUCCESS)
ARM GAS  C:\Users\DAVISS~1\AppData\Local\Temp\ccr8iJqP.s 			page 16


 624              		.loc 1 224 0
 625 002c 0028     		cmp	r0, #0
 626 002e 00D0     		beq	.LCB590
 627 0030 8AE0     		b	.L42	@long jump
 628              	.LCB590:
 629              	.LBB10:
 225:BNO055-Sensor-Driver/bno_i2c.c ****         {
 226:BNO055-Sensor-Driver/bno_i2c.c ****             I2C_UART_UartPutString(" stat_u8 = BNO055_SUCCESS,");
 630              		.loc 1 226 0
 631 0032 4C48     		ldr	r0, .L48+8
 632              	.LVL82:
 633 0034 FFF7FEFF 		bl	I2C_UART_UartPutString
 634              	.LVL83:
 227:BNO055-Sensor-Driver/bno_i2c.c ****             /* If the previous operation mode is config it can directly write the operation mode */
 228:BNO055-Sensor-Driver/bno_i2c.c ****             if (prev_opmode_u8 == BNO055_OPERATION_MODE_CONFIG)
 635              		.loc 1 228 0
 636 0038 6B46     		mov	r3, sp
 637 003a 0633     		adds	r3, r3, #6
 638 003c 1B78     		ldrb	r3, [r3]
 639 003e 002B     		cmp	r3, #0
 640 0040 34D1     		bne	.L43
 229:BNO055-Sensor-Driver/bno_i2c.c ****             {
 230:BNO055-Sensor-Driver/bno_i2c.c ****                 I2C_UART_UartPutString(" Previous Mode == Config Mode,");
 641              		.loc 1 230 0
 642 0042 4948     		ldr	r0, .L48+12
 643 0044 FFF7FEFF 		bl	I2C_UART_UartPutString
 644              	.LVL84:
 231:BNO055-Sensor-Driver/bno_i2c.c ****                 com_rslt = p_bno055->bus_read(p_bno055->dev_addr,BNO055_OPERATION_MODE_REG,&data_u8
 645              		.loc 1 231 0
 646 0048 444B     		ldr	r3, .L48
 647 004a 1B68     		ldr	r3, [r3]
 648 004c 1C69     		ldr	r4, [r3, #16]
 649 004e 587A     		ldrb	r0, [r3, #9]
 650 0050 0123     		movs	r3, #1
 651 0052 6A46     		mov	r2, sp
 652 0054 0732     		adds	r2, r2, #7
 653 0056 3D21     		movs	r1, #61
 654 0058 A047     		blx	r4
 655              	.LVL85:
 656 005a 041E     		subs	r4, r0, #0
 657              	.LVL86:
 232:BNO055-Sensor-Driver/bno_i2c.c ****                 
 233:BNO055-Sensor-Driver/bno_i2c.c ****                 if (com_rslt == BNO055_SUCCESS)
 658              		.loc 1 233 0
 659 005c 21D1     		bne	.L44
 234:BNO055-Sensor-Driver/bno_i2c.c ****                 {
 235:BNO055-Sensor-Driver/bno_i2c.c ****                     
 236:BNO055-Sensor-Driver/bno_i2c.c ****                     data_u8r = BNO055_SET_BITSLICE(data_u8r, BNO055_OPERATION_MODE, operation_mode_
 660              		.loc 1 236 0
 661 005e 6B46     		mov	r3, sp
 662 0060 DE1D     		adds	r6, r3, #7
 663 0062 DA79     		ldrb	r2, [r3, #7]
 664 0064 0F23     		movs	r3, #15
 665 0066 9A43     		bics	r2, r3
 666 0068 1D40     		ands	r5, r3
 667 006a 1543     		orrs	r5, r2
 668 006c 3570     		strb	r5, [r6]
ARM GAS  C:\Users\DAVISS~1\AppData\Local\Temp\ccr8iJqP.s 			page 17


 237:BNO055-Sensor-Driver/bno_i2c.c ****                     
 238:BNO055-Sensor-Driver/bno_i2c.c ****                     I2C_UART_UartPutString(" com_rslt = success,");
 669              		.loc 1 238 0
 670 006e 3F48     		ldr	r0, .L48+16
 671              	.LVL87:
 672 0070 FFF7FEFF 		bl	I2C_UART_UartPutString
 673              	.LVL88:
 239:BNO055-Sensor-Driver/bno_i2c.c ****                     I2C_UART_UartPutString(" Now switching to FUSION MODE,");
 674              		.loc 1 239 0
 675 0074 3E48     		ldr	r0, .L48+20
 676 0076 FFF7FEFF 		bl	I2C_UART_UartPutString
 677              	.LVL89:
 240:BNO055-Sensor-Driver/bno_i2c.c ****                     //Set operation mode to FUSION Mode by writing to the Operation mode register
 241:BNO055-Sensor-Driver/bno_i2c.c ****                     com_rslt += p_bno055->bus_write(p_bno055->dev_addr,BNO055_OPERATION_MODE_REG,&d
 678              		.loc 1 241 0
 679 007a 384D     		ldr	r5, .L48
 680 007c 2B68     		ldr	r3, [r5]
 681 007e DF68     		ldr	r7, [r3, #12]
 682 0080 587A     		ldrb	r0, [r3, #9]
 683 0082 0123     		movs	r3, #1
 684 0084 3200     		movs	r2, r6
 685 0086 3D21     		movs	r1, #61
 686 0088 B847     		blx	r7
 687              	.LVL90:
 688 008a 0019     		adds	r0, r0, r4
 689 008c 44B2     		sxtb	r4, r0
 690              	.LVL91:
 242:BNO055-Sensor-Driver/bno_i2c.c ****                     //^^ Some kind of error occurs here
 243:BNO055-Sensor-Driver/bno_i2c.c ****                    
 244:BNO055-Sensor-Driver/bno_i2c.c ****                     /* Config mode to other operation mode switching requires delay of 600ms*/
 245:BNO055-Sensor-Driver/bno_i2c.c ****                     p_bno055->delay_msec(BNO055_MODE_SWITCHING_DELAY);
 691              		.loc 1 245 0
 692 008e 2B68     		ldr	r3, [r5]
 693 0090 5B69     		ldr	r3, [r3, #20]
 694 0092 9620     		movs	r0, #150
 695 0094 8000     		lsls	r0, r0, #2
 696 0096 9847     		blx	r3
 697              	.LVL92:
 246:BNO055-Sensor-Driver/bno_i2c.c ****                     I2C_UART_UartPutString(" Mode switched to Fusion Mode,");
 698              		.loc 1 246 0
 699 0098 3648     		ldr	r0, .L48+24
 700 009a FFF7FEFF 		bl	I2C_UART_UartPutString
 701              	.LVL93:
 241:BNO055-Sensor-Driver/bno_i2c.c ****                     //^^ Some kind of error occurs here
 702              		.loc 1 241 0
 703 009e 2000     		movs	r0, r4
 704 00a0 5AE0     		b	.L41
 705              	.LVL94:
 706              	.L44:
 247:BNO055-Sensor-Driver/bno_i2c.c ****                 }
 248:BNO055-Sensor-Driver/bno_i2c.c ****                 else{
 249:BNO055-Sensor-Driver/bno_i2c.c ****              
 250:BNO055-Sensor-Driver/bno_i2c.c ****                 I2C_UART_UartPutString(" com_reslt = failed,");
 707              		.loc 1 250 0
 708 00a2 3548     		ldr	r0, .L48+28
 709              	.LVL95:
 710 00a4 FFF7FEFF 		bl	I2C_UART_UartPutString
ARM GAS  C:\Users\DAVISS~1\AppData\Local\Temp\ccr8iJqP.s 			page 18


 711              	.LVL96:
 231:BNO055-Sensor-Driver/bno_i2c.c ****                 
 712              		.loc 1 231 0
 713 00a8 2000     		movs	r0, r4
 714 00aa 55E0     		b	.L41
 715              	.LVL97:
 716              	.L43:
 251:BNO055-Sensor-Driver/bno_i2c.c ****                 }
 252:BNO055-Sensor-Driver/bno_i2c.c ****             }
 253:BNO055-Sensor-Driver/bno_i2c.c ****             else
 254:BNO055-Sensor-Driver/bno_i2c.c ****             {
 255:BNO055-Sensor-Driver/bno_i2c.c ****                 /* If the previous operation mode is not config it is write the config mode */
 256:BNO055-Sensor-Driver/bno_i2c.c ****                 I2C_UART_UartPutString("Prev mode is not Config");
 717              		.loc 1 256 0
 718 00ac 3348     		ldr	r0, .L48+32
 719 00ae FFF7FEFF 		bl	I2C_UART_UartPutString
 720              	.LVL98:
 257:BNO055-Sensor-Driver/bno_i2c.c ****                 com_rslt = p_bno055->bus_read(p_bno055->dev_addr,BNO055_OPERATION_MODE_REG,&data_u8
 721              		.loc 1 257 0
 722 00b2 2A4B     		ldr	r3, .L48
 723 00b4 1B68     		ldr	r3, [r3]
 724 00b6 1C69     		ldr	r4, [r3, #16]
 725 00b8 587A     		ldrb	r0, [r3, #9]
 726 00ba 0123     		movs	r3, #1
 727 00bc 6A46     		mov	r2, sp
 728 00be 0732     		adds	r2, r2, #7
 729 00c0 3D21     		movs	r1, #61
 730 00c2 A047     		blx	r4
 731              	.LVL99:
 732 00c4 0600     		movs	r6, r0
 733 00c6 041E     		subs	r4, r0, #0
 734              	.LVL100:
 258:BNO055-Sensor-Driver/bno_i2c.c ****                 if (com_rslt == BNO055_SUCCESS)
 735              		.loc 1 258 0
 736 00c8 13D1     		bne	.L45
 259:BNO055-Sensor-Driver/bno_i2c.c ****                 {
 260:BNO055-Sensor-Driver/bno_i2c.c ****                     data_u8r = BNO055_SET_BITSLICE(data_u8r, BNO055_OPERATION_MODE, BNO055_OPERATIO
 737              		.loc 1 260 0
 738 00ca 6B46     		mov	r3, sp
 739 00cc D91D     		adds	r1, r3, #7
 740 00ce 0B78     		ldrb	r3, [r1]
 741 00d0 0F22     		movs	r2, #15
 742 00d2 9343     		bics	r3, r2
 743 00d4 0B70     		strb	r3, [r1]
 261:BNO055-Sensor-Driver/bno_i2c.c ****                     com_rslt += bno055_write_register(BNO055_OPERATION_MODE_REG, &data_u8r, BNO055_
 744              		.loc 1 261 0
 745 00d6 0E3A     		subs	r2, r2, #14
 746 00d8 3D20     		movs	r0, #61
 747              	.LVL101:
 748 00da FFF7FEFF 		bl	bno055_write_register
 749              	.LVL102:
 750 00de 8619     		adds	r6, r0, r6
 751 00e0 74B2     		sxtb	r4, r6
 752              	.LVL103:
 262:BNO055-Sensor-Driver/bno_i2c.c **** 
 263:BNO055-Sensor-Driver/bno_i2c.c ****                     /* other mode to config mode switching requires delay of 20ms*/
 264:BNO055-Sensor-Driver/bno_i2c.c ****                     p_bno055->delay_msec(BNO055_CONFIG_MODE_SWITCHING_DELAY);
ARM GAS  C:\Users\DAVISS~1\AppData\Local\Temp\ccr8iJqP.s 			page 19


 753              		.loc 1 264 0
 754 00e2 1E4B     		ldr	r3, .L48
 755 00e4 1B68     		ldr	r3, [r3]
 756 00e6 5B69     		ldr	r3, [r3, #20]
 757 00e8 1420     		movs	r0, #20
 758 00ea 9847     		blx	r3
 759              	.LVL104:
 265:BNO055-Sensor-Driver/bno_i2c.c ****                     I2C_UART_UartPutString("Prev mode is now in Config mode");
 760              		.loc 1 265 0
 761 00ec 2448     		ldr	r0, .L48+36
 762 00ee FFF7FEFF 		bl	I2C_UART_UartPutString
 763              	.LVL105:
 764              	.L45:
 266:BNO055-Sensor-Driver/bno_i2c.c ****                 }
 267:BNO055-Sensor-Driver/bno_i2c.c **** 
 268:BNO055-Sensor-Driver/bno_i2c.c ****                 /* Write the operation mode */
 269:BNO055-Sensor-Driver/bno_i2c.c ****                 if (operation_mode_u8 != BNO055_OPERATION_MODE_CONFIG)
 765              		.loc 1 269 0
 766 00f2 002D     		cmp	r5, #0
 767 00f4 2ED0     		beq	.L46
 270:BNO055-Sensor-Driver/bno_i2c.c ****                 {
 271:BNO055-Sensor-Driver/bno_i2c.c ****                     I2C_UART_UartPutString("Operation mode is not Config");
 768              		.loc 1 271 0
 769 00f6 2348     		ldr	r0, .L48+40
 770 00f8 FFF7FEFF 		bl	I2C_UART_UartPutString
 771              	.LVL106:
 272:BNO055-Sensor-Driver/bno_i2c.c ****                     com_rslt = p_bno055->bus_read(p_bno055->dev_addr,BNO055_OPERATION_MODE_REG,&dat
 772              		.loc 1 272 0
 773 00fc 174B     		ldr	r3, .L48
 774 00fe 1B68     		ldr	r3, [r3]
 775 0100 1C69     		ldr	r4, [r3, #16]
 776              	.LVL107:
 777 0102 587A     		ldrb	r0, [r3, #9]
 778 0104 0123     		movs	r3, #1
 779 0106 6A46     		mov	r2, sp
 780 0108 0732     		adds	r2, r2, #7
 781 010a 3D21     		movs	r1, #61
 782 010c A047     		blx	r4
 783              	.LVL108:
 784 010e 041E     		subs	r4, r0, #0
 785              	.LVL109:
 273:BNO055-Sensor-Driver/bno_i2c.c ****                     if (com_rslt == BNO055_SUCCESS)
 786              		.loc 1 273 0
 787 0110 22D1     		bne	.L47
 274:BNO055-Sensor-Driver/bno_i2c.c ****                     {
 275:BNO055-Sensor-Driver/bno_i2c.c ****                         data_u8r = BNO055_SET_BITSLICE(data_u8r, BNO055_OPERATION_MODE, operation_m
 788              		.loc 1 275 0
 789 0112 6B46     		mov	r3, sp
 790 0114 DA1D     		adds	r2, r3, #7
 791 0116 1378     		ldrb	r3, [r2]
 792 0118 0F21     		movs	r1, #15
 793 011a 8B43     		bics	r3, r1
 794 011c 0D40     		ands	r5, r1
 795 011e 1D43     		orrs	r5, r3
 796 0120 1570     		strb	r5, [r2]
 276:BNO055-Sensor-Driver/bno_i2c.c ****                        
 277:BNO055-Sensor-Driver/bno_i2c.c ****                         com_rslt += p_bno055->bus_write(p_bno055->dev_addr,BNO055_OPERATION_MODE_RE
ARM GAS  C:\Users\DAVISS~1\AppData\Local\Temp\ccr8iJqP.s 			page 20


 797              		.loc 1 277 0
 798 0122 0E4D     		ldr	r5, .L48
 799 0124 2B68     		ldr	r3, [r5]
 800 0126 DE68     		ldr	r6, [r3, #12]
 801 0128 587A     		ldrb	r0, [r3, #9]
 802              	.LVL110:
 803 012a 0123     		movs	r3, #1
 804 012c 2E31     		adds	r1, r1, #46
 805 012e B047     		blx	r6
 806              	.LVL111:
 807 0130 0019     		adds	r0, r0, r4
 808 0132 44B2     		sxtb	r4, r0
 809              	.LVL112:
 278:BNO055-Sensor-Driver/bno_i2c.c **** 
 279:BNO055-Sensor-Driver/bno_i2c.c ****                         /* Config mode to other operation mode switching requires delay of 600ms*/
 280:BNO055-Sensor-Driver/bno_i2c.c ****                         p_bno055->delay_msec(BNO055_MODE_SWITCHING_DELAY);
 810              		.loc 1 280 0
 811 0134 2B68     		ldr	r3, [r5]
 812 0136 5B69     		ldr	r3, [r3, #20]
 813 0138 9620     		movs	r0, #150
 814 013a 8000     		lsls	r0, r0, #2
 815 013c 9847     		blx	r3
 816              	.LVL113:
 281:BNO055-Sensor-Driver/bno_i2c.c ****                         I2C_UART_UartPutString("Operation is now in Fusion mode ");
 817              		.loc 1 281 0
 818 013e 1248     		ldr	r0, .L48+44
 819 0140 FFF7FEFF 		bl	I2C_UART_UartPutString
 820              	.LVL114:
 277:BNO055-Sensor-Driver/bno_i2c.c **** 
 821              		.loc 1 277 0
 822 0144 2000     		movs	r0, r4
 823 0146 07E0     		b	.L41
 824              	.LVL115:
 825              	.L42:
 826              	.LBE10:
 827              	.LBB11:
 282:BNO055-Sensor-Driver/bno_i2c.c ****                     }
 283:BNO055-Sensor-Driver/bno_i2c.c ****                 }
 284:BNO055-Sensor-Driver/bno_i2c.c ****             }
 285:BNO055-Sensor-Driver/bno_i2c.c ****         }
 286:BNO055-Sensor-Driver/bno_i2c.c ****         else
 287:BNO055-Sensor-Driver/bno_i2c.c ****         {
 288:BNO055-Sensor-Driver/bno_i2c.c ****             com_rslt = BNO055_ERROR;
 289:BNO055-Sensor-Driver/bno_i2c.c ****             I2C_UART_UartPutString("Set operation = failure");
 828              		.loc 1 289 0
 829 0148 1048     		ldr	r0, .L48+48
 830              	.LVL116:
 831 014a FFF7FEFF 		bl	I2C_UART_UartPutString
 832              	.LVL117:
 288:BNO055-Sensor-Driver/bno_i2c.c ****             I2C_UART_UartPutString("Set operation = failure");
 833              		.loc 1 288 0
 834 014e 0120     		movs	r0, #1
 835 0150 4042     		rsbs	r0, r0, #0
 836 0152 01E0     		b	.L41
 837              	.LVL118:
 838              	.L46:
 839              	.LBE11:
ARM GAS  C:\Users\DAVISS~1\AppData\Local\Temp\ccr8iJqP.s 			page 21


 840              	.LBB12:
 841 0154 2000     		movs	r0, r4
 842 0156 FFE7     		b	.L41
 843              	.LVL119:
 844              	.L47:
 845              	.L41:
 846              	.LBE12:
 290:BNO055-Sensor-Driver/bno_i2c.c ****         }
 291:BNO055-Sensor-Driver/bno_i2c.c ****     }
 292:BNO055-Sensor-Driver/bno_i2c.c **** 
 293:BNO055-Sensor-Driver/bno_i2c.c ****     return com_rslt;
 294:BNO055-Sensor-Driver/bno_i2c.c **** }
 847              		.loc 1 294 0
 848 0158 03B0     		add	sp, sp, #12
 849              		@ sp needed
 850 015a F0BD     		pop	{r4, r5, r6, r7, pc}
 851              	.L49:
 852              		.align	2
 853              	.L48:
 854 015c 00000000 		.word	.LANCHOR0
 855 0160 74000000 		.word	.LC19
 856 0164 88000000 		.word	.LC21
 857 0168 A4000000 		.word	.LC23
 858 016c C4000000 		.word	.LC25
 859 0170 DC000000 		.word	.LC27
 860 0174 FC000000 		.word	.LC29
 861 0178 1C010000 		.word	.LC31
 862 017c 34010000 		.word	.LC33
 863 0180 4C010000 		.word	.LC35
 864 0184 6C010000 		.word	.LC37
 865 0188 8C010000 		.word	.LC39
 866 018c B0010000 		.word	.LC41
 867              		.cfi_endproc
 868              	.LFE40:
 869              		.size	bno055_set_operation_mode, .-bno055_set_operation_mode
 870              		.section	.text.bno055_get_accel_calib_stat,"ax",%progbits
 871              		.align	2
 872              		.global	bno055_get_accel_calib_stat
 873              		.code	16
 874              		.thumb_func
 875              		.type	bno055_get_accel_calib_stat, %function
 876              	bno055_get_accel_calib_stat:
 877              	.LFB41:
 295:BNO055-Sensor-Driver/bno_i2c.c **** BNO055_RETURN_FUNCTION_TYPE bno055_get_accel_calib_stat(u8 *accel_calib_u8)
 296:BNO055-Sensor-Driver/bno_i2c.c **** {
 878              		.loc 1 296 0
 879              		.cfi_startproc
 880              		@ args = 0, pretend = 0, frame = 8
 881              		@ frame_needed = 0, uses_anonymous_args = 0
 882              	.LVL120:
 883 0000 70B5     		push	{r4, r5, r6, lr}
 884              		.cfi_def_cfa_offset 16
 885              		.cfi_offset 4, -16
 886              		.cfi_offset 5, -12
 887              		.cfi_offset 6, -8
 888              		.cfi_offset 14, -4
 889 0002 82B0     		sub	sp, sp, #8
ARM GAS  C:\Users\DAVISS~1\AppData\Local\Temp\ccr8iJqP.s 			page 22


 890              		.cfi_def_cfa_offset 24
 891 0004 0500     		movs	r5, r0
 892              	.LVL121:
 297:BNO055-Sensor-Driver/bno_i2c.c ****     /* Variable used to return value of communication routine*/
 298:BNO055-Sensor-Driver/bno_i2c.c ****     BNO055_RETURN_FUNCTION_TYPE com_rslt = BNO055_ERROR;
 299:BNO055-Sensor-Driver/bno_i2c.c ****     u8 data_u8r = BNO055_INIT_VALUE;
 893              		.loc 1 299 0
 894 0006 0022     		movs	r2, #0
 895 0008 6B46     		mov	r3, sp
 896 000a DA71     		strb	r2, [r3, #7]
 897              	.LVL122:
 300:BNO055-Sensor-Driver/bno_i2c.c ****     s8 stat_s8 = BNO055_ERROR;
 301:BNO055-Sensor-Driver/bno_i2c.c **** 
 302:BNO055-Sensor-Driver/bno_i2c.c ****     /* Check the struct p_bno055 is empty*/
 303:BNO055-Sensor-Driver/bno_i2c.c ****     if (p_bno055 == NULL)
 898              		.loc 1 303 0
 899 000c 154B     		ldr	r3, .L57
 900 000e 1B68     		ldr	r3, [r3]
 901 0010 002B     		cmp	r3, #0
 902 0012 1FD0     		beq	.L54
 304:BNO055-Sensor-Driver/bno_i2c.c ****     {
 305:BNO055-Sensor-Driver/bno_i2c.c ****         return BNO055_E_NULL_PTR;
 306:BNO055-Sensor-Driver/bno_i2c.c ****     }
 307:BNO055-Sensor-Driver/bno_i2c.c ****     else
 308:BNO055-Sensor-Driver/bno_i2c.c ****     {
 309:BNO055-Sensor-Driver/bno_i2c.c ****         /*condition check for page, accel calib available in the page zero*/
 310:BNO055-Sensor-Driver/bno_i2c.c ****         if (p_bno055->page_id != BNO055_PAGE_ZERO)
 903              		.loc 1 310 0
 904 0014 1B79     		ldrb	r3, [r3, #4]
 905 0016 002B     		cmp	r3, #0
 906 0018 03D0     		beq	.L55
 311:BNO055-Sensor-Driver/bno_i2c.c ****         {
 312:BNO055-Sensor-Driver/bno_i2c.c ****             /* Write the page zero*/
 313:BNO055-Sensor-Driver/bno_i2c.c ****             stat_s8 = bno055_write_page_id(BNO055_PAGE_ZERO);
 907              		.loc 1 313 0
 908 001a 0020     		movs	r0, #0
 909              	.LVL123:
 910 001c FFF7FEFF 		bl	bno055_write_page_id
 911              	.LVL124:
 912 0020 01E0     		b	.L52
 913              	.LVL125:
 914              	.L55:
 300:BNO055-Sensor-Driver/bno_i2c.c **** 
 915              		.loc 1 300 0
 916 0022 0120     		movs	r0, #1
 917              	.LVL126:
 918 0024 4042     		rsbs	r0, r0, #0
 919              	.LVL127:
 920              	.L52:
 314:BNO055-Sensor-Driver/bno_i2c.c ****         }
 315:BNO055-Sensor-Driver/bno_i2c.c ****         if ((stat_s8 == BNO055_SUCCESS) || (p_bno055->page_id == BNO055_PAGE_ZERO))
 921              		.loc 1 315 0
 922 0026 0028     		cmp	r0, #0
 923 0028 04D0     		beq	.L53
 924              		.loc 1 315 0 is_stmt 0 discriminator 1
 925 002a 0E4B     		ldr	r3, .L57
 926 002c 1B68     		ldr	r3, [r3]
ARM GAS  C:\Users\DAVISS~1\AppData\Local\Temp\ccr8iJqP.s 			page 23


 927 002e 1B79     		ldrb	r3, [r3, #4]
 928 0030 002B     		cmp	r3, #0
 929 0032 12D1     		bne	.L56
 930              	.L53:
 316:BNO055-Sensor-Driver/bno_i2c.c ****         {
 317:BNO055-Sensor-Driver/bno_i2c.c ****             /* Read the accel calib stat_s8 */          
 318:BNO055-Sensor-Driver/bno_i2c.c ****             com_rslt = p_bno055->bus_read(p_bno055->dev_addr,BNO055_ACCEL_CALIB_STAT_REG,&data_u8r,
 931              		.loc 1 318 0 is_stmt 1
 932 0034 0B4B     		ldr	r3, .L57
 933 0036 1B68     		ldr	r3, [r3]
 934 0038 1E69     		ldr	r6, [r3, #16]
 935 003a 587A     		ldrb	r0, [r3, #9]
 936              	.LVL128:
 937 003c 6B46     		mov	r3, sp
 938 003e DC1D     		adds	r4, r3, #7
 939 0040 0123     		movs	r3, #1
 940 0042 2200     		movs	r2, r4
 941 0044 3521     		movs	r1, #53
 942 0046 B047     		blx	r6
 943              	.LVL129:
 319:BNO055-Sensor-Driver/bno_i2c.c ****             *accel_calib_u8 = BNO055_GET_BITSLICE(data_u8r, BNO055_ACCEL_CALIB_STAT);
 944              		.loc 1 319 0
 945 0048 2378     		ldrb	r3, [r4]
 946 004a 9B10     		asrs	r3, r3, #2
 947 004c 0322     		movs	r2, #3
 948 004e 1340     		ands	r3, r2
 949 0050 2B70     		strb	r3, [r5]
 950 0052 04E0     		b	.L51
 951              	.LVL130:
 952              	.L54:
 305:BNO055-Sensor-Driver/bno_i2c.c ****     }
 953              		.loc 1 305 0
 954 0054 7F20     		movs	r0, #127
 955              	.LVL131:
 956 0056 4042     		rsbs	r0, r0, #0
 957 0058 01E0     		b	.L51
 958              	.LVL132:
 959              	.L56:
 320:BNO055-Sensor-Driver/bno_i2c.c ****         }
 321:BNO055-Sensor-Driver/bno_i2c.c ****         else
 322:BNO055-Sensor-Driver/bno_i2c.c ****         {
 323:BNO055-Sensor-Driver/bno_i2c.c ****             com_rslt = BNO055_ERROR;
 960              		.loc 1 323 0
 961 005a 0120     		movs	r0, #1
 962              	.LVL133:
 963 005c 4042     		rsbs	r0, r0, #0
 964              	.LVL134:
 965              	.L51:
 324:BNO055-Sensor-Driver/bno_i2c.c ****         }
 325:BNO055-Sensor-Driver/bno_i2c.c ****     }
 326:BNO055-Sensor-Driver/bno_i2c.c **** 
 327:BNO055-Sensor-Driver/bno_i2c.c ****     return com_rslt;
 328:BNO055-Sensor-Driver/bno_i2c.c **** }
 966              		.loc 1 328 0
 967 005e 02B0     		add	sp, sp, #8
 968              		@ sp needed
 969              	.LVL135:
ARM GAS  C:\Users\DAVISS~1\AppData\Local\Temp\ccr8iJqP.s 			page 24


 970 0060 70BD     		pop	{r4, r5, r6, pc}
 971              	.L58:
 972 0062 C046     		.align	2
 973              	.L57:
 974 0064 00000000 		.word	.LANCHOR0
 975              		.cfi_endproc
 976              	.LFE41:
 977              		.size	bno055_get_accel_calib_stat, .-bno055_get_accel_calib_stat
 978              		.section	.text.bno055_get_gyro_calib_stat,"ax",%progbits
 979              		.align	2
 980              		.global	bno055_get_gyro_calib_stat
 981              		.code	16
 982              		.thumb_func
 983              		.type	bno055_get_gyro_calib_stat, %function
 984              	bno055_get_gyro_calib_stat:
 985              	.LFB42:
 329:BNO055-Sensor-Driver/bno_i2c.c **** 
 330:BNO055-Sensor-Driver/bno_i2c.c **** BNO055_RETURN_FUNCTION_TYPE bno055_get_gyro_calib_stat(u8 *gyro_calib_u8)
 331:BNO055-Sensor-Driver/bno_i2c.c **** {
 986              		.loc 1 331 0
 987              		.cfi_startproc
 988              		@ args = 0, pretend = 0, frame = 8
 989              		@ frame_needed = 0, uses_anonymous_args = 0
 990              	.LVL136:
 991 0000 70B5     		push	{r4, r5, r6, lr}
 992              		.cfi_def_cfa_offset 16
 993              		.cfi_offset 4, -16
 994              		.cfi_offset 5, -12
 995              		.cfi_offset 6, -8
 996              		.cfi_offset 14, -4
 997 0002 82B0     		sub	sp, sp, #8
 998              		.cfi_def_cfa_offset 24
 999 0004 0500     		movs	r5, r0
 1000              	.LVL137:
 332:BNO055-Sensor-Driver/bno_i2c.c ****     /* Variable used to return value of communication routine*/
 333:BNO055-Sensor-Driver/bno_i2c.c ****     BNO055_RETURN_FUNCTION_TYPE com_rslt = BNO055_ERROR;
 334:BNO055-Sensor-Driver/bno_i2c.c ****     u8 data_u8r = BNO055_INIT_VALUE;
 1001              		.loc 1 334 0
 1002 0006 0022     		movs	r2, #0
 1003 0008 6B46     		mov	r3, sp
 1004 000a DA71     		strb	r2, [r3, #7]
 1005              	.LVL138:
 335:BNO055-Sensor-Driver/bno_i2c.c ****     s8 stat_s8 = BNO055_ERROR;
 336:BNO055-Sensor-Driver/bno_i2c.c **** 
 337:BNO055-Sensor-Driver/bno_i2c.c ****     /* Check the struct p_bno055 is empty */
 338:BNO055-Sensor-Driver/bno_i2c.c ****     if (p_bno055 == NULL)
 1006              		.loc 1 338 0
 1007 000c 154B     		ldr	r3, .L66
 1008 000e 1B68     		ldr	r3, [r3]
 1009 0010 002B     		cmp	r3, #0
 1010 0012 1FD0     		beq	.L63
 339:BNO055-Sensor-Driver/bno_i2c.c ****     {
 340:BNO055-Sensor-Driver/bno_i2c.c ****         return BNO055_E_NULL_PTR;
 341:BNO055-Sensor-Driver/bno_i2c.c ****     }
 342:BNO055-Sensor-Driver/bno_i2c.c ****     else
 343:BNO055-Sensor-Driver/bno_i2c.c ****     {
 344:BNO055-Sensor-Driver/bno_i2c.c ****         /*condition check for page, gyro calib available in the page zero*/
ARM GAS  C:\Users\DAVISS~1\AppData\Local\Temp\ccr8iJqP.s 			page 25


 345:BNO055-Sensor-Driver/bno_i2c.c ****         if (p_bno055->page_id != BNO055_PAGE_ZERO)
 1011              		.loc 1 345 0
 1012 0014 1B79     		ldrb	r3, [r3, #4]
 1013 0016 002B     		cmp	r3, #0
 1014 0018 03D0     		beq	.L64
 346:BNO055-Sensor-Driver/bno_i2c.c ****         {
 347:BNO055-Sensor-Driver/bno_i2c.c ****             /* Write the page zero*/
 348:BNO055-Sensor-Driver/bno_i2c.c ****             stat_s8 = bno055_write_page_id(BNO055_PAGE_ZERO);
 1015              		.loc 1 348 0
 1016 001a 0020     		movs	r0, #0
 1017              	.LVL139:
 1018 001c FFF7FEFF 		bl	bno055_write_page_id
 1019              	.LVL140:
 1020 0020 01E0     		b	.L61
 1021              	.LVL141:
 1022              	.L64:
 335:BNO055-Sensor-Driver/bno_i2c.c **** 
 1023              		.loc 1 335 0
 1024 0022 0120     		movs	r0, #1
 1025              	.LVL142:
 1026 0024 4042     		rsbs	r0, r0, #0
 1027              	.LVL143:
 1028              	.L61:
 349:BNO055-Sensor-Driver/bno_i2c.c ****         }
 350:BNO055-Sensor-Driver/bno_i2c.c ****         if ((stat_s8 == BNO055_SUCCESS) || (p_bno055->page_id == BNO055_PAGE_ZERO))
 1029              		.loc 1 350 0
 1030 0026 0028     		cmp	r0, #0
 1031 0028 04D0     		beq	.L62
 1032              		.loc 1 350 0 is_stmt 0 discriminator 1
 1033 002a 0E4B     		ldr	r3, .L66
 1034 002c 1B68     		ldr	r3, [r3]
 1035 002e 1B79     		ldrb	r3, [r3, #4]
 1036 0030 002B     		cmp	r3, #0
 1037 0032 12D1     		bne	.L65
 1038              	.L62:
 351:BNO055-Sensor-Driver/bno_i2c.c ****         {
 352:BNO055-Sensor-Driver/bno_i2c.c ****             /* Read the gyro calib status */
 353:BNO055-Sensor-Driver/bno_i2c.c ****            
 354:BNO055-Sensor-Driver/bno_i2c.c ****             com_rslt = p_bno055->bus_read(p_bno055->dev_addr,BNO055_GYRO_CALIB_STAT_REG,&data_u8r,B
 1039              		.loc 1 354 0 is_stmt 1
 1040 0034 0B4B     		ldr	r3, .L66
 1041 0036 1B68     		ldr	r3, [r3]
 1042 0038 1E69     		ldr	r6, [r3, #16]
 1043 003a 587A     		ldrb	r0, [r3, #9]
 1044              	.LVL144:
 1045 003c 6B46     		mov	r3, sp
 1046 003e DC1D     		adds	r4, r3, #7
 1047 0040 0123     		movs	r3, #1
 1048 0042 2200     		movs	r2, r4
 1049 0044 3521     		movs	r1, #53
 1050 0046 B047     		blx	r6
 1051              	.LVL145:
 355:BNO055-Sensor-Driver/bno_i2c.c ****             *gyro_calib_u8 = BNO055_GET_BITSLICE(data_u8r, BNO055_GYRO_CALIB_STAT);
 1052              		.loc 1 355 0
 1053 0048 2378     		ldrb	r3, [r4]
 1054 004a 1B11     		asrs	r3, r3, #4
 1055 004c 0322     		movs	r2, #3
ARM GAS  C:\Users\DAVISS~1\AppData\Local\Temp\ccr8iJqP.s 			page 26


 1056 004e 1340     		ands	r3, r2
 1057 0050 2B70     		strb	r3, [r5]
 1058 0052 04E0     		b	.L60
 1059              	.LVL146:
 1060              	.L63:
 340:BNO055-Sensor-Driver/bno_i2c.c ****     }
 1061              		.loc 1 340 0
 1062 0054 7F20     		movs	r0, #127
 1063              	.LVL147:
 1064 0056 4042     		rsbs	r0, r0, #0
 1065 0058 01E0     		b	.L60
 1066              	.LVL148:
 1067              	.L65:
 356:BNO055-Sensor-Driver/bno_i2c.c ****         }
 357:BNO055-Sensor-Driver/bno_i2c.c ****         else
 358:BNO055-Sensor-Driver/bno_i2c.c ****         {
 359:BNO055-Sensor-Driver/bno_i2c.c ****             com_rslt = BNO055_ERROR;
 1068              		.loc 1 359 0
 1069 005a 0120     		movs	r0, #1
 1070              	.LVL149:
 1071 005c 4042     		rsbs	r0, r0, #0
 1072              	.LVL150:
 1073              	.L60:
 360:BNO055-Sensor-Driver/bno_i2c.c ****         }
 361:BNO055-Sensor-Driver/bno_i2c.c ****     }
 362:BNO055-Sensor-Driver/bno_i2c.c **** 
 363:BNO055-Sensor-Driver/bno_i2c.c ****     return com_rslt;
 364:BNO055-Sensor-Driver/bno_i2c.c **** }
 1074              		.loc 1 364 0
 1075 005e 02B0     		add	sp, sp, #8
 1076              		@ sp needed
 1077              	.LVL151:
 1078 0060 70BD     		pop	{r4, r5, r6, pc}
 1079              	.L67:
 1080 0062 C046     		.align	2
 1081              	.L66:
 1082 0064 00000000 		.word	.LANCHOR0
 1083              		.cfi_endproc
 1084              	.LFE42:
 1085              		.size	bno055_get_gyro_calib_stat, .-bno055_get_gyro_calib_stat
 1086              		.section	.text.bno055_read_linear_accel_xyz,"ax",%progbits
 1087              		.align	2
 1088              		.global	bno055_read_linear_accel_xyz
 1089              		.code	16
 1090              		.thumb_func
 1091              		.type	bno055_read_linear_accel_xyz, %function
 1092              	bno055_read_linear_accel_xyz:
 1093              	.LFB43:
 365:BNO055-Sensor-Driver/bno_i2c.c **** 
 366:BNO055-Sensor-Driver/bno_i2c.c **** BNO055_RETURN_FUNCTION_TYPE bno055_read_linear_accel_xyz(struct bno055_linear_accel_t *linear_accel
 367:BNO055-Sensor-Driver/bno_i2c.c **** {
 1094              		.loc 1 367 0
 1095              		.cfi_startproc
 1096              		@ args = 0, pretend = 0, frame = 8
 1097              		@ frame_needed = 0, uses_anonymous_args = 0
 1098              	.LVL152:
 1099 0000 30B5     		push	{r4, r5, lr}
ARM GAS  C:\Users\DAVISS~1\AppData\Local\Temp\ccr8iJqP.s 			page 27


 1100              		.cfi_def_cfa_offset 12
 1101              		.cfi_offset 4, -12
 1102              		.cfi_offset 5, -8
 1103              		.cfi_offset 14, -4
 1104 0002 83B0     		sub	sp, sp, #12
 1105              		.cfi_def_cfa_offset 24
 1106 0004 0400     		movs	r4, r0
 1107              	.LVL153:
 368:BNO055-Sensor-Driver/bno_i2c.c ****     /* Variable used to return value of communication routine*/
 369:BNO055-Sensor-Driver/bno_i2c.c ****     BNO055_RETURN_FUNCTION_TYPE com_rslt = BNO055_ERROR;
 370:BNO055-Sensor-Driver/bno_i2c.c **** 
 371:BNO055-Sensor-Driver/bno_i2c.c ****     /* Array holding the linear accel xyz value
 372:BNO055-Sensor-Driver/bno_i2c.c ****      * data_u8[BNO055_SENSOR_DATA_XYZ_X_LSB] - x->LSB
 373:BNO055-Sensor-Driver/bno_i2c.c ****      * data_u8[BNO055_SENSOR_DATA_XYZ_X_MSB] - x->MSB
 374:BNO055-Sensor-Driver/bno_i2c.c ****      * data_u8[BNO055_SENSOR_DATA_XYZ_Y_LSB] - y->MSB
 375:BNO055-Sensor-Driver/bno_i2c.c ****      * data_u8[BNO055_SENSOR_DATA_XYZ_Y_MSB] - y->MSB
 376:BNO055-Sensor-Driver/bno_i2c.c ****      * data_u8[BNO055_SENSOR_DATA_XYZ_Z_LSB] - z->MSB
 377:BNO055-Sensor-Driver/bno_i2c.c ****      * data_u8[BNO055_SENSOR_DATA_XYZ_Z_MSB] - z->MSB
 378:BNO055-Sensor-Driver/bno_i2c.c ****      */
 379:BNO055-Sensor-Driver/bno_i2c.c ****     u8 data_u8[BNO055_ACCEL_XYZ_DATA_SIZE] = {
 1108              		.loc 1 379 0
 1109 0006 0622     		movs	r2, #6
 1110 0008 0021     		movs	r1, #0
 1111 000a 6846     		mov	r0, sp
 1112              	.LVL154:
 1113 000c FFF7FEFF 		bl	memset
 1114              	.LVL155:
 380:BNO055-Sensor-Driver/bno_i2c.c ****         BNO055_INIT_VALUE, BNO055_INIT_VALUE, BNO055_INIT_VALUE, BNO055_INIT_VALUE, BNO055_INIT_VAL
 381:BNO055-Sensor-Driver/bno_i2c.c ****     };
 382:BNO055-Sensor-Driver/bno_i2c.c ****     s8 stat_s8 = BNO055_ERROR;
 383:BNO055-Sensor-Driver/bno_i2c.c **** 
 384:BNO055-Sensor-Driver/bno_i2c.c ****     /* Check the struct p_bno055 is empty */
 385:BNO055-Sensor-Driver/bno_i2c.c ****     if (p_bno055 == NULL)
 1115              		.loc 1 385 0
 1116 0010 1C4B     		ldr	r3, .L75
 1117 0012 1B68     		ldr	r3, [r3]
 1118 0014 002B     		cmp	r3, #0
 1119 0016 2DD0     		beq	.L72
 386:BNO055-Sensor-Driver/bno_i2c.c ****     {
 387:BNO055-Sensor-Driver/bno_i2c.c ****         return BNO055_E_NULL_PTR;
 388:BNO055-Sensor-Driver/bno_i2c.c ****     }
 389:BNO055-Sensor-Driver/bno_i2c.c ****     else
 390:BNO055-Sensor-Driver/bno_i2c.c ****     {
 391:BNO055-Sensor-Driver/bno_i2c.c ****         /*condition check for page, chip id is available in the page zero*/
 392:BNO055-Sensor-Driver/bno_i2c.c ****         if (p_bno055->page_id != BNO055_PAGE_ZERO)
 1120              		.loc 1 392 0
 1121 0018 1B79     		ldrb	r3, [r3, #4]
 1122 001a 002B     		cmp	r3, #0
 1123 001c 03D0     		beq	.L73
 393:BNO055-Sensor-Driver/bno_i2c.c ****         {
 394:BNO055-Sensor-Driver/bno_i2c.c ****             /* Write the page zero*/
 395:BNO055-Sensor-Driver/bno_i2c.c ****             stat_s8 = bno055_write_page_id(BNO055_PAGE_ZERO);
 1124              		.loc 1 395 0
 1125 001e 0020     		movs	r0, #0
 1126 0020 FFF7FEFF 		bl	bno055_write_page_id
 1127              	.LVL156:
 1128 0024 01E0     		b	.L70
ARM GAS  C:\Users\DAVISS~1\AppData\Local\Temp\ccr8iJqP.s 			page 28


 1129              	.LVL157:
 1130              	.L73:
 382:BNO055-Sensor-Driver/bno_i2c.c **** 
 1131              		.loc 1 382 0
 1132 0026 0120     		movs	r0, #1
 1133 0028 4042     		rsbs	r0, r0, #0
 1134              	.LVL158:
 1135              	.L70:
 396:BNO055-Sensor-Driver/bno_i2c.c ****         }
 397:BNO055-Sensor-Driver/bno_i2c.c ****         if ((stat_s8 == BNO055_SUCCESS) || (p_bno055->page_id == BNO055_PAGE_ZERO))
 1136              		.loc 1 397 0
 1137 002a 0028     		cmp	r0, #0
 1138 002c 04D0     		beq	.L71
 1139              		.loc 1 397 0 is_stmt 0 discriminator 1
 1140 002e 154B     		ldr	r3, .L75
 1141 0030 1B68     		ldr	r3, [r3]
 1142 0032 1B79     		ldrb	r3, [r3, #4]
 1143 0034 002B     		cmp	r3, #0
 1144 0036 20D1     		bne	.L74
 1145              	.L71:
 398:BNO055-Sensor-Driver/bno_i2c.c ****         {
 399:BNO055-Sensor-Driver/bno_i2c.c ****             /* Read the six byte value of linear accel xyz data*/
 400:BNO055-Sensor-Driver/bno_i2c.c ****            
 401:BNO055-Sensor-Driver/bno_i2c.c ****             com_rslt = p_bno055->bus_read(p_bno055->dev_addr,BNO055_LINEAR_ACCEL_DATA_X_LSB_VALUEX_
 1146              		.loc 1 401 0 is_stmt 1
 1147 0038 124B     		ldr	r3, .L75
 1148 003a 1B68     		ldr	r3, [r3]
 1149 003c 1D69     		ldr	r5, [r3, #16]
 1150 003e 587A     		ldrb	r0, [r3, #9]
 1151              	.LVL159:
 1152 0040 0623     		movs	r3, #6
 1153 0042 6A46     		mov	r2, sp
 1154 0044 2821     		movs	r1, #40
 1155 0046 A847     		blx	r5
 1156              	.LVL160:
 402:BNO055-Sensor-Driver/bno_i2c.c **** 
 403:BNO055-Sensor-Driver/bno_i2c.c ****             /* Data x*/
 404:BNO055-Sensor-Driver/bno_i2c.c ****             data_u8[BNO055_SENSOR_DATA_XYZ_X_LSB] = BNO055_GET_BITSLICE(data_u8[BNO055_SENSOR_DATA_
 1157              		.loc 1 404 0
 1158 0048 6B46     		mov	r3, sp
 1159 004a 1A78     		ldrb	r2, [r3]
 405:BNO055-Sensor-Driver/bno_i2c.c ****                                                                         BNO055_LINEAR_ACCEL_DATA_X_
 406:BNO055-Sensor-Driver/bno_i2c.c ****             data_u8[BNO055_SENSOR_DATA_XYZ_X_MSB] = BNO055_GET_BITSLICE(data_u8[BNO055_SENSOR_DATA_
 407:BNO055-Sensor-Driver/bno_i2c.c ****                                                                         BNO055_LINEAR_ACCEL_DATA_X_
 408:BNO055-Sensor-Driver/bno_i2c.c ****             linear_accel->x =
 409:BNO055-Sensor-Driver/bno_i2c.c ****                 (s16)((((s32)((s8)data_u8[BNO055_SENSOR_DATA_XYZ_X_MSB])) << BNO055_SHIFT_EIGHT_BIT
 1160              		.loc 1 409 0
 1161 004c 5B78     		ldrb	r3, [r3, #1]
 1162 004e 5BB2     		sxtb	r3, r3
 1163 0050 1B02     		lsls	r3, r3, #8
 1164 0052 1343     		orrs	r3, r2
 408:BNO055-Sensor-Driver/bno_i2c.c ****                 (s16)((((s32)((s8)data_u8[BNO055_SENSOR_DATA_XYZ_X_MSB])) << BNO055_SHIFT_EIGHT_BIT
 1165              		.loc 1 408 0
 1166 0054 2380     		strh	r3, [r4]
 410:BNO055-Sensor-Driver/bno_i2c.c ****                       (data_u8[BNO055_SENSOR_DATA_XYZ_X_LSB]));
 411:BNO055-Sensor-Driver/bno_i2c.c **** 
 412:BNO055-Sensor-Driver/bno_i2c.c ****             /* Data y*/
ARM GAS  C:\Users\DAVISS~1\AppData\Local\Temp\ccr8iJqP.s 			page 29


 413:BNO055-Sensor-Driver/bno_i2c.c ****             data_u8[BNO055_SENSOR_DATA_XYZ_Y_LSB] = BNO055_GET_BITSLICE(data_u8[BNO055_SENSOR_DATA_
 1167              		.loc 1 413 0
 1168 0056 6B46     		mov	r3, sp
 1169 0058 9A78     		ldrb	r2, [r3, #2]
 414:BNO055-Sensor-Driver/bno_i2c.c ****                                                                         BNO055_LINEAR_ACCEL_DATA_Y_
 415:BNO055-Sensor-Driver/bno_i2c.c ****             data_u8[BNO055_SENSOR_DATA_XYZ_Y_MSB] = BNO055_GET_BITSLICE(data_u8[BNO055_SENSOR_DATA_
 416:BNO055-Sensor-Driver/bno_i2c.c ****                                                                         BNO055_LINEAR_ACCEL_DATA_Y_
 417:BNO055-Sensor-Driver/bno_i2c.c ****             linear_accel->y =
 418:BNO055-Sensor-Driver/bno_i2c.c ****                 (s16)((((s32)((s8)data_u8[BNO055_SENSOR_DATA_XYZ_Y_MSB])) << BNO055_SHIFT_EIGHT_BIT
 1170              		.loc 1 418 0
 1171 005a DB78     		ldrb	r3, [r3, #3]
 1172 005c 5BB2     		sxtb	r3, r3
 1173 005e 1B02     		lsls	r3, r3, #8
 1174 0060 1343     		orrs	r3, r2
 417:BNO055-Sensor-Driver/bno_i2c.c ****                 (s16)((((s32)((s8)data_u8[BNO055_SENSOR_DATA_XYZ_Y_MSB])) << BNO055_SHIFT_EIGHT_BIT
 1175              		.loc 1 417 0
 1176 0062 6380     		strh	r3, [r4, #2]
 419:BNO055-Sensor-Driver/bno_i2c.c ****                       (data_u8[BNO055_SENSOR_DATA_XYZ_Y_LSB]));
 420:BNO055-Sensor-Driver/bno_i2c.c **** 
 421:BNO055-Sensor-Driver/bno_i2c.c ****             /* Data z*/
 422:BNO055-Sensor-Driver/bno_i2c.c ****             data_u8[BNO055_SENSOR_DATA_XYZ_Z_LSB] = BNO055_GET_BITSLICE(data_u8[BNO055_SENSOR_DATA_
 1177              		.loc 1 422 0
 1178 0064 6B46     		mov	r3, sp
 1179 0066 1A79     		ldrb	r2, [r3, #4]
 423:BNO055-Sensor-Driver/bno_i2c.c ****                                                                         BNO055_LINEAR_ACCEL_DATA_Z_
 424:BNO055-Sensor-Driver/bno_i2c.c ****             data_u8[BNO055_SENSOR_DATA_XYZ_Z_MSB] = BNO055_GET_BITSLICE(data_u8[BNO055_SENSOR_DATA_
 425:BNO055-Sensor-Driver/bno_i2c.c ****                                                                         BNO055_LINEAR_ACCEL_DATA_Z_
 426:BNO055-Sensor-Driver/bno_i2c.c ****             linear_accel->z =
 427:BNO055-Sensor-Driver/bno_i2c.c ****                 (s16)((((s32)((s8)data_u8[BNO055_SENSOR_DATA_XYZ_Z_MSB])) << BNO055_SHIFT_EIGHT_BIT
 1180              		.loc 1 427 0
 1181 0068 5B79     		ldrb	r3, [r3, #5]
 1182 006a 5BB2     		sxtb	r3, r3
 1183 006c 1B02     		lsls	r3, r3, #8
 1184 006e 1343     		orrs	r3, r2
 426:BNO055-Sensor-Driver/bno_i2c.c ****                 (s16)((((s32)((s8)data_u8[BNO055_SENSOR_DATA_XYZ_Z_MSB])) << BNO055_SHIFT_EIGHT_BIT
 1185              		.loc 1 426 0
 1186 0070 A380     		strh	r3, [r4, #4]
 1187 0072 04E0     		b	.L69
 1188              	.LVL161:
 1189              	.L72:
 387:BNO055-Sensor-Driver/bno_i2c.c ****     }
 1190              		.loc 1 387 0
 1191 0074 7F20     		movs	r0, #127
 1192 0076 4042     		rsbs	r0, r0, #0
 1193 0078 01E0     		b	.L69
 1194              	.LVL162:
 1195              	.L74:
 428:BNO055-Sensor-Driver/bno_i2c.c ****                       (data_u8[BNO055_SENSOR_DATA_XYZ_Z_LSB]));
 429:BNO055-Sensor-Driver/bno_i2c.c ****         }
 430:BNO055-Sensor-Driver/bno_i2c.c ****         else
 431:BNO055-Sensor-Driver/bno_i2c.c ****         {
 432:BNO055-Sensor-Driver/bno_i2c.c ****             com_rslt = BNO055_ERROR;
 1196              		.loc 1 432 0
 1197 007a 0120     		movs	r0, #1
 1198              	.LVL163:
 1199 007c 4042     		rsbs	r0, r0, #0
 1200              	.LVL164:
ARM GAS  C:\Users\DAVISS~1\AppData\Local\Temp\ccr8iJqP.s 			page 30


 1201              	.L69:
 433:BNO055-Sensor-Driver/bno_i2c.c ****         }
 434:BNO055-Sensor-Driver/bno_i2c.c ****     }
 435:BNO055-Sensor-Driver/bno_i2c.c **** 
 436:BNO055-Sensor-Driver/bno_i2c.c ****     return com_rslt;
 437:BNO055-Sensor-Driver/bno_i2c.c **** }
 1202              		.loc 1 437 0
 1203 007e 03B0     		add	sp, sp, #12
 1204              		@ sp needed
 1205              	.LVL165:
 1206 0080 30BD     		pop	{r4, r5, pc}
 1207              	.L76:
 1208 0082 C046     		.align	2
 1209              	.L75:
 1210 0084 00000000 		.word	.LANCHOR0
 1211              		.cfi_endproc
 1212              	.LFE43:
 1213              		.size	bno055_read_linear_accel_xyz, .-bno055_read_linear_accel_xyz
 1214              		.global	__aeabi_i2d
 1215              		.global	__aeabi_ddiv
 1216              		.section	.text.bno055_convert_double_linear_accel_xyz_msq,"ax",%progbits
 1217              		.align	2
 1218              		.global	bno055_convert_double_linear_accel_xyz_msq
 1219              		.code	16
 1220              		.thumb_func
 1221              		.type	bno055_convert_double_linear_accel_xyz_msq, %function
 1222              	bno055_convert_double_linear_accel_xyz_msq:
 1223              	.LFB44:
 438:BNO055-Sensor-Driver/bno_i2c.c **** 
 439:BNO055-Sensor-Driver/bno_i2c.c **** BNO055_RETURN_FUNCTION_TYPE bno055_convert_double_linear_accel_xyz_msq(
 440:BNO055-Sensor-Driver/bno_i2c.c ****     struct bno055_linear_accel_double_t *linear_accel_xyz)
 441:BNO055-Sensor-Driver/bno_i2c.c **** {
 1224              		.loc 1 441 0
 1225              		.cfi_startproc
 1226              		@ args = 0, pretend = 0, frame = 8
 1227              		@ frame_needed = 0, uses_anonymous_args = 0
 1228              	.LVL166:
 1229 0000 30B5     		push	{r4, r5, lr}
 1230              		.cfi_def_cfa_offset 12
 1231              		.cfi_offset 4, -12
 1232              		.cfi_offset 5, -8
 1233              		.cfi_offset 14, -4
 1234 0002 83B0     		sub	sp, sp, #12
 1235              		.cfi_def_cfa_offset 24
 1236 0004 0500     		movs	r5, r0
 1237              	.LVL167:
 442:BNO055-Sensor-Driver/bno_i2c.c ****     /* Variable used to return value of communication routine*/
 443:BNO055-Sensor-Driver/bno_i2c.c ****     BNO055_RETURN_FUNCTION_TYPE com_rslt = BNO055_ERROR;
 444:BNO055-Sensor-Driver/bno_i2c.c ****     struct bno055_linear_accel_t reg_linear_accel_xyz = { BNO055_INIT_VALUE, BNO055_INIT_VALUE, BNO
 1238              		.loc 1 444 0
 1239 0006 0023     		movs	r3, #0
 1240 0008 6A46     		mov	r2, sp
 1241 000a 1380     		strh	r3, [r2]
 1242 000c 5380     		strh	r3, [r2, #2]
 1243 000e 9380     		strh	r3, [r2, #4]
 445:BNO055-Sensor-Driver/bno_i2c.c **** 
 446:BNO055-Sensor-Driver/bno_i2c.c ****     /* Read the raw xyz of linear accel */
ARM GAS  C:\Users\DAVISS~1\AppData\Local\Temp\ccr8iJqP.s 			page 31


 447:BNO055-Sensor-Driver/bno_i2c.c ****     com_rslt = bno055_read_linear_accel_xyz(&reg_linear_accel_xyz);
 1244              		.loc 1 447 0
 1245 0010 6846     		mov	r0, sp
 1246              	.LVL168:
 1247 0012 FFF7FEFF 		bl	bno055_read_linear_accel_xyz
 1248              	.LVL169:
 1249 0016 041E     		subs	r4, r0, #0
 1250              	.LVL170:
 448:BNO055-Sensor-Driver/bno_i2c.c ****     if (com_rslt == BNO055_SUCCESS)
 1251              		.loc 1 448 0
 1252 0018 21D1     		bne	.L79
 449:BNO055-Sensor-Driver/bno_i2c.c ****     {
 450:BNO055-Sensor-Driver/bno_i2c.c ****         /* Convert the raw xyz of linear accel to m/s2 */
 451:BNO055-Sensor-Driver/bno_i2c.c ****         linear_accel_xyz->x = (double)(reg_linear_accel_xyz.x / BNO055_LINEAR_ACCEL_DIV_MSQ);
 1253              		.loc 1 451 0
 1254 001a 6B46     		mov	r3, sp
 1255 001c 0020     		movs	r0, #0
 1256 001e 185E     		ldrsh	r0, [r3, r0]
 1257              	.LVL171:
 1258 0020 FFF7FEFF 		bl	__aeabi_i2d
 1259              	.LVL172:
 1260 0024 0022     		movs	r2, #0
 1261 0026 104B     		ldr	r3, .L80
 1262 0028 FFF7FEFF 		bl	__aeabi_ddiv
 1263              	.LVL173:
 1264 002c 2860     		str	r0, [r5]
 1265 002e 6960     		str	r1, [r5, #4]
 452:BNO055-Sensor-Driver/bno_i2c.c ****         linear_accel_xyz->y = (double)(reg_linear_accel_xyz.y / BNO055_LINEAR_ACCEL_DIV_MSQ);
 1266              		.loc 1 452 0
 1267 0030 6B46     		mov	r3, sp
 1268 0032 0220     		movs	r0, #2
 1269 0034 185E     		ldrsh	r0, [r3, r0]
 1270 0036 FFF7FEFF 		bl	__aeabi_i2d
 1271              	.LVL174:
 1272 003a 0022     		movs	r2, #0
 1273 003c 0A4B     		ldr	r3, .L80
 1274 003e FFF7FEFF 		bl	__aeabi_ddiv
 1275              	.LVL175:
 1276 0042 A860     		str	r0, [r5, #8]
 1277 0044 E960     		str	r1, [r5, #12]
 453:BNO055-Sensor-Driver/bno_i2c.c ****         linear_accel_xyz->z = (double)(reg_linear_accel_xyz.z / BNO055_LINEAR_ACCEL_DIV_MSQ);
 1278              		.loc 1 453 0
 1279 0046 6B46     		mov	r3, sp
 1280 0048 0420     		movs	r0, #4
 1281 004a 185E     		ldrsh	r0, [r3, r0]
 1282 004c FFF7FEFF 		bl	__aeabi_i2d
 1283              	.LVL176:
 1284 0050 0022     		movs	r2, #0
 1285 0052 054B     		ldr	r3, .L80
 1286 0054 FFF7FEFF 		bl	__aeabi_ddiv
 1287              	.LVL177:
 1288 0058 2861     		str	r0, [r5, #16]
 1289 005a 6961     		str	r1, [r5, #20]
 1290 005c 01E0     		b	.L78
 1291              	.LVL178:
 1292              	.L79:
 454:BNO055-Sensor-Driver/bno_i2c.c ****     }
ARM GAS  C:\Users\DAVISS~1\AppData\Local\Temp\ccr8iJqP.s 			page 32


 455:BNO055-Sensor-Driver/bno_i2c.c ****     else
 456:BNO055-Sensor-Driver/bno_i2c.c ****     {
 457:BNO055-Sensor-Driver/bno_i2c.c ****         com_rslt = BNO055_ERROR;
 1293              		.loc 1 457 0
 1294 005e 0124     		movs	r4, #1
 1295 0060 6442     		rsbs	r4, r4, #0
 1296              	.LVL179:
 1297              	.L78:
 458:BNO055-Sensor-Driver/bno_i2c.c ****     }
 459:BNO055-Sensor-Driver/bno_i2c.c **** 
 460:BNO055-Sensor-Driver/bno_i2c.c ****     return com_rslt;
 461:BNO055-Sensor-Driver/bno_i2c.c **** }
 1298              		.loc 1 461 0
 1299 0062 2000     		movs	r0, r4
 1300 0064 03B0     		add	sp, sp, #12
 1301              		@ sp needed
 1302              	.LVL180:
 1303              	.LVL181:
 1304 0066 30BD     		pop	{r4, r5, pc}
 1305              	.L81:
 1306              		.align	2
 1307              	.L80:
 1308 0068 00005940 		.word	1079574528
 1309              		.cfi_endproc
 1310              	.LFE44:
 1311              		.size	bno055_convert_double_linear_accel_xyz_msq, .-bno055_convert_double_linear_accel_xyz_msq
 1312              		.section	.text.bno055_read_quaternion_wxyz,"ax",%progbits
 1313              		.align	2
 1314              		.global	bno055_read_quaternion_wxyz
 1315              		.code	16
 1316              		.thumb_func
 1317              		.type	bno055_read_quaternion_wxyz, %function
 1318              	bno055_read_quaternion_wxyz:
 1319              	.LFB45:
 462:BNO055-Sensor-Driver/bno_i2c.c **** 
 463:BNO055-Sensor-Driver/bno_i2c.c **** BNO055_RETURN_FUNCTION_TYPE bno055_read_quaternion_wxyz(struct bno055_quaternion_t *quaternion)
 464:BNO055-Sensor-Driver/bno_i2c.c **** {
 1320              		.loc 1 464 0
 1321              		.cfi_startproc
 1322              		@ args = 0, pretend = 0, frame = 8
 1323              		@ frame_needed = 0, uses_anonymous_args = 0
 1324              	.LVL182:
 1325 0000 30B5     		push	{r4, r5, lr}
 1326              		.cfi_def_cfa_offset 12
 1327              		.cfi_offset 4, -12
 1328              		.cfi_offset 5, -8
 1329              		.cfi_offset 14, -4
 1330 0002 83B0     		sub	sp, sp, #12
 1331              		.cfi_def_cfa_offset 24
 1332 0004 0400     		movs	r4, r0
 1333              	.LVL183:
 465:BNO055-Sensor-Driver/bno_i2c.c ****     /* Variable used to return value of communication routine*/
 466:BNO055-Sensor-Driver/bno_i2c.c ****     BNO055_RETURN_FUNCTION_TYPE com_rslt = BNO055_ERROR;
 467:BNO055-Sensor-Driver/bno_i2c.c **** 
 468:BNO055-Sensor-Driver/bno_i2c.c ****     /* Array holding the quaternion wxyz value
 469:BNO055-Sensor-Driver/bno_i2c.c ****      * data_u8[BNO055_SENSOR_DATA_QUATERNION_WXYZ_W_LSB] - w->LSB
 470:BNO055-Sensor-Driver/bno_i2c.c ****      * data_u8[BNO055_SENSOR_DATA_QUATERNION_WXYZ_W_MSB] - w->MSB
ARM GAS  C:\Users\DAVISS~1\AppData\Local\Temp\ccr8iJqP.s 			page 33


 471:BNO055-Sensor-Driver/bno_i2c.c ****      * data_u8[BNO055_SENSOR_DATA_QUATERNION_WXYZ_X_LSB] - x->LSB
 472:BNO055-Sensor-Driver/bno_i2c.c ****      * data_u8[BNO055_SENSOR_DATA_QUATERNION_WXYZ_X_MSB] - x->MSB
 473:BNO055-Sensor-Driver/bno_i2c.c ****      * data_u8[BNO055_SENSOR_DATA_QUATERNION_WXYZ_Y_LSB] - y->MSB
 474:BNO055-Sensor-Driver/bno_i2c.c ****      * data_u8[BNO055_SENSOR_DATA_QUATERNION_WXYZ_Y_MSB] - y->MSB
 475:BNO055-Sensor-Driver/bno_i2c.c ****      * data_u8[BNO055_SENSOR_DATA_QUATERNION_WXYZ_Z_LSB] - z->MSB
 476:BNO055-Sensor-Driver/bno_i2c.c ****      * data_u8[BNO055_SENSOR_DATA_QUATERNION_WXYZ_Z_MSB] - z->MSB
 477:BNO055-Sensor-Driver/bno_i2c.c ****      */
 478:BNO055-Sensor-Driver/bno_i2c.c ****     u8 data_u8[BNO055_QUATERNION_WXYZ_DATA_SIZE] = {
 1334              		.loc 1 478 0
 1335 0006 0822     		movs	r2, #8
 1336 0008 0021     		movs	r1, #0
 1337 000a 6846     		mov	r0, sp
 1338              	.LVL184:
 1339 000c FFF7FEFF 		bl	memset
 1340              	.LVL185:
 479:BNO055-Sensor-Driver/bno_i2c.c ****         BNO055_INIT_VALUE, BNO055_INIT_VALUE, BNO055_INIT_VALUE, BNO055_INIT_VALUE, BNO055_INIT_VAL
 480:BNO055-Sensor-Driver/bno_i2c.c ****         BNO055_INIT_VALUE, BNO055_INIT_VALUE, BNO055_INIT_VALUE};
 481:BNO055-Sensor-Driver/bno_i2c.c ****     s8 stat_s8 = BNO055_ERROR;
 482:BNO055-Sensor-Driver/bno_i2c.c **** 
 483:BNO055-Sensor-Driver/bno_i2c.c ****     /* Check the struct p_bno055 is empty */
 484:BNO055-Sensor-Driver/bno_i2c.c ****     if (p_bno055 == NULL)
 1341              		.loc 1 484 0
 1342 0010 1F4B     		ldr	r3, .L89
 1343 0012 1B68     		ldr	r3, [r3]
 1344 0014 002B     		cmp	r3, #0
 1345 0016 34D0     		beq	.L86
 485:BNO055-Sensor-Driver/bno_i2c.c ****     {
 486:BNO055-Sensor-Driver/bno_i2c.c ****         return BNO055_E_NULL_PTR;
 487:BNO055-Sensor-Driver/bno_i2c.c ****     }
 488:BNO055-Sensor-Driver/bno_i2c.c ****     else
 489:BNO055-Sensor-Driver/bno_i2c.c ****     {
 490:BNO055-Sensor-Driver/bno_i2c.c ****         /*condition check for page, chip id isbavailable in the page zero*/
 491:BNO055-Sensor-Driver/bno_i2c.c ****         if (p_bno055->page_id != BNO055_PAGE_ZERO)
 1346              		.loc 1 491 0
 1347 0018 1B79     		ldrb	r3, [r3, #4]
 1348 001a 002B     		cmp	r3, #0
 1349 001c 03D0     		beq	.L87
 492:BNO055-Sensor-Driver/bno_i2c.c ****         {
 493:BNO055-Sensor-Driver/bno_i2c.c ****             /* Write the page zero*/
 494:BNO055-Sensor-Driver/bno_i2c.c ****             stat_s8 = bno055_write_page_id(BNO055_PAGE_ZERO);
 1350              		.loc 1 494 0
 1351 001e 0020     		movs	r0, #0
 1352 0020 FFF7FEFF 		bl	bno055_write_page_id
 1353              	.LVL186:
 1354 0024 01E0     		b	.L84
 1355              	.LVL187:
 1356              	.L87:
 481:BNO055-Sensor-Driver/bno_i2c.c **** 
 1357              		.loc 1 481 0
 1358 0026 0120     		movs	r0, #1
 1359 0028 4042     		rsbs	r0, r0, #0
 1360              	.LVL188:
 1361              	.L84:
 495:BNO055-Sensor-Driver/bno_i2c.c ****         }
 496:BNO055-Sensor-Driver/bno_i2c.c ****         if ((stat_s8 == BNO055_SUCCESS) || (p_bno055->page_id == BNO055_PAGE_ZERO))
 1362              		.loc 1 496 0
 1363 002a 0028     		cmp	r0, #0
ARM GAS  C:\Users\DAVISS~1\AppData\Local\Temp\ccr8iJqP.s 			page 34


 1364 002c 04D0     		beq	.L85
 1365              		.loc 1 496 0 is_stmt 0 discriminator 1
 1366 002e 184B     		ldr	r3, .L89
 1367 0030 1B68     		ldr	r3, [r3]
 1368 0032 1B79     		ldrb	r3, [r3, #4]
 1369 0034 002B     		cmp	r3, #0
 1370 0036 27D1     		bne	.L88
 1371              	.L85:
 497:BNO055-Sensor-Driver/bno_i2c.c ****         {
 498:BNO055-Sensor-Driver/bno_i2c.c ****             /* Read the eight byte valuebof quaternion wxyz data*/
 499:BNO055-Sensor-Driver/bno_i2c.c ****           
 500:BNO055-Sensor-Driver/bno_i2c.c ****             com_rslt = p_bno055->bus_read(p_bno055->dev_addr,BNO055_QUATERNION_DATA_W_LSB_VALUEW_RE
 1372              		.loc 1 500 0 is_stmt 1
 1373 0038 154B     		ldr	r3, .L89
 1374 003a 1B68     		ldr	r3, [r3]
 1375 003c 1D69     		ldr	r5, [r3, #16]
 1376 003e 587A     		ldrb	r0, [r3, #9]
 1377              	.LVL189:
 1378 0040 0823     		movs	r3, #8
 1379 0042 6A46     		mov	r2, sp
 1380 0044 2021     		movs	r1, #32
 1381 0046 A847     		blx	r5
 1382              	.LVL190:
 501:BNO055-Sensor-Driver/bno_i2c.c **** 
 502:BNO055-Sensor-Driver/bno_i2c.c ****             /* Data W*/
 503:BNO055-Sensor-Driver/bno_i2c.c ****             data_u8[BNO055_SENSOR_DATA_QUATERNION_WXYZ_W_LSB] =
 504:BNO055-Sensor-Driver/bno_i2c.c ****                 BNO055_GET_BITSLICE(data_u8[BNO055_SENSOR_DATA_QUATERNION_WXYZ_W_LSB],
 1383              		.loc 1 504 0
 1384 0048 6B46     		mov	r3, sp
 1385 004a 1A78     		ldrb	r2, [r3]
 505:BNO055-Sensor-Driver/bno_i2c.c ****                                     BNO055_QUATERNION_DATA_W_LSB_VALUEW);
 506:BNO055-Sensor-Driver/bno_i2c.c ****             data_u8[BNO055_SENSOR_DATA_QUATERNION_WXYZ_W_MSB] =
 507:BNO055-Sensor-Driver/bno_i2c.c ****                 BNO055_GET_BITSLICE(data_u8[BNO055_SENSOR_DATA_QUATERNION_WXYZ_W_MSB],
 508:BNO055-Sensor-Driver/bno_i2c.c ****                                     BNO055_QUATERNION_DATA_W_MSB_VALUEW);
 509:BNO055-Sensor-Driver/bno_i2c.c ****             quaternion->w =
 510:BNO055-Sensor-Driver/bno_i2c.c ****                 (s16)((((s32)((s8)data_u8[BNO055_SENSOR_DATA_QUATERNION_WXYZ_W_MSB])) << BNO055_SHI
 1386              		.loc 1 510 0
 1387 004c 5B78     		ldrb	r3, [r3, #1]
 1388 004e 5BB2     		sxtb	r3, r3
 1389 0050 1B02     		lsls	r3, r3, #8
 1390 0052 1343     		orrs	r3, r2
 509:BNO055-Sensor-Driver/bno_i2c.c ****                 (s16)((((s32)((s8)data_u8[BNO055_SENSOR_DATA_QUATERNION_WXYZ_W_MSB])) << BNO055_SHI
 1391              		.loc 1 509 0
 1392 0054 2380     		strh	r3, [r4]
 511:BNO055-Sensor-Driver/bno_i2c.c ****                       (data_u8[BNO055_SENSOR_DATA_QUATERNION_WXYZ_W_LSB]));
 512:BNO055-Sensor-Driver/bno_i2c.c **** 
 513:BNO055-Sensor-Driver/bno_i2c.c ****             /* Data X*/
 514:BNO055-Sensor-Driver/bno_i2c.c ****             data_u8[BNO055_SENSOR_DATA_QUATERNION_WXYZ_X_LSB] =
 515:BNO055-Sensor-Driver/bno_i2c.c ****                 BNO055_GET_BITSLICE(data_u8[BNO055_SENSOR_DATA_QUATERNION_WXYZ_X_LSB],
 1393              		.loc 1 515 0
 1394 0056 6B46     		mov	r3, sp
 1395 0058 9A78     		ldrb	r2, [r3, #2]
 516:BNO055-Sensor-Driver/bno_i2c.c ****                                     BNO055_QUATERNION_DATA_X_LSB_VALUEX);
 517:BNO055-Sensor-Driver/bno_i2c.c ****             data_u8[BNO055_SENSOR_DATA_QUATERNION_WXYZ_X_MSB] =
 518:BNO055-Sensor-Driver/bno_i2c.c ****                 BNO055_GET_BITSLICE(data_u8[BNO055_SENSOR_DATA_QUATERNION_WXYZ_X_MSB],
 519:BNO055-Sensor-Driver/bno_i2c.c ****                                     BNO055_QUATERNION_DATA_X_MSB_VALUEX);
 520:BNO055-Sensor-Driver/bno_i2c.c ****             quaternion->x =
ARM GAS  C:\Users\DAVISS~1\AppData\Local\Temp\ccr8iJqP.s 			page 35


 521:BNO055-Sensor-Driver/bno_i2c.c ****                 (s16)((((s32)((s8)data_u8[BNO055_SENSOR_DATA_QUATERNION_WXYZ_X_MSB])) << BNO055_SHI
 1396              		.loc 1 521 0
 1397 005a DB78     		ldrb	r3, [r3, #3]
 1398 005c 5BB2     		sxtb	r3, r3
 1399 005e 1B02     		lsls	r3, r3, #8
 1400 0060 1343     		orrs	r3, r2
 520:BNO055-Sensor-Driver/bno_i2c.c ****                 (s16)((((s32)((s8)data_u8[BNO055_SENSOR_DATA_QUATERNION_WXYZ_X_MSB])) << BNO055_SHI
 1401              		.loc 1 520 0
 1402 0062 6380     		strh	r3, [r4, #2]
 522:BNO055-Sensor-Driver/bno_i2c.c ****                       (data_u8[BNO055_SENSOR_DATA_QUATERNION_WXYZ_X_LSB]));
 523:BNO055-Sensor-Driver/bno_i2c.c **** 
 524:BNO055-Sensor-Driver/bno_i2c.c ****             /* Data Y*/
 525:BNO055-Sensor-Driver/bno_i2c.c ****             data_u8[BNO055_SENSOR_DATA_QUATERNION_WXYZ_Y_LSB] =
 526:BNO055-Sensor-Driver/bno_i2c.c ****                 BNO055_GET_BITSLICE(data_u8[BNO055_SENSOR_DATA_QUATERNION_WXYZ_Y_LSB],
 1403              		.loc 1 526 0
 1404 0064 6B46     		mov	r3, sp
 1405 0066 1A79     		ldrb	r2, [r3, #4]
 527:BNO055-Sensor-Driver/bno_i2c.c ****                                     BNO055_QUATERNION_DATA_Y_LSB_VALUEY);
 528:BNO055-Sensor-Driver/bno_i2c.c ****             data_u8[BNO055_SENSOR_DATA_QUATERNION_WXYZ_Y_MSB] =
 529:BNO055-Sensor-Driver/bno_i2c.c ****                 BNO055_GET_BITSLICE(data_u8[BNO055_SENSOR_DATA_QUATERNION_WXYZ_Y_MSB],
 530:BNO055-Sensor-Driver/bno_i2c.c ****                                     BNO055_QUATERNION_DATA_Y_MSB_VALUEY);
 531:BNO055-Sensor-Driver/bno_i2c.c ****             quaternion->y =
 532:BNO055-Sensor-Driver/bno_i2c.c ****                 (s16)((((s32)((s8)data_u8[BNO055_SENSOR_DATA_QUATERNION_WXYZ_Y_MSB])) << BNO055_SHI
 1406              		.loc 1 532 0
 1407 0068 5B79     		ldrb	r3, [r3, #5]
 1408 006a 5BB2     		sxtb	r3, r3
 1409 006c 1B02     		lsls	r3, r3, #8
 1410 006e 1343     		orrs	r3, r2
 531:BNO055-Sensor-Driver/bno_i2c.c ****                 (s16)((((s32)((s8)data_u8[BNO055_SENSOR_DATA_QUATERNION_WXYZ_Y_MSB])) << BNO055_SHI
 1411              		.loc 1 531 0
 1412 0070 A380     		strh	r3, [r4, #4]
 533:BNO055-Sensor-Driver/bno_i2c.c ****                       (data_u8[BNO055_SENSOR_DATA_QUATERNION_WXYZ_Y_LSB]));
 534:BNO055-Sensor-Driver/bno_i2c.c **** 
 535:BNO055-Sensor-Driver/bno_i2c.c ****             /* Data Z*/
 536:BNO055-Sensor-Driver/bno_i2c.c ****             data_u8[BNO055_SENSOR_DATA_QUATERNION_WXYZ_Z_LSB] =
 537:BNO055-Sensor-Driver/bno_i2c.c ****                 BNO055_GET_BITSLICE(data_u8[BNO055_SENSOR_DATA_QUATERNION_WXYZ_Z_LSB],
 1413              		.loc 1 537 0
 1414 0072 6B46     		mov	r3, sp
 1415 0074 9A79     		ldrb	r2, [r3, #6]
 538:BNO055-Sensor-Driver/bno_i2c.c ****                                     BNO055_QUATERNION_DATA_Z_LSB_VALUEZ);
 539:BNO055-Sensor-Driver/bno_i2c.c ****             data_u8[BNO055_SENSOR_DATA_QUATERNION_WXYZ_Z_MSB] =
 540:BNO055-Sensor-Driver/bno_i2c.c ****                 BNO055_GET_BITSLICE(data_u8[BNO055_SENSOR_DATA_QUATERNION_WXYZ_Z_MSB],
 541:BNO055-Sensor-Driver/bno_i2c.c ****                                     BNO055_QUATERNION_DATA_Z_MSB_VALUEZ);
 542:BNO055-Sensor-Driver/bno_i2c.c ****             quaternion->z =
 543:BNO055-Sensor-Driver/bno_i2c.c ****                 (s16)((((s32)((s8)data_u8[BNO055_SENSOR_DATA_QUATERNION_WXYZ_Z_MSB])) << BNO055_SHI
 1416              		.loc 1 543 0
 1417 0076 DB79     		ldrb	r3, [r3, #7]
 1418 0078 5BB2     		sxtb	r3, r3
 1419 007a 1B02     		lsls	r3, r3, #8
 1420 007c 1343     		orrs	r3, r2
 542:BNO055-Sensor-Driver/bno_i2c.c ****                 (s16)((((s32)((s8)data_u8[BNO055_SENSOR_DATA_QUATERNION_WXYZ_Z_MSB])) << BNO055_SHI
 1421              		.loc 1 542 0
 1422 007e E380     		strh	r3, [r4, #6]
 1423 0080 04E0     		b	.L83
 1424              	.LVL191:
 1425              	.L86:
 486:BNO055-Sensor-Driver/bno_i2c.c ****     }
ARM GAS  C:\Users\DAVISS~1\AppData\Local\Temp\ccr8iJqP.s 			page 36


 1426              		.loc 1 486 0
 1427 0082 7F20     		movs	r0, #127
 1428 0084 4042     		rsbs	r0, r0, #0
 1429 0086 01E0     		b	.L83
 1430              	.LVL192:
 1431              	.L88:
 544:BNO055-Sensor-Driver/bno_i2c.c ****                       (data_u8[BNO055_SENSOR_DATA_QUATERNION_WXYZ_Z_LSB]));
 545:BNO055-Sensor-Driver/bno_i2c.c ****         }
 546:BNO055-Sensor-Driver/bno_i2c.c ****         else
 547:BNO055-Sensor-Driver/bno_i2c.c ****         {
 548:BNO055-Sensor-Driver/bno_i2c.c ****             com_rslt = BNO055_ERROR;
 1432              		.loc 1 548 0
 1433 0088 0120     		movs	r0, #1
 1434              	.LVL193:
 1435 008a 4042     		rsbs	r0, r0, #0
 1436              	.LVL194:
 1437              	.L83:
 549:BNO055-Sensor-Driver/bno_i2c.c ****         }
 550:BNO055-Sensor-Driver/bno_i2c.c ****     }
 551:BNO055-Sensor-Driver/bno_i2c.c **** 
 552:BNO055-Sensor-Driver/bno_i2c.c ****     return com_rslt;
 553:BNO055-Sensor-Driver/bno_i2c.c **** }
 1438              		.loc 1 553 0
 1439 008c 03B0     		add	sp, sp, #12
 1440              		@ sp needed
 1441              	.LVL195:
 1442 008e 30BD     		pop	{r4, r5, pc}
 1443              	.L90:
 1444              		.align	2
 1445              	.L89:
 1446 0090 00000000 		.word	.LANCHOR0
 1447              		.cfi_endproc
 1448              	.LFE45:
 1449              		.size	bno055_read_quaternion_wxyz, .-bno055_read_quaternion_wxyz
 1450              		.section	.rodata.str1.4,"aMS",%progbits,1
 1451              		.align	2
 1452              	.LC3:
 1453 0000 20496E69 		.ascii	" Initalization failed,\000"
 1453      74616C69 
 1453      7A617469 
 1453      6F6E2066 
 1453      61696C65 
 1454 0017 00       		.space	1
 1455              	.LC5:
 1456 0018 20496E69 		.ascii	" Initalization Success,\000"
 1456      74616C69 
 1456      7A617469 
 1456      6F6E2053 
 1456      75636365 
 1457              	.LC12:
 1458 0030 20476574 		.ascii	" Get Mode == Success,\000"
 1458      204D6F64 
 1458      65203D3D 
 1458      20537563 
 1458      63657373 
 1459 0046 0000     		.space	2
 1460              	.LC14:
ARM GAS  C:\Users\DAVISS~1\AppData\Local\Temp\ccr8iJqP.s 			page 37


 1461 0048 20476574 		.ascii	" Get Mode == Fail,\000"
 1461      204D6F64 
 1461      65203D3D 
 1461      20466169 
 1461      6C2C00
 1462 005b 00       		.space	1
 1463              	.LC16:
 1464 005c 20476574 		.ascii	" Get Operation Done,\000"
 1464      204F7065 
 1464      72617469 
 1464      6F6E2044 
 1464      6F6E652C 
 1465 0071 000000   		.space	3
 1466              	.LC19:
 1467 0074 20737472 		.ascii	" struct == empty,\000"
 1467      75637420 
 1467      3D3D2065 
 1467      6D707479 
 1467      2C00
 1468 0086 0000     		.space	2
 1469              	.LC21:
 1470 0088 20737461 		.ascii	" stat_u8 = BNO055_SUCCESS,\000"
 1470      745F7538 
 1470      203D2042 
 1470      4E4F3035 
 1470      355F5355 
 1471 00a3 00       		.space	1
 1472              	.LC23:
 1473 00a4 20507265 		.ascii	" Previous Mode == Config Mode,\000"
 1473      76696F75 
 1473      73204D6F 
 1473      6465203D 
 1473      3D20436F 
 1474 00c3 00       		.space	1
 1475              	.LC25:
 1476 00c4 20636F6D 		.ascii	" com_rslt = success,\000"
 1476      5F72736C 
 1476      74203D20 
 1476      73756363 
 1476      6573732C 
 1477 00d9 000000   		.space	3
 1478              	.LC27:
 1479 00dc 204E6F77 		.ascii	" Now switching to FUSION MODE,\000"
 1479      20737769 
 1479      74636869 
 1479      6E672074 
 1479      6F204655 
 1480 00fb 00       		.space	1
 1481              	.LC29:
 1482 00fc 204D6F64 		.ascii	" Mode switched to Fusion Mode,\000"
 1482      65207377 
 1482      69746368 
 1482      65642074 
 1482      6F204675 
 1483 011b 00       		.space	1
 1484              	.LC31:
 1485 011c 20636F6D 		.ascii	" com_reslt = failed,\000"
ARM GAS  C:\Users\DAVISS~1\AppData\Local\Temp\ccr8iJqP.s 			page 38


 1485      5F726573 
 1485      6C74203D 
 1485      20666169 
 1485      6C65642C 
 1486 0131 000000   		.space	3
 1487              	.LC33:
 1488 0134 50726576 		.ascii	"Prev mode is not Config\000"
 1488      206D6F64 
 1488      65206973 
 1488      206E6F74 
 1488      20436F6E 
 1489              	.LC35:
 1490 014c 50726576 		.ascii	"Prev mode is now in Config mode\000"
 1490      206D6F64 
 1490      65206973 
 1490      206E6F77 
 1490      20696E20 
 1491              	.LC37:
 1492 016c 4F706572 		.ascii	"Operation mode is not Config\000"
 1492      6174696F 
 1492      6E206D6F 
 1492      64652069 
 1492      73206E6F 
 1493 0189 000000   		.space	3
 1494              	.LC39:
 1495 018c 4F706572 		.ascii	"Operation is now in Fusion mode \000"
 1495      6174696F 
 1495      6E206973 
 1495      206E6F77 
 1495      20696E20 
 1496 01ad 000000   		.space	3
 1497              	.LC41:
 1498 01b0 53657420 		.ascii	"Set operation = failure\000"
 1498      6F706572 
 1498      6174696F 
 1498      6E203D20 
 1498      6661696C 
 1499              		.bss
 1500              		.align	2
 1501              		.set	.LANCHOR0,. + 0
 1502              		.type	p_bno055, %object
 1503              		.size	p_bno055, 4
 1504              	p_bno055:
 1505 0000 00000000 		.space	4
 1506              		.text
 1507              	.Letext0:
 1508              		.file 2 "x:\\programs\\cypress\\psoc creator\\4.4\\psoc creator\\import\\gnu\\arm\\5.4.1\\arm-none
 1509              		.file 3 "x:\\programs\\cypress\\psoc creator\\4.4\\psoc creator\\import\\gnu\\arm\\5.4.1\\arm-none
 1510              		.file 4 "BNO055-Sensor-Driver\\bno_i2c.h"
 1511              		.file 5 "BNO055-Sensor-Driver\\support.h"