ARM GAS  C:\Users\davis\AppData\Local\Temp\cco880hz.s 			page 1


   1              		.syntax unified
   2              		.cpu cortex-m0
   3              		.fpu softvfp
   4              		.eabi_attribute 20, 1
   5              		.eabi_attribute 21, 1
   6              		.eabi_attribute 23, 3
   7              		.eabi_attribute 24, 1
   8              		.eabi_attribute 25, 1
   9              		.eabi_attribute 26, 1
  10              		.eabi_attribute 30, 1
  11              		.eabi_attribute 34, 0
  12              		.eabi_attribute 18, 4
  13              		.thumb
  14              		.syntax unified
  15              		.file	"CAN.c"
  16              		.text
  17              	.Ltext0:
  18              		.cfi_sections	.debug_frame
  19              		.section	.text.CAN_Stop,"ax",%progbits
  20              		.align	2
  21              		.global	CAN_Stop
  22              		.code	16
  23              		.thumb_func
  24              		.type	CAN_Stop, %function
  25              	CAN_Stop:
  26              	.LFB5:
  27              		.file 1 "Generated_Source\\PSoC4\\CAN.c"
   1:Generated_Source\PSoC4/CAN.c **** /*******************************************************************************
   2:Generated_Source\PSoC4/CAN.c **** * File Name: CAN.c
   3:Generated_Source\PSoC4/CAN.c **** * Version 3.0
   4:Generated_Source\PSoC4/CAN.c **** *
   5:Generated_Source\PSoC4/CAN.c **** * Description:
   6:Generated_Source\PSoC4/CAN.c **** *  The CAN Component provides functionality of Control Area Network.
   7:Generated_Source\PSoC4/CAN.c **** *  The two types of mailbox configuration available are "Full" and "Basic".
   8:Generated_Source\PSoC4/CAN.c **** *
   9:Generated_Source\PSoC4/CAN.c **** * Note:
  10:Generated_Source\PSoC4/CAN.c **** *  The CAN configuration is put as constant to ROM and can be changed
  11:Generated_Source\PSoC4/CAN.c **** *  only directly by the registers written by the user.
  12:Generated_Source\PSoC4/CAN.c **** *
  13:Generated_Source\PSoC4/CAN.c **** ********************************************************************************
  14:Generated_Source\PSoC4/CAN.c **** * Copyright 2008-2015, Cypress Semiconductor Corporation.  All rights reserved.
  15:Generated_Source\PSoC4/CAN.c **** * You may use this file only in accordance with the license, terms, conditions,
  16:Generated_Source\PSoC4/CAN.c **** * disclaimers, and limitations in the end user license agreement accompanying
  17:Generated_Source\PSoC4/CAN.c **** * the software package with which this file was provided.
  18:Generated_Source\PSoC4/CAN.c **** *******************************************************************************/
  19:Generated_Source\PSoC4/CAN.c **** 
  20:Generated_Source\PSoC4/CAN.c **** #include "CAN.h"
  21:Generated_Source\PSoC4/CAN.c **** 
  22:Generated_Source\PSoC4/CAN.c **** uint8 CAN_initVar = 0u;
  23:Generated_Source\PSoC4/CAN.c **** 
  24:Generated_Source\PSoC4/CAN.c **** 
  25:Generated_Source\PSoC4/CAN.c **** /*******************************************************************************
  26:Generated_Source\PSoC4/CAN.c **** * FUNCTION NAME:   CAN_RxTxBuffersConfig
  27:Generated_Source\PSoC4/CAN.c **** ********************************************************************************
  28:Generated_Source\PSoC4/CAN.c **** *
  29:Generated_Source\PSoC4/CAN.c **** * Summary:
  30:Generated_Source\PSoC4/CAN.c **** *  Inits/Restores default CAN Rx and Tx Buffers control registers configuration
ARM GAS  C:\Users\davis\AppData\Local\Temp\cco880hz.s 			page 2


  31:Generated_Source\PSoC4/CAN.c **** *  provided by the customizer.
  32:Generated_Source\PSoC4/CAN.c **** *
  33:Generated_Source\PSoC4/CAN.c **** * Parameters:
  34:Generated_Source\PSoC4/CAN.c **** *  None.
  35:Generated_Source\PSoC4/CAN.c **** *
  36:Generated_Source\PSoC4/CAN.c **** * Return:
  37:Generated_Source\PSoC4/CAN.c **** *  The indication whether the configuration has been accepted or rejected.
  38:Generated_Source\PSoC4/CAN.c **** *   Define                             Description
  39:Generated_Source\PSoC4/CAN.c **** *    CYRET_SUCCESS                      The function passed successfully
  40:Generated_Source\PSoC4/CAN.c **** *    CAN_FAIL              The function failed
  41:Generated_Source\PSoC4/CAN.c **** *
  42:Generated_Source\PSoC4/CAN.c **** * Side Effects:
  43:Generated_Source\PSoC4/CAN.c **** *  All the Rx and Tx Buffers control registers will be reset to their initial
  44:Generated_Source\PSoC4/CAN.c **** *  values.
  45:Generated_Source\PSoC4/CAN.c **** *
  46:Generated_Source\PSoC4/CAN.c **** *******************************************************************************/
  47:Generated_Source\PSoC4/CAN.c **** uint8 CAN_RxTxBuffersConfig(void) 
  48:Generated_Source\PSoC4/CAN.c **** {
  49:Generated_Source\PSoC4/CAN.c ****     /* Initial values of CAN RX and TX registers */
  50:Generated_Source\PSoC4/CAN.c ****     static const CAN_RX_CFG CYCODE CAN_RXConfigStruct[] =
  51:Generated_Source\PSoC4/CAN.c ****     {
  52:Generated_Source\PSoC4/CAN.c ****         { 0u, 0x8000A8u, 0xFFFFFFFFu, 0x0u },
  53:Generated_Source\PSoC4/CAN.c ****         { 1u, 0x8000A8u, 0xFFFFFFFFu, 0x0u },
  54:Generated_Source\PSoC4/CAN.c ****         { 2u, 0x8000A8u, 0xFFFFFFFFu, 0x0u },
  55:Generated_Source\PSoC4/CAN.c ****         { 3u, 0x8000A8u, 0xFFFFFFFFu, 0x0u },
  56:Generated_Source\PSoC4/CAN.c ****         { 4u, 0x0u, 0x0u, 0x0u },
  57:Generated_Source\PSoC4/CAN.c ****         { 5u, 0x0u, 0x0u, 0x0u },
  58:Generated_Source\PSoC4/CAN.c ****         { 6u, 0x0u, 0x0u, 0x0u },
  59:Generated_Source\PSoC4/CAN.c ****         { 7u, 0x0u, 0x0u, 0x0u },
  60:Generated_Source\PSoC4/CAN.c ****         { 8u, 0x0u, 0x0u, 0x0u },
  61:Generated_Source\PSoC4/CAN.c ****         { 9u, 0x0u, 0x0u, 0x0u },
  62:Generated_Source\PSoC4/CAN.c ****         { 10u, 0x0u, 0x0u, 0x0u },
  63:Generated_Source\PSoC4/CAN.c ****         { 11u, 0x0u, 0x0u, 0x0u },
  64:Generated_Source\PSoC4/CAN.c ****         { 12u, 0x0u, 0x0u, 0x0u },
  65:Generated_Source\PSoC4/CAN.c ****         { 13u, 0x0u, 0x0u, 0x0u },
  66:Generated_Source\PSoC4/CAN.c ****         { 14u, 0x0u, 0x0u, 0x0u },
  67:Generated_Source\PSoC4/CAN.c ****         { 15u, 0x0u, 0x0u, 0x0u }
  68:Generated_Source\PSoC4/CAN.c ****     };
  69:Generated_Source\PSoC4/CAN.c **** 
  70:Generated_Source\PSoC4/CAN.c ****     static const CAN_TX_CFG CYCODE CAN_TXConfigStruct[] =
  71:Generated_Source\PSoC4/CAN.c ****     {
  72:Generated_Source\PSoC4/CAN.c ****         { 0u, 0x880008u, 0x0u },
  73:Generated_Source\PSoC4/CAN.c ****         { 1u, 0x880008u, 0x0u },
  74:Generated_Source\PSoC4/CAN.c ****         { 2u, 0x880008u, 0x0u },
  75:Generated_Source\PSoC4/CAN.c ****         { 3u, 0x880008u, 0x0u },
  76:Generated_Source\PSoC4/CAN.c ****         { 4u, 0x880008u, 0x0u },
  77:Generated_Source\PSoC4/CAN.c ****         { 5u, 0x880008u, 0x0u },
  78:Generated_Source\PSoC4/CAN.c ****         { 6u, 0x880008u, 0x0u },
  79:Generated_Source\PSoC4/CAN.c ****         { 7u, 0x880008u, 0x0u }
  80:Generated_Source\PSoC4/CAN.c ****     };
  81:Generated_Source\PSoC4/CAN.c **** 
  82:Generated_Source\PSoC4/CAN.c ****     uint8 result = CYRET_SUCCESS;
  83:Generated_Source\PSoC4/CAN.c ****     uint8 i;
  84:Generated_Source\PSoC4/CAN.c **** 
  85:Generated_Source\PSoC4/CAN.c ****     /* Initialize TX mailboxes */
  86:Generated_Source\PSoC4/CAN.c ****     for (i = 0u; i < CAN_NUMBER_OF_TX_MAILBOXES; i++)
  87:Generated_Source\PSoC4/CAN.c ****     {
ARM GAS  C:\Users\davis\AppData\Local\Temp\cco880hz.s 			page 3


  88:Generated_Source\PSoC4/CAN.c ****         if (CAN_TxBufConfig((const CAN_TX_CFG *)
  89:Generated_Source\PSoC4/CAN.c ****             (&CAN_TXConfigStruct[i])) != CYRET_SUCCESS)
  90:Generated_Source\PSoC4/CAN.c ****         {
  91:Generated_Source\PSoC4/CAN.c ****             result = CAN_FAIL;
  92:Generated_Source\PSoC4/CAN.c ****             break;
  93:Generated_Source\PSoC4/CAN.c ****         }
  94:Generated_Source\PSoC4/CAN.c ****     }
  95:Generated_Source\PSoC4/CAN.c **** 
  96:Generated_Source\PSoC4/CAN.c ****     if (result == CYRET_SUCCESS)
  97:Generated_Source\PSoC4/CAN.c ****     {
  98:Generated_Source\PSoC4/CAN.c ****         /* Initialize RX mailboxes */
  99:Generated_Source\PSoC4/CAN.c ****         for (i = 0u; i < CAN_NUMBER_OF_RX_MAILBOXES; i++)
 100:Generated_Source\PSoC4/CAN.c ****         {
 101:Generated_Source\PSoC4/CAN.c ****             if (CAN_RxBufConfig((const CAN_RX_CFG *)
 102:Generated_Source\PSoC4/CAN.c ****                 (&CAN_RXConfigStruct[i])) != CYRET_SUCCESS)
 103:Generated_Source\PSoC4/CAN.c ****             {
 104:Generated_Source\PSoC4/CAN.c ****                 result = CAN_FAIL;
 105:Generated_Source\PSoC4/CAN.c ****                 break;
 106:Generated_Source\PSoC4/CAN.c ****             }
 107:Generated_Source\PSoC4/CAN.c ****         }
 108:Generated_Source\PSoC4/CAN.c ****     }
 109:Generated_Source\PSoC4/CAN.c **** 
 110:Generated_Source\PSoC4/CAN.c ****     return (result);
 111:Generated_Source\PSoC4/CAN.c **** }
 112:Generated_Source\PSoC4/CAN.c **** 
 113:Generated_Source\PSoC4/CAN.c **** 
 114:Generated_Source\PSoC4/CAN.c **** /*******************************************************************************
 115:Generated_Source\PSoC4/CAN.c **** * FUNCTION NAME:   CAN_Init
 116:Generated_Source\PSoC4/CAN.c **** ********************************************************************************
 117:Generated_Source\PSoC4/CAN.c **** *
 118:Generated_Source\PSoC4/CAN.c **** * Summary:
 119:Generated_Source\PSoC4/CAN.c **** *  Inits/Restores default CAN configuration provided by the customizer.
 120:Generated_Source\PSoC4/CAN.c **** *
 121:Generated_Source\PSoC4/CAN.c **** * Parameters:
 122:Generated_Source\PSoC4/CAN.c **** *  None.
 123:Generated_Source\PSoC4/CAN.c **** *
 124:Generated_Source\PSoC4/CAN.c **** * Return:
 125:Generated_Source\PSoC4/CAN.c **** *  The indication whether the configuration has been accepted or rejected.
 126:Generated_Source\PSoC4/CAN.c **** *   Define                             Description
 127:Generated_Source\PSoC4/CAN.c **** *    CYRET_SUCCESS                      The function passed successfully
 128:Generated_Source\PSoC4/CAN.c **** *    CAN_FAIL              The function failed
 129:Generated_Source\PSoC4/CAN.c **** *
 130:Generated_Source\PSoC4/CAN.c **** * Side Effects:
 131:Generated_Source\PSoC4/CAN.c **** *  All the registers will be reset to their initial values. This will
 132:Generated_Source\PSoC4/CAN.c **** *  re-initialize the component with the following exceptions - it will not clear
 133:Generated_Source\PSoC4/CAN.c **** *  data from the mailboxes.
 134:Generated_Source\PSoC4/CAN.c **** *  Enable power to the CAN Core.
 135:Generated_Source\PSoC4/CAN.c **** *
 136:Generated_Source\PSoC4/CAN.c **** *******************************************************************************/
 137:Generated_Source\PSoC4/CAN.c **** uint8 CAN_Init(void) 
 138:Generated_Source\PSoC4/CAN.c **** {
 139:Generated_Source\PSoC4/CAN.c ****     uint32 timeout = CAN_MODE_STATE_STOP_TIMEOUT;
 140:Generated_Source\PSoC4/CAN.c ****     uint8 result = CAN_FAIL;
 141:Generated_Source\PSoC4/CAN.c ****     uint8 localResult = CAN_FAIL;
 142:Generated_Source\PSoC4/CAN.c **** 
 143:Generated_Source\PSoC4/CAN.c ****     #if (CY_PSOC3 || CY_PSOC5)
 144:Generated_Source\PSoC4/CAN.c ****         uint8 enableInterrupts;
ARM GAS  C:\Users\davis\AppData\Local\Temp\cco880hz.s 			page 4


 145:Generated_Source\PSoC4/CAN.c **** 
 146:Generated_Source\PSoC4/CAN.c ****         enableInterrupts = CyEnterCriticalSection();
 147:Generated_Source\PSoC4/CAN.c ****         /* Enable CAN block in Active mode */
 148:Generated_Source\PSoC4/CAN.c ****         CAN_PM_ACT_CFG_REG |= CAN_ACT_PWR_EN;
 149:Generated_Source\PSoC4/CAN.c ****         /* Enable CAN block in Alternate Active (Standby) mode */
 150:Generated_Source\PSoC4/CAN.c ****         CAN_PM_STBY_CFG_REG |= CAN_STBY_PWR_EN;
 151:Generated_Source\PSoC4/CAN.c ****         CyExitCriticalSection(enableInterrupts);
 152:Generated_Source\PSoC4/CAN.c **** 
 153:Generated_Source\PSoC4/CAN.c ****         /* Sets CAN controller to stop mode */
 154:Generated_Source\PSoC4/CAN.c ****         CAN_CMD_REG.byte[0u] &= (uint8) (~CAN_MODE_MASK);
 155:Generated_Source\PSoC4/CAN.c **** 
 156:Generated_Source\PSoC4/CAN.c ****         /* Timeout for CAN state machine to switch mode to Stop */
 157:Generated_Source\PSoC4/CAN.c ****         while ((timeout != 0u) && ((CAN_CMD_REG.byte[0u] & CAN_MODE_MASK) != 0u))
 158:Generated_Source\PSoC4/CAN.c ****         {
 159:Generated_Source\PSoC4/CAN.c ****             timeout--;
 160:Generated_Source\PSoC4/CAN.c ****         }
 161:Generated_Source\PSoC4/CAN.c ****     #else  /* CY_PSOC4 */
 162:Generated_Source\PSoC4/CAN.c ****         /* Enable CAN IP Block */
 163:Generated_Source\PSoC4/CAN.c ****         CAN_CNTL_REG = CAN_IP_ENABLE;
 164:Generated_Source\PSoC4/CAN.c **** 
 165:Generated_Source\PSoC4/CAN.c ****         /* Sets CAN controller to stop mode */
 166:Generated_Source\PSoC4/CAN.c ****         CAN_CMD_REG &= (uint32) (~((uint32) CAN_MODE_MASK));
 167:Generated_Source\PSoC4/CAN.c **** 
 168:Generated_Source\PSoC4/CAN.c ****         /* Timeout for CAN state machine to switch mode to Stop */
 169:Generated_Source\PSoC4/CAN.c ****         while ((timeout != 0u) && ((CAN_CMD_REG & CAN_MODE_MASK) != 0u))
 170:Generated_Source\PSoC4/CAN.c ****         {
 171:Generated_Source\PSoC4/CAN.c ****             timeout--;
 172:Generated_Source\PSoC4/CAN.c ****         }
 173:Generated_Source\PSoC4/CAN.c ****     #endif /* CY_PSOC3 || CY_PSOC5 */
 174:Generated_Source\PSoC4/CAN.c ****         if (timeout != 0u)
 175:Generated_Source\PSoC4/CAN.c ****         {
 176:Generated_Source\PSoC4/CAN.c ****             /* Disable Interrupt. */
 177:Generated_Source\PSoC4/CAN.c ****         CyIntDisable(CAN_ISR_NUMBER);
 178:Generated_Source\PSoC4/CAN.c **** 
 179:Generated_Source\PSoC4/CAN.c ****         /* Set the ISR to point to the CAN_ISR Interrupt. */
 180:Generated_Source\PSoC4/CAN.c ****         (void) CyIntSetVector(CAN_ISR_NUMBER, & CAN_ISR);
 181:Generated_Source\PSoC4/CAN.c **** 
 182:Generated_Source\PSoC4/CAN.c ****         /* Set the priority. */
 183:Generated_Source\PSoC4/CAN.c ****         CyIntSetPriority(CAN_ISR_NUMBER, CAN_ISR_PRIORITY);
 184:Generated_Source\PSoC4/CAN.c **** 
 185:Generated_Source\PSoC4/CAN.c ****             if (CAN_SetPreScaler(CAN_BITRATE) == CYRET_SUCCESS)
 186:Generated_Source\PSoC4/CAN.c ****             {
 187:Generated_Source\PSoC4/CAN.c ****                 if (CAN_SetArbiter(CAN_ARBITER) == CYRET_SUCCESS)
 188:Generated_Source\PSoC4/CAN.c ****                 {
 189:Generated_Source\PSoC4/CAN.c ****                     #if (!(CY_PSOC3 || CY_PSOC5))
 190:Generated_Source\PSoC4/CAN.c ****                         if (CAN_SetSwapDataEndianness(CAN_SWAP_DATA_END) == CYRET_SUCCESS)
 191:Generated_Source\PSoC4/CAN.c ****                     #endif /* (!(CY_PSOC3 || CY_PSOC5)) */
 192:Generated_Source\PSoC4/CAN.c ****                         {
 193:Generated_Source\PSoC4/CAN.c ****                             if (CAN_SetTsegSample(CAN_CFG_REG_TSEG1,
 194:Generated_Source\PSoC4/CAN.c ****                                 CAN_CFG_REG_TSEG2, CAN_CFG_REG_SJW,
 195:Generated_Source\PSoC4/CAN.c ****                                 CAN_SAMPLING_MODE) == CYRET_SUCCESS)
 196:Generated_Source\PSoC4/CAN.c ****                             {
 197:Generated_Source\PSoC4/CAN.c ****                                 if (CAN_SetRestartType(CAN_RESET_TYPE) == CYRET_SUCCESS)
 198:Generated_Source\PSoC4/CAN.c ****                                 {
 199:Generated_Source\PSoC4/CAN.c ****                                     if (CAN_SetEdgeMode(CAN_SYNC_EDGE) == CYRET_SUCCESS)
 200:Generated_Source\PSoC4/CAN.c ****                                     {
 201:Generated_Source\PSoC4/CAN.c ****                                         localResult = CYRET_SUCCESS;
ARM GAS  C:\Users\davis\AppData\Local\Temp\cco880hz.s 			page 5


 202:Generated_Source\PSoC4/CAN.c ****                                     }
 203:Generated_Source\PSoC4/CAN.c ****                                 }
 204:Generated_Source\PSoC4/CAN.c ****                             }
 205:Generated_Source\PSoC4/CAN.c ****                         }
 206:Generated_Source\PSoC4/CAN.c ****                 }
 207:Generated_Source\PSoC4/CAN.c ****             }
 208:Generated_Source\PSoC4/CAN.c **** 
 209:Generated_Source\PSoC4/CAN.c ****             if (localResult == CYRET_SUCCESS)
 210:Generated_Source\PSoC4/CAN.c ****             {
 211:Generated_Source\PSoC4/CAN.c ****                 if (CAN_RxTxBuffersConfig() == CYRET_SUCCESS)
 212:Generated_Source\PSoC4/CAN.c ****                 {
 213:Generated_Source\PSoC4/CAN.c ****                     /* Write IRQ Mask */
 214:Generated_Source\PSoC4/CAN.c ****                     if (CAN_SetIrqMask(CAN_INIT_INTERRUPT_MASK) ==
 215:Generated_Source\PSoC4/CAN.c ****                         CYRET_SUCCESS)
 216:Generated_Source\PSoC4/CAN.c ****                     {
 217:Generated_Source\PSoC4/CAN.c ****                         /* Set CAN Operation Mode to Active mode always */
 218:Generated_Source\PSoC4/CAN.c ****                         #if (CY_PSOC3 || CY_PSOC5)
 219:Generated_Source\PSoC4/CAN.c ****                             CAN_CMD_REG.byte[0u] = CAN_INITIAL_MODE;
 220:Generated_Source\PSoC4/CAN.c ****                             if ((CAN_CMD_REG.byte[0u] & CAN_MODE_MASK) == 0u)
 221:Generated_Source\PSoC4/CAN.c ****                         #else  /* CY_PSOC4 */
 222:Generated_Source\PSoC4/CAN.c ****                             CAN_CMD_REG &= (uint32) (~((uint32) CAN_OPMODE_FIELD_MASK));
 223:Generated_Source\PSoC4/CAN.c ****                             if ((CAN_CMD_REG & CAN_OPMODE_FIELD_MASK) == 0u)
 224:Generated_Source\PSoC4/CAN.c ****                         #endif /* CY_PSOC3 || CY_PSOC5 */
 225:Generated_Source\PSoC4/CAN.c ****                             {
 226:Generated_Source\PSoC4/CAN.c ****                                 result = CYRET_SUCCESS;
 227:Generated_Source\PSoC4/CAN.c ****                             }
 228:Generated_Source\PSoC4/CAN.c ****                     }
 229:Generated_Source\PSoC4/CAN.c ****                 }
 230:Generated_Source\PSoC4/CAN.c ****             }
 231:Generated_Source\PSoC4/CAN.c ****         }
 232:Generated_Source\PSoC4/CAN.c **** 
 233:Generated_Source\PSoC4/CAN.c ****     return (result);
 234:Generated_Source\PSoC4/CAN.c **** }
 235:Generated_Source\PSoC4/CAN.c **** 
 236:Generated_Source\PSoC4/CAN.c **** 
 237:Generated_Source\PSoC4/CAN.c **** /*******************************************************************************
 238:Generated_Source\PSoC4/CAN.c **** * Function Name: CAN_Enable
 239:Generated_Source\PSoC4/CAN.c **** ********************************************************************************
 240:Generated_Source\PSoC4/CAN.c **** *
 241:Generated_Source\PSoC4/CAN.c **** * Summary:
 242:Generated_Source\PSoC4/CAN.c **** *  This function enables the CAN Component and ISR of CAN Component.
 243:Generated_Source\PSoC4/CAN.c **** *
 244:Generated_Source\PSoC4/CAN.c **** * Parameters:
 245:Generated_Source\PSoC4/CAN.c **** *  None.
 246:Generated_Source\PSoC4/CAN.c **** *
 247:Generated_Source\PSoC4/CAN.c **** * Return:
 248:Generated_Source\PSoC4/CAN.c **** *  The indication whether the register is written and verified.
 249:Generated_Source\PSoC4/CAN.c **** *   Define                             Description
 250:Generated_Source\PSoC4/CAN.c **** *    CYRET_SUCCESS                      The function passed successfully
 251:Generated_Source\PSoC4/CAN.c **** *    CAN_FAIL              The function failed
 252:Generated_Source\PSoC4/CAN.c **** *
 253:Generated_Source\PSoC4/CAN.c **** *******************************************************************************/
 254:Generated_Source\PSoC4/CAN.c **** uint8 CAN_Enable(void) 
 255:Generated_Source\PSoC4/CAN.c **** {
 256:Generated_Source\PSoC4/CAN.c ****     uint32 timeout = CAN_MODE_STATE_RUN_TIMEOUT;
 257:Generated_Source\PSoC4/CAN.c ****     uint8 result = CAN_FAIL;
 258:Generated_Source\PSoC4/CAN.c **** 
ARM GAS  C:\Users\davis\AppData\Local\Temp\cco880hz.s 			page 6


 259:Generated_Source\PSoC4/CAN.c ****     #if (CY_PSOC3 || CY_PSOC5)
 260:Generated_Source\PSoC4/CAN.c ****         uint8 enableInterrupts;
 261:Generated_Source\PSoC4/CAN.c **** 
 262:Generated_Source\PSoC4/CAN.c ****         enableInterrupts = CyEnterCriticalSection();
 263:Generated_Source\PSoC4/CAN.c **** 
 264:Generated_Source\PSoC4/CAN.c ****         /* Enable CAN block in Active mode */
 265:Generated_Source\PSoC4/CAN.c ****         CAN_PM_ACT_CFG_REG |= CAN_ACT_PWR_EN;
 266:Generated_Source\PSoC4/CAN.c **** 
 267:Generated_Source\PSoC4/CAN.c ****         /* Enable CAN block in Alternate Active (Standby) mode */
 268:Generated_Source\PSoC4/CAN.c ****         CAN_PM_STBY_CFG_REG |= CAN_STBY_PWR_EN;
 269:Generated_Source\PSoC4/CAN.c **** 
 270:Generated_Source\PSoC4/CAN.c ****         CyExitCriticalSection(enableInterrupts);
 271:Generated_Source\PSoC4/CAN.c ****     #endif /* CY_PSOC3 || CY_PSOC5 */
 272:Generated_Source\PSoC4/CAN.c **** 
 273:Generated_Source\PSoC4/CAN.c ****     /* Clear interrupts status */
 274:Generated_Source\PSoC4/CAN.c ****     CY_SET_REG32(CAN_INT_SR_PTR, CAN_INIT_INTERRUPT_MASK);
 275:Generated_Source\PSoC4/CAN.c ****     (void) CAN_GlobalIntEnable();
 276:Generated_Source\PSoC4/CAN.c **** 
 277:Generated_Source\PSoC4/CAN.c ****     /* Enable isr */
 278:Generated_Source\PSoC4/CAN.c ****     CyIntEnable(CAN_ISR_NUMBER);
 279:Generated_Source\PSoC4/CAN.c **** 
 280:Generated_Source\PSoC4/CAN.c ****     /* Sets CAN controller to run mode */
 281:Generated_Source\PSoC4/CAN.c ****     CY_SET_REG32(CAN_CMD_PTR, CY_GET_REG32(CAN_CMD_PTR) | CAN_MODE_MASK);
 282:Generated_Source\PSoC4/CAN.c **** 
 283:Generated_Source\PSoC4/CAN.c ****     /* Timeout for CAN state machine to switch mode to Run */
 284:Generated_Source\PSoC4/CAN.c ****     while ((timeout != 0u) && ((CY_GET_REG32(CAN_CMD_PTR) & CAN_MODE_MASK) == 0u))
 285:Generated_Source\PSoC4/CAN.c ****     {
 286:Generated_Source\PSoC4/CAN.c ****         timeout--;
 287:Generated_Source\PSoC4/CAN.c ****     }
 288:Generated_Source\PSoC4/CAN.c **** 
 289:Generated_Source\PSoC4/CAN.c ****     if (timeout != 0u)
 290:Generated_Source\PSoC4/CAN.c ****     {
 291:Generated_Source\PSoC4/CAN.c ****         result = CYRET_SUCCESS;
 292:Generated_Source\PSoC4/CAN.c ****     }
 293:Generated_Source\PSoC4/CAN.c **** 
 294:Generated_Source\PSoC4/CAN.c ****     return (result);
 295:Generated_Source\PSoC4/CAN.c **** }
 296:Generated_Source\PSoC4/CAN.c **** 
 297:Generated_Source\PSoC4/CAN.c **** 
 298:Generated_Source\PSoC4/CAN.c **** /*******************************************************************************
 299:Generated_Source\PSoC4/CAN.c **** * FUNCTION NAME:   CAN_Start
 300:Generated_Source\PSoC4/CAN.c **** ********************************************************************************
 301:Generated_Source\PSoC4/CAN.c **** *
 302:Generated_Source\PSoC4/CAN.c **** * Summary:
 303:Generated_Source\PSoC4/CAN.c **** *  This function sets CAN Component into the Run mode. Starts Rate Counter if
 304:Generated_Source\PSoC4/CAN.c **** *  polling mailboxes are available.
 305:Generated_Source\PSoC4/CAN.c **** *
 306:Generated_Source\PSoC4/CAN.c **** * Parameters:
 307:Generated_Source\PSoC4/CAN.c **** *  None.
 308:Generated_Source\PSoC4/CAN.c **** *
 309:Generated_Source\PSoC4/CAN.c **** * Return:
 310:Generated_Source\PSoC4/CAN.c **** *  The indication whether the register is written and verified.
 311:Generated_Source\PSoC4/CAN.c **** *   Define                             Description
 312:Generated_Source\PSoC4/CAN.c **** *    CYRET_SUCCESS                      The function passed successfully
 313:Generated_Source\PSoC4/CAN.c **** *    CAN_FAIL              The function failed
 314:Generated_Source\PSoC4/CAN.c **** *
 315:Generated_Source\PSoC4/CAN.c **** * Global variables:
ARM GAS  C:\Users\davis\AppData\Local\Temp\cco880hz.s 			page 7


 316:Generated_Source\PSoC4/CAN.c **** *  CAN_initVar - used to check the initial configuration, modified
 317:Generated_Source\PSoC4/CAN.c **** *  on the first function call.
 318:Generated_Source\PSoC4/CAN.c **** *
 319:Generated_Source\PSoC4/CAN.c **** * Reentrant:
 320:Generated_Source\PSoC4/CAN.c **** *  No.
 321:Generated_Source\PSoC4/CAN.c **** *
 322:Generated_Source\PSoC4/CAN.c **** *******************************************************************************/
 323:Generated_Source\PSoC4/CAN.c **** uint8 CAN_Start(void) 
 324:Generated_Source\PSoC4/CAN.c **** {
 325:Generated_Source\PSoC4/CAN.c ****     uint8 result = CYRET_SUCCESS;
 326:Generated_Source\PSoC4/CAN.c **** 
 327:Generated_Source\PSoC4/CAN.c ****     if (CAN_initVar == 0u)
 328:Generated_Source\PSoC4/CAN.c ****     {
 329:Generated_Source\PSoC4/CAN.c ****         result = CAN_Init();
 330:Generated_Source\PSoC4/CAN.c ****     }
 331:Generated_Source\PSoC4/CAN.c **** 
 332:Generated_Source\PSoC4/CAN.c ****     if (result == CYRET_SUCCESS)
 333:Generated_Source\PSoC4/CAN.c ****     {
 334:Generated_Source\PSoC4/CAN.c ****         CAN_initVar = 1u;
 335:Generated_Source\PSoC4/CAN.c ****         result = CAN_Enable();
 336:Generated_Source\PSoC4/CAN.c ****     }
 337:Generated_Source\PSoC4/CAN.c **** 
 338:Generated_Source\PSoC4/CAN.c ****     return (result);
 339:Generated_Source\PSoC4/CAN.c **** }
 340:Generated_Source\PSoC4/CAN.c **** 
 341:Generated_Source\PSoC4/CAN.c **** 
 342:Generated_Source\PSoC4/CAN.c **** /*******************************************************************************
 343:Generated_Source\PSoC4/CAN.c **** * FUNCTION NAME:   CAN_Stop
 344:Generated_Source\PSoC4/CAN.c **** ********************************************************************************
 345:Generated_Source\PSoC4/CAN.c **** *
 346:Generated_Source\PSoC4/CAN.c **** * Summary:
 347:Generated_Source\PSoC4/CAN.c **** *  This function sets CAN Component into the Stop mode.
 348:Generated_Source\PSoC4/CAN.c **** *
 349:Generated_Source\PSoC4/CAN.c **** * Parameters:
 350:Generated_Source\PSoC4/CAN.c **** *  None.
 351:Generated_Source\PSoC4/CAN.c **** *
 352:Generated_Source\PSoC4/CAN.c **** * Return:
 353:Generated_Source\PSoC4/CAN.c **** *  The indication whether the register is written and verified.
 354:Generated_Source\PSoC4/CAN.c **** *   Define                             Description
 355:Generated_Source\PSoC4/CAN.c **** *    CYRET_SUCCESS                      The function passed successfully
 356:Generated_Source\PSoC4/CAN.c **** *    CAN_FAIL              The function failed
 357:Generated_Source\PSoC4/CAN.c **** *
 358:Generated_Source\PSoC4/CAN.c **** * Side Effects:
 359:Generated_Source\PSoC4/CAN.c **** *  Disable power to CAN Core in case of PSoC 3/5.
 360:Generated_Source\PSoC4/CAN.c **** *  Pending message in the Tx buffer of PSoC 3/5 will not be aborted on calling
 361:Generated_Source\PSoC4/CAN.c **** *  the CAN_Stop() API. User has to abort all pending messages
 362:Generated_Source\PSoC4/CAN.c **** *  before calling the CAN_Stop() function to make sure that the
 363:Generated_Source\PSoC4/CAN.c **** *  block stops all the message transmission immediately.
 364:Generated_Source\PSoC4/CAN.c **** *
 365:Generated_Source\PSoC4/CAN.c **** *******************************************************************************/
 366:Generated_Source\PSoC4/CAN.c **** uint8 CAN_Stop(void) 
 367:Generated_Source\PSoC4/CAN.c **** {
  28              		.loc 1 367 0
  29              		.cfi_startproc
  30              		@ args = 0, pretend = 0, frame = 0
  31              		@ frame_needed = 0, uses_anonymous_args = 0
  32 0000 10B5     		push	{r4, lr}
ARM GAS  C:\Users\davis\AppData\Local\Temp\cco880hz.s 			page 8


  33              		.cfi_def_cfa_offset 8
  34              		.cfi_offset 4, -8
  35              		.cfi_offset 14, -4
  36              	.LVL0:
 368:Generated_Source\PSoC4/CAN.c ****     uint32 timeout = CAN_MODE_STATE_STOP_TIMEOUT;
 369:Generated_Source\PSoC4/CAN.c ****     uint8 result = CAN_FAIL;
 370:Generated_Source\PSoC4/CAN.c **** 
 371:Generated_Source\PSoC4/CAN.c ****     #if (CY_PSOC3 || CY_PSOC5)
 372:Generated_Source\PSoC4/CAN.c ****         uint8 enableInterrupts;
 373:Generated_Source\PSoC4/CAN.c ****     #endif /* CY_PSOC3 || CY_PSOC5 */
 374:Generated_Source\PSoC4/CAN.c **** 
 375:Generated_Source\PSoC4/CAN.c ****     /* Set CAN controller to stop mode */
 376:Generated_Source\PSoC4/CAN.c ****     CY_SET_REG32(CAN_CMD_PTR, (CY_GET_REG32(CAN_CMD_PTR) &
  37              		.loc 1 376 0
  38 0002 0C4A     		ldr	r2, .L7
  39 0004 1368     		ldr	r3, [r2]
  40 0006 0121     		movs	r1, #1
  41 0008 8B43     		bics	r3, r1
  42 000a 1360     		str	r3, [r2]
 368:Generated_Source\PSoC4/CAN.c ****     uint32 timeout = CAN_MODE_STATE_STOP_TIMEOUT;
  43              		.loc 1 368 0
  44 000c F023     		movs	r3, #240
  45 000e 1B02     		lsls	r3, r3, #8
 377:Generated_Source\PSoC4/CAN.c ****                                             ((uint32) (~((uint32)CAN_MODE_MASK)))));
 378:Generated_Source\PSoC4/CAN.c **** 
 379:Generated_Source\PSoC4/CAN.c ****     /* Timeout for CAN state machine to switch mode to Stop */
 380:Generated_Source\PSoC4/CAN.c ****     while ((timeout != 0u) && ((CY_GET_REG32(CAN_CMD_PTR) & CAN_MODE_MASK) != 0u))
  46              		.loc 1 380 0
  47 0010 00E0     		b	.L2
  48              	.LVL1:
  49              	.L4:
 381:Generated_Source\PSoC4/CAN.c ****     {
 382:Generated_Source\PSoC4/CAN.c ****         timeout--;
  50              		.loc 1 382 0
  51 0012 013B     		subs	r3, r3, #1
  52              	.LVL2:
  53              	.L2:
 380:Generated_Source\PSoC4/CAN.c ****     {
  54              		.loc 1 380 0
  55 0014 002B     		cmp	r3, #0
  56 0016 03D0     		beq	.L3
 380:Generated_Source\PSoC4/CAN.c ****     {
  57              		.loc 1 380 0 is_stmt 0 discriminator 1
  58 0018 064A     		ldr	r2, .L7
  59 001a 1268     		ldr	r2, [r2]
  60 001c D207     		lsls	r2, r2, #31
  61 001e F8D4     		bmi	.L4
  62              	.L3:
 383:Generated_Source\PSoC4/CAN.c ****     }
 384:Generated_Source\PSoC4/CAN.c **** 
 385:Generated_Source\PSoC4/CAN.c ****     /* Verify that bit is cleared */
 386:Generated_Source\PSoC4/CAN.c ****     if (timeout != 0u)
  63              		.loc 1 386 0 is_stmt 1
  64 0020 002B     		cmp	r3, #0
  65 0022 04D0     		beq	.L6
  66              	.LVL3:
 387:Generated_Source\PSoC4/CAN.c ****     {
ARM GAS  C:\Users\davis\AppData\Local\Temp\cco880hz.s 			page 9


 388:Generated_Source\PSoC4/CAN.c ****         result = CYRET_SUCCESS;
 389:Generated_Source\PSoC4/CAN.c **** 
 390:Generated_Source\PSoC4/CAN.c ****         /* Disable isr */
 391:Generated_Source\PSoC4/CAN.c ****     CyIntDisable(CAN_ISR_NUMBER);
  67              		.loc 1 391 0
  68 0024 1D20     		movs	r0, #29
  69 0026 FFF7FEFF 		bl	CyIntDisable
  70              	.LVL4:
 388:Generated_Source\PSoC4/CAN.c **** 
  71              		.loc 1 388 0
  72 002a 0020     		movs	r0, #0
  73 002c 00E0     		b	.L5
  74              	.LVL5:
  75              	.L6:
 369:Generated_Source\PSoC4/CAN.c **** 
  76              		.loc 1 369 0
  77 002e 0120     		movs	r0, #1
  78              	.LVL6:
  79              	.L5:
 392:Generated_Source\PSoC4/CAN.c **** 
 393:Generated_Source\PSoC4/CAN.c ****         #if (CY_PSOC3 || CY_PSOC5)
 394:Generated_Source\PSoC4/CAN.c ****             enableInterrupts = CyEnterCriticalSection();
 395:Generated_Source\PSoC4/CAN.c **** 
 396:Generated_Source\PSoC4/CAN.c ****             /* Disable CAN block in Active mode */
 397:Generated_Source\PSoC4/CAN.c ****             CAN_PM_ACT_CFG_REG &= (uint8) (~CAN_ACT_PWR_EN);
 398:Generated_Source\PSoC4/CAN.c **** 
 399:Generated_Source\PSoC4/CAN.c ****             /* Disable CAN block in Alternate Active (Standby) mode template */
 400:Generated_Source\PSoC4/CAN.c ****             CAN_PM_STBY_CFG_REG &= (uint8) (~CAN_STBY_PWR_EN);
 401:Generated_Source\PSoC4/CAN.c **** 
 402:Generated_Source\PSoC4/CAN.c ****             CyExitCriticalSection(enableInterrupts);
 403:Generated_Source\PSoC4/CAN.c ****         #endif /* CY_PSOC3 || CY_PSOC5 */
 404:Generated_Source\PSoC4/CAN.c ****     }
 405:Generated_Source\PSoC4/CAN.c **** 
 406:Generated_Source\PSoC4/CAN.c ****     return (result);
 407:Generated_Source\PSoC4/CAN.c **** }
  80              		.loc 1 407 0
  81              		@ sp needed
  82 0030 10BD     		pop	{r4, pc}
  83              	.L8:
  84 0032 C046     		.align	2
  85              	.L7:
  86 0034 10002F40 		.word	1076822032
  87              		.cfi_endproc
  88              	.LFE5:
  89              		.size	CAN_Stop, .-CAN_Stop
  90              		.section	.text.CAN_GlobalIntEnable,"ax",%progbits
  91              		.align	2
  92              		.global	CAN_GlobalIntEnable
  93              		.code	16
  94              		.thumb_func
  95              		.type	CAN_GlobalIntEnable, %function
  96              	CAN_GlobalIntEnable:
  97              	.LFB6:
 408:Generated_Source\PSoC4/CAN.c **** 
 409:Generated_Source\PSoC4/CAN.c **** 
 410:Generated_Source\PSoC4/CAN.c **** /*******************************************************************************
 411:Generated_Source\PSoC4/CAN.c **** * FUNCTION NAME:   CAN_GlobalIntEnable
ARM GAS  C:\Users\davis\AppData\Local\Temp\cco880hz.s 			page 10


 412:Generated_Source\PSoC4/CAN.c **** ********************************************************************************
 413:Generated_Source\PSoC4/CAN.c **** *
 414:Generated_Source\PSoC4/CAN.c **** * Summary:
 415:Generated_Source\PSoC4/CAN.c **** *  This function enables Global Interrupts from CAN Core.
 416:Generated_Source\PSoC4/CAN.c **** *
 417:Generated_Source\PSoC4/CAN.c **** * Parameters:
 418:Generated_Source\PSoC4/CAN.c **** *  None.
 419:Generated_Source\PSoC4/CAN.c **** *
 420:Generated_Source\PSoC4/CAN.c **** * Return:
 421:Generated_Source\PSoC4/CAN.c **** *  The indication whether the register is written and verified.
 422:Generated_Source\PSoC4/CAN.c **** *   Define                             Description
 423:Generated_Source\PSoC4/CAN.c **** *    CYRET_SUCCESS                      The function passed successfully
 424:Generated_Source\PSoC4/CAN.c **** *    CAN_FAIL              The function failed
 425:Generated_Source\PSoC4/CAN.c **** *
 426:Generated_Source\PSoC4/CAN.c **** *******************************************************************************/
 427:Generated_Source\PSoC4/CAN.c **** uint8 CAN_GlobalIntEnable(void) 
 428:Generated_Source\PSoC4/CAN.c **** {
  98              		.loc 1 428 0
  99              		.cfi_startproc
 100              		@ args = 0, pretend = 0, frame = 0
 101              		@ frame_needed = 0, uses_anonymous_args = 0
 102              		@ link register save eliminated.
 103              	.LVL7:
 429:Generated_Source\PSoC4/CAN.c ****     uint8 result = CAN_FAIL;
 430:Generated_Source\PSoC4/CAN.c **** 
 431:Generated_Source\PSoC4/CAN.c ****     #if (CY_PSOC3 || CY_PSOC5)
 432:Generated_Source\PSoC4/CAN.c ****         CAN_INT_EN_REG.byte[0u] |= CAN_GLOBAL_INT_MASK;
 433:Generated_Source\PSoC4/CAN.c **** 
 434:Generated_Source\PSoC4/CAN.c ****         /* Verify that bit is set */
 435:Generated_Source\PSoC4/CAN.c ****         if ((CAN_INT_EN_REG.byte[0u] & CAN_GLOBAL_INT_MASK) != 0u)
 436:Generated_Source\PSoC4/CAN.c ****         {
 437:Generated_Source\PSoC4/CAN.c ****             result = CYRET_SUCCESS;
 438:Generated_Source\PSoC4/CAN.c ****         }
 439:Generated_Source\PSoC4/CAN.c ****     #else  /* CY_PSOC4 */
 440:Generated_Source\PSoC4/CAN.c ****         CAN_INT_EN_REG |= CAN_GLOBAL_INT_MASK;
 104              		.loc 1 440 0
 105 0000 054B     		ldr	r3, .L12
 106 0002 1A68     		ldr	r2, [r3]
 107 0004 0121     		movs	r1, #1
 108 0006 0A43     		orrs	r2, r1
 109 0008 1A60     		str	r2, [r3]
 441:Generated_Source\PSoC4/CAN.c ****         /* Verify that bit is set */
 442:Generated_Source\PSoC4/CAN.c ****         if ((CAN_INT_EN_REG & CAN_GLOBAL_INT_MASK) != 0u)
 110              		.loc 1 442 0
 111 000a 1B68     		ldr	r3, [r3]
 112 000c 1942     		tst	r1, r3
 113 000e 01D1     		bne	.L11
 429:Generated_Source\PSoC4/CAN.c ****     uint8 result = CAN_FAIL;
 114              		.loc 1 429 0
 115 0010 0120     		movs	r0, #1
 116 0012 00E0     		b	.L10
 117              	.L11:
 443:Generated_Source\PSoC4/CAN.c ****         {
 444:Generated_Source\PSoC4/CAN.c ****             result = CYRET_SUCCESS;
 118              		.loc 1 444 0
 119 0014 0020     		movs	r0, #0
 120              	.L10:
ARM GAS  C:\Users\davis\AppData\Local\Temp\cco880hz.s 			page 11


 121              	.LVL8:
 445:Generated_Source\PSoC4/CAN.c ****         }
 446:Generated_Source\PSoC4/CAN.c ****     #endif /* CY_PSOC3 || CY_PSOC5 */
 447:Generated_Source\PSoC4/CAN.c **** 
 448:Generated_Source\PSoC4/CAN.c ****     return (result);
 449:Generated_Source\PSoC4/CAN.c **** }
 122              		.loc 1 449 0
 123              		@ sp needed
 124 0016 7047     		bx	lr
 125              	.L13:
 126              		.align	2
 127              	.L12:
 128 0018 04002F40 		.word	1076822020
 129              		.cfi_endproc
 130              	.LFE6:
 131              		.size	CAN_GlobalIntEnable, .-CAN_GlobalIntEnable
 132              		.section	.text.CAN_Enable,"ax",%progbits
 133              		.align	2
 134              		.global	CAN_Enable
 135              		.code	16
 136              		.thumb_func
 137              		.type	CAN_Enable, %function
 138              	CAN_Enable:
 139              	.LFB3:
 255:Generated_Source\PSoC4/CAN.c ****     uint32 timeout = CAN_MODE_STATE_RUN_TIMEOUT;
 140              		.loc 1 255 0
 141              		.cfi_startproc
 142              		@ args = 0, pretend = 0, frame = 0
 143              		@ frame_needed = 0, uses_anonymous_args = 0
 144 0000 10B5     		push	{r4, lr}
 145              		.cfi_def_cfa_offset 8
 146              		.cfi_offset 4, -8
 147              		.cfi_offset 14, -4
 148              	.LVL9:
 274:Generated_Source\PSoC4/CAN.c ****     (void) CAN_GlobalIntEnable();
 149              		.loc 1 274 0
 150 0002 0E4A     		ldr	r2, .L20
 151 0004 0E4B     		ldr	r3, .L20+4
 152 0006 1A60     		str	r2, [r3]
 275:Generated_Source\PSoC4/CAN.c **** 
 153              		.loc 1 275 0
 154 0008 FFF7FEFF 		bl	CAN_GlobalIntEnable
 155              	.LVL10:
 278:Generated_Source\PSoC4/CAN.c **** 
 156              		.loc 1 278 0
 157 000c 1D20     		movs	r0, #29
 158 000e FFF7FEFF 		bl	CyIntEnable
 159              	.LVL11:
 281:Generated_Source\PSoC4/CAN.c **** 
 160              		.loc 1 281 0
 161 0012 0C4A     		ldr	r2, .L20+8
 162 0014 1168     		ldr	r1, [r2]
 163 0016 0123     		movs	r3, #1
 164 0018 0B43     		orrs	r3, r1
 165 001a 1360     		str	r3, [r2]
 256:Generated_Source\PSoC4/CAN.c ****     uint8 result = CAN_FAIL;
 166              		.loc 1 256 0
ARM GAS  C:\Users\davis\AppData\Local\Temp\cco880hz.s 			page 12


 167 001c 9023     		movs	r3, #144
 168 001e 5B01     		lsls	r3, r3, #5
 284:Generated_Source\PSoC4/CAN.c ****     {
 169              		.loc 1 284 0
 170 0020 00E0     		b	.L15
 171              	.LVL12:
 172              	.L17:
 286:Generated_Source\PSoC4/CAN.c ****     }
 173              		.loc 1 286 0
 174 0022 013B     		subs	r3, r3, #1
 175              	.LVL13:
 176              	.L15:
 284:Generated_Source\PSoC4/CAN.c ****     {
 177              		.loc 1 284 0
 178 0024 002B     		cmp	r3, #0
 179 0026 03D0     		beq	.L16
 284:Generated_Source\PSoC4/CAN.c ****     {
 180              		.loc 1 284 0 is_stmt 0 discriminator 1
 181 0028 064A     		ldr	r2, .L20+8
 182 002a 1268     		ldr	r2, [r2]
 183 002c D207     		lsls	r2, r2, #31
 184 002e F8D5     		bpl	.L17
 185              	.L16:
 289:Generated_Source\PSoC4/CAN.c ****     {
 186              		.loc 1 289 0 is_stmt 1
 187 0030 002B     		cmp	r3, #0
 188 0032 01D1     		bne	.L19
 257:Generated_Source\PSoC4/CAN.c **** 
 189              		.loc 1 257 0
 190 0034 0120     		movs	r0, #1
 191 0036 00E0     		b	.L18
 192              	.L19:
 291:Generated_Source\PSoC4/CAN.c ****     }
 193              		.loc 1 291 0
 194 0038 0020     		movs	r0, #0
 195              	.L18:
 196              	.LVL14:
 295:Generated_Source\PSoC4/CAN.c **** 
 197              		.loc 1 295 0
 198              		@ sp needed
 199 003a 10BD     		pop	{r4, pc}
 200              	.L21:
 201              		.align	2
 202              	.L20:
 203 003c 01100000 		.word	4097
 204 0040 00002F40 		.word	1076822016
 205 0044 10002F40 		.word	1076822032
 206              		.cfi_endproc
 207              	.LFE3:
 208              		.size	CAN_Enable, .-CAN_Enable
 209              		.section	.text.CAN_GlobalIntDisable,"ax",%progbits
 210              		.align	2
 211              		.global	CAN_GlobalIntDisable
 212              		.code	16
 213              		.thumb_func
 214              		.type	CAN_GlobalIntDisable, %function
 215              	CAN_GlobalIntDisable:
ARM GAS  C:\Users\davis\AppData\Local\Temp\cco880hz.s 			page 13


 216              	.LFB7:
 450:Generated_Source\PSoC4/CAN.c **** 
 451:Generated_Source\PSoC4/CAN.c **** 
 452:Generated_Source\PSoC4/CAN.c **** /*******************************************************************************
 453:Generated_Source\PSoC4/CAN.c **** * FUNCTION NAME:   CAN_GlobalIntDisable
 454:Generated_Source\PSoC4/CAN.c **** ********************************************************************************
 455:Generated_Source\PSoC4/CAN.c **** *
 456:Generated_Source\PSoC4/CAN.c **** * Summary:
 457:Generated_Source\PSoC4/CAN.c **** *  This function disables Global Interrupts from CAN Core.
 458:Generated_Source\PSoC4/CAN.c **** *
 459:Generated_Source\PSoC4/CAN.c **** * Parameters:
 460:Generated_Source\PSoC4/CAN.c **** *  None.
 461:Generated_Source\PSoC4/CAN.c **** *
 462:Generated_Source\PSoC4/CAN.c **** * Return:
 463:Generated_Source\PSoC4/CAN.c **** *  The indication whether the register is written and verified.
 464:Generated_Source\PSoC4/CAN.c **** *   Define                             Description
 465:Generated_Source\PSoC4/CAN.c **** *    CYRET_SUCCESS                      The function passed successfully
 466:Generated_Source\PSoC4/CAN.c **** *    CAN_FAIL              The function failed
 467:Generated_Source\PSoC4/CAN.c **** *
 468:Generated_Source\PSoC4/CAN.c **** *******************************************************************************/
 469:Generated_Source\PSoC4/CAN.c **** uint8 CAN_GlobalIntDisable(void) 
 470:Generated_Source\PSoC4/CAN.c **** {
 217              		.loc 1 470 0
 218              		.cfi_startproc
 219              		@ args = 0, pretend = 0, frame = 0
 220              		@ frame_needed = 0, uses_anonymous_args = 0
 221              		@ link register save eliminated.
 222              	.LVL15:
 471:Generated_Source\PSoC4/CAN.c ****     uint8 result = CAN_FAIL;
 472:Generated_Source\PSoC4/CAN.c **** 
 473:Generated_Source\PSoC4/CAN.c ****     #if (CY_PSOC3 || CY_PSOC5)
 474:Generated_Source\PSoC4/CAN.c ****         CAN_INT_EN_REG.byte[0u] &= (uint8) (~CAN_GLOBAL_INT_MASK);
 475:Generated_Source\PSoC4/CAN.c **** 
 476:Generated_Source\PSoC4/CAN.c ****         /* Verify that bit is cleared */
 477:Generated_Source\PSoC4/CAN.c ****         if ((CAN_INT_EN_REG.byte[0u] & CAN_GLOBAL_INT_MASK) == 0u)
 478:Generated_Source\PSoC4/CAN.c ****         {
 479:Generated_Source\PSoC4/CAN.c ****             result = CYRET_SUCCESS;
 480:Generated_Source\PSoC4/CAN.c ****         }
 481:Generated_Source\PSoC4/CAN.c ****     #else  /* CY_PSOC4 */
 482:Generated_Source\PSoC4/CAN.c ****         CAN_INT_EN_REG &= (uint32) (~((uint32) CAN_GLOBAL_INT_MASK));
 223              		.loc 1 482 0
 224 0000 054B     		ldr	r3, .L25
 225 0002 1A68     		ldr	r2, [r3]
 226 0004 0121     		movs	r1, #1
 227 0006 8A43     		bics	r2, r1
 228 0008 1A60     		str	r2, [r3]
 483:Generated_Source\PSoC4/CAN.c **** 
 484:Generated_Source\PSoC4/CAN.c ****         /* Verify that bit is cleared */
 485:Generated_Source\PSoC4/CAN.c ****         if ((CAN_INT_EN_REG & CAN_GLOBAL_INT_MASK) == 0u)
 229              		.loc 1 485 0
 230 000a 1B68     		ldr	r3, [r3]
 231 000c 1942     		tst	r1, r3
 232 000e 01D0     		beq	.L24
 471:Generated_Source\PSoC4/CAN.c ****     uint8 result = CAN_FAIL;
 233              		.loc 1 471 0
 234 0010 0120     		movs	r0, #1
 235 0012 00E0     		b	.L23
ARM GAS  C:\Users\davis\AppData\Local\Temp\cco880hz.s 			page 14


 236              	.L24:
 486:Generated_Source\PSoC4/CAN.c ****         {
 487:Generated_Source\PSoC4/CAN.c ****             result = CYRET_SUCCESS;
 237              		.loc 1 487 0
 238 0014 0020     		movs	r0, #0
 239              	.L23:
 240              	.LVL16:
 488:Generated_Source\PSoC4/CAN.c ****         }
 489:Generated_Source\PSoC4/CAN.c ****     #endif /* CY_PSOC3 || CY_PSOC5 */
 490:Generated_Source\PSoC4/CAN.c **** 
 491:Generated_Source\PSoC4/CAN.c ****     return (result);
 492:Generated_Source\PSoC4/CAN.c **** }
 241              		.loc 1 492 0
 242              		@ sp needed
 243 0016 7047     		bx	lr
 244              	.L26:
 245              		.align	2
 246              	.L25:
 247 0018 04002F40 		.word	1076822020
 248              		.cfi_endproc
 249              	.LFE7:
 250              		.size	CAN_GlobalIntDisable, .-CAN_GlobalIntDisable
 251              		.section	.text.CAN_SetPreScaler,"ax",%progbits
 252              		.align	2
 253              		.global	CAN_SetPreScaler
 254              		.code	16
 255              		.thumb_func
 256              		.type	CAN_SetPreScaler, %function
 257              	CAN_SetPreScaler:
 258              	.LFB8:
 493:Generated_Source\PSoC4/CAN.c **** 
 494:Generated_Source\PSoC4/CAN.c **** 
 495:Generated_Source\PSoC4/CAN.c **** /*******************************************************************************
 496:Generated_Source\PSoC4/CAN.c **** * FUNCTION NAME:   CAN_SetPreScaler
 497:Generated_Source\PSoC4/CAN.c **** ********************************************************************************
 498:Generated_Source\PSoC4/CAN.c **** *
 499:Generated_Source\PSoC4/CAN.c **** * Summary:
 500:Generated_Source\PSoC4/CAN.c **** *  This function sets PreScaler for generating the time quantum which defines
 501:Generated_Source\PSoC4/CAN.c **** *  the time quanta. The values between 0x0 and 0x7FFF are valid.
 502:Generated_Source\PSoC4/CAN.c **** *
 503:Generated_Source\PSoC4/CAN.c **** * Parameters:
 504:Generated_Source\PSoC4/CAN.c **** *  bitrate: PreScaler value.
 505:Generated_Source\PSoC4/CAN.c **** *   Value           Description
 506:Generated_Source\PSoC4/CAN.c **** *    0               One time quantum equals 1 clock cycle
 507:Generated_Source\PSoC4/CAN.c **** *    1               One time quantum equals 2 clock cycles
 508:Generated_Source\PSoC4/CAN.c **** *    ...             ...
 509:Generated_Source\PSoC4/CAN.c **** *    32767           One time quantum equals 32768 clock cycles
 510:Generated_Source\PSoC4/CAN.c **** *
 511:Generated_Source\PSoC4/CAN.c **** * Return:
 512:Generated_Source\PSoC4/CAN.c **** *  The indication whether the register is written and verified.
 513:Generated_Source\PSoC4/CAN.c **** *   Define                             Description
 514:Generated_Source\PSoC4/CAN.c **** *    CYRET_SUCCESS                      The function passed successfully
 515:Generated_Source\PSoC4/CAN.c **** *    CAN_FAIL              The function failed
 516:Generated_Source\PSoC4/CAN.c **** *    CAN_OUT_OF_RANGE      The function parameter is out of range
 517:Generated_Source\PSoC4/CAN.c **** *
 518:Generated_Source\PSoC4/CAN.c **** *******************************************************************************/
 519:Generated_Source\PSoC4/CAN.c **** uint8 CAN_SetPreScaler(uint16 bitrate) 
ARM GAS  C:\Users\davis\AppData\Local\Temp\cco880hz.s 			page 15


 520:Generated_Source\PSoC4/CAN.c **** {
 259              		.loc 1 520 0
 260              		.cfi_startproc
 261              		@ args = 0, pretend = 0, frame = 0
 262              		@ frame_needed = 0, uses_anonymous_args = 0
 263              		@ link register save eliminated.
 264              	.LVL17:
 521:Generated_Source\PSoC4/CAN.c ****     uint8 result = CAN_OUT_OF_RANGE;
 522:Generated_Source\PSoC4/CAN.c **** 
 523:Generated_Source\PSoC4/CAN.c ****     if (bitrate <= CAN_BITRATE_MASK)
 265              		.loc 1 523 0
 266 0000 03B2     		sxth	r3, r0
 267 0002 002B     		cmp	r3, #0
 268 0004 0DDB     		blt	.L29
 269              	.LVL18:
 524:Generated_Source\PSoC4/CAN.c ****     {
 525:Generated_Source\PSoC4/CAN.c ****         result = CAN_FAIL;
 526:Generated_Source\PSoC4/CAN.c **** 
 527:Generated_Source\PSoC4/CAN.c ****         #if (CY_PSOC3 || CY_PSOC5)
 528:Generated_Source\PSoC4/CAN.c ****             /* Set prescaler */
 529:Generated_Source\PSoC4/CAN.c ****             CY_SET_REG16((reg16 *) (&CAN_CFG_REG.byte[2u]), bitrate);
 530:Generated_Source\PSoC4/CAN.c **** 
 531:Generated_Source\PSoC4/CAN.c ****             /* Verify that prescaler is set */
 532:Generated_Source\PSoC4/CAN.c ****             if (CY_GET_REG16((reg16 *) (&CAN_CFG_REG.byte[2u])) == bitrate)
 533:Generated_Source\PSoC4/CAN.c ****             {
 534:Generated_Source\PSoC4/CAN.c ****                 result = CYRET_SUCCESS;
 535:Generated_Source\PSoC4/CAN.c ****             }
 536:Generated_Source\PSoC4/CAN.c ****         #else  /* CY_PSOC4 */
 537:Generated_Source\PSoC4/CAN.c ****             /* Set prescaler */
 538:Generated_Source\PSoC4/CAN.c ****             CAN_CFG_REG = (CAN_CFG_REG & (uint32) (~CAN_BITRATE_MASK_SHIFTED)) |
 270              		.loc 1 538 0
 271 0006 094A     		ldr	r2, .L31
 272 0008 1168     		ldr	r1, [r2]
 273 000a 094B     		ldr	r3, .L31+4
 274 000c 0B40     		ands	r3, r1
 539:Generated_Source\PSoC4/CAN.c ****             (uint32) ((uint32) bitrate << CAN_BITRATE_SHIFT);
 275              		.loc 1 539 0
 276 000e 0004     		lsls	r0, r0, #16
 277              	.LVL19:
 538:Generated_Source\PSoC4/CAN.c ****             (uint32) ((uint32) bitrate << CAN_BITRATE_SHIFT);
 278              		.loc 1 538 0
 279 0010 0343     		orrs	r3, r0
 280 0012 1360     		str	r3, [r2]
 540:Generated_Source\PSoC4/CAN.c **** 
 541:Generated_Source\PSoC4/CAN.c ****             /* Verify that prescaler is set */
 542:Generated_Source\PSoC4/CAN.c ****             if ((CAN_CFG_REG & CAN_BITRATE_MASK_SHIFTED) ==
 281              		.loc 1 542 0
 282 0014 1268     		ldr	r2, [r2]
 283 0016 074B     		ldr	r3, .L31+8
 284 0018 1340     		ands	r3, r2
 285 001a 9842     		cmp	r0, r3
 286 001c 03D0     		beq	.L30
 525:Generated_Source\PSoC4/CAN.c **** 
 287              		.loc 1 525 0
 288 001e 0120     		movs	r0, #1
 289 0020 02E0     		b	.L28
 290              	.LVL20:
ARM GAS  C:\Users\davis\AppData\Local\Temp\cco880hz.s 			page 16


 291              	.L29:
 521:Generated_Source\PSoC4/CAN.c **** 
 292              		.loc 1 521 0
 293 0022 0220     		movs	r0, #2
 294              	.LVL21:
 295 0024 00E0     		b	.L28
 296              	.LVL22:
 297              	.L30:
 543:Generated_Source\PSoC4/CAN.c ****                ((uint32) ((uint32) bitrate << CAN_BITRATE_SHIFT)))
 544:Generated_Source\PSoC4/CAN.c ****             {
 545:Generated_Source\PSoC4/CAN.c ****                 result = CYRET_SUCCESS;
 298              		.loc 1 545 0
 299 0026 0020     		movs	r0, #0
 300              	.LVL23:
 301              	.L28:
 546:Generated_Source\PSoC4/CAN.c ****             }
 547:Generated_Source\PSoC4/CAN.c ****         #endif /* CY_PSOC3 || CY_PSOC5 */
 548:Generated_Source\PSoC4/CAN.c ****     }
 549:Generated_Source\PSoC4/CAN.c **** 
 550:Generated_Source\PSoC4/CAN.c ****     return (result);
 551:Generated_Source\PSoC4/CAN.c **** }
 302              		.loc 1 551 0
 303              		@ sp needed
 304 0028 7047     		bx	lr
 305              	.L32:
 306 002a C046     		.align	2
 307              	.L31:
 308 002c 14002F40 		.word	1076822036
 309 0030 FFFF0080 		.word	-2147418113
 310 0034 0000FF7F 		.word	2147418112
 311              		.cfi_endproc
 312              	.LFE8:
 313              		.size	CAN_SetPreScaler, .-CAN_SetPreScaler
 314              		.section	.text.CAN_SetArbiter,"ax",%progbits
 315              		.align	2
 316              		.global	CAN_SetArbiter
 317              		.code	16
 318              		.thumb_func
 319              		.type	CAN_SetArbiter, %function
 320              	CAN_SetArbiter:
 321              	.LFB9:
 552:Generated_Source\PSoC4/CAN.c **** 
 553:Generated_Source\PSoC4/CAN.c **** 
 554:Generated_Source\PSoC4/CAN.c **** /*******************************************************************************
 555:Generated_Source\PSoC4/CAN.c **** * FUNCTION NAME:   CAN_SetArbiter
 556:Generated_Source\PSoC4/CAN.c **** ********************************************************************************
 557:Generated_Source\PSoC4/CAN.c **** *
 558:Generated_Source\PSoC4/CAN.c **** * Summary:
 559:Generated_Source\PSoC4/CAN.c **** *  This function sets the arbitration type for transmit mailboxes. The types of
 560:Generated_Source\PSoC4/CAN.c **** *  the arbiters are Round Robin and Fixed Priority. Values 0 and 1 are valid.
 561:Generated_Source\PSoC4/CAN.c **** *
 562:Generated_Source\PSoC4/CAN.c **** * Parameters:
 563:Generated_Source\PSoC4/CAN.c **** *  arbiter: The arbitration type for transmit mailboxes.
 564:Generated_Source\PSoC4/CAN.c **** *   Value                              Description
 565:Generated_Source\PSoC4/CAN.c **** *    CAN_ROUND_ROBIN       The Round Robin arbitration
 566:Generated_Source\PSoC4/CAN.c **** *    CAN_FIXED_PRIORITY    The Fixed Priority arbitration.
 567:Generated_Source\PSoC4/CAN.c **** *
ARM GAS  C:\Users\davis\AppData\Local\Temp\cco880hz.s 			page 17


 568:Generated_Source\PSoC4/CAN.c **** * Return:
 569:Generated_Source\PSoC4/CAN.c **** *  The indication whether the register is written and verified.
 570:Generated_Source\PSoC4/CAN.c **** *   Define                             Description
 571:Generated_Source\PSoC4/CAN.c **** *    CYRET_SUCCESS                      The function passed successfully
 572:Generated_Source\PSoC4/CAN.c **** *    CAN_FAIL              The function failed
 573:Generated_Source\PSoC4/CAN.c **** *
 574:Generated_Source\PSoC4/CAN.c **** *******************************************************************************/
 575:Generated_Source\PSoC4/CAN.c **** uint8 CAN_SetArbiter(uint8 arbiter) 
 576:Generated_Source\PSoC4/CAN.c **** {
 322              		.loc 1 576 0
 323              		.cfi_startproc
 324              		@ args = 0, pretend = 0, frame = 0
 325              		@ frame_needed = 0, uses_anonymous_args = 0
 326              		@ link register save eliminated.
 327              	.LVL24:
 577:Generated_Source\PSoC4/CAN.c ****     uint8 result = CAN_FAIL;
 578:Generated_Source\PSoC4/CAN.c **** 
 579:Generated_Source\PSoC4/CAN.c ****     #if (CY_PSOC3 || CY_PSOC5)
 580:Generated_Source\PSoC4/CAN.c ****         if (arbiter == CAN_ROUND_ROBIN)
 581:Generated_Source\PSoC4/CAN.c ****         {
 582:Generated_Source\PSoC4/CAN.c ****             CAN_CFG_REG.byte[1u] &= (uint8) (~CAN_ARBITRATION_MASK);
 583:Generated_Source\PSoC4/CAN.c **** 
 584:Generated_Source\PSoC4/CAN.c ****             /* Verify that bit is cleared */
 585:Generated_Source\PSoC4/CAN.c ****             if ((CAN_CFG_REG.byte[1u] & CAN_ARBITRATION_MASK) == 0u)
 586:Generated_Source\PSoC4/CAN.c ****             {
 587:Generated_Source\PSoC4/CAN.c ****                 result = CYRET_SUCCESS;
 588:Generated_Source\PSoC4/CAN.c ****             }
 589:Generated_Source\PSoC4/CAN.c ****         }
 590:Generated_Source\PSoC4/CAN.c ****         else    /* Fixed Priority */
 591:Generated_Source\PSoC4/CAN.c ****         {
 592:Generated_Source\PSoC4/CAN.c ****             CAN_CFG_REG.byte[1u] |= CAN_ARBITRATION_MASK;
 593:Generated_Source\PSoC4/CAN.c **** 
 594:Generated_Source\PSoC4/CAN.c ****             /* Verify that bit is set */
 595:Generated_Source\PSoC4/CAN.c ****             if ((CAN_CFG_REG.byte[1u] & CAN_ARBITRATION_MASK) != 0u)
 596:Generated_Source\PSoC4/CAN.c ****             {
 597:Generated_Source\PSoC4/CAN.c ****                 result = CYRET_SUCCESS;
 598:Generated_Source\PSoC4/CAN.c ****             }
 599:Generated_Source\PSoC4/CAN.c ****         }
 600:Generated_Source\PSoC4/CAN.c ****     #else  /* CY_PSOC4 */
 601:Generated_Source\PSoC4/CAN.c ****         if (arbiter == CAN_ROUND_ROBIN)
 328              		.loc 1 601 0
 329 0000 0028     		cmp	r0, #0
 330 0002 09D1     		bne	.L34
 602:Generated_Source\PSoC4/CAN.c ****         {
 603:Generated_Source\PSoC4/CAN.c ****             CAN_CFG_REG &= (uint32) (~CAN_ARBITRATION_MASK);
 331              		.loc 1 603 0
 332 0004 0C4B     		ldr	r3, .L38
 333 0006 1968     		ldr	r1, [r3]
 334 0008 0C4A     		ldr	r2, .L38+4
 335 000a 0A40     		ands	r2, r1
 336 000c 1A60     		str	r2, [r3]
 604:Generated_Source\PSoC4/CAN.c **** 
 605:Generated_Source\PSoC4/CAN.c ****             /* Verify that bit is cleared */
 606:Generated_Source\PSoC4/CAN.c ****             if ((CAN_CFG_REG & CAN_ARBITRATION_MASK) == 0u)
 337              		.loc 1 606 0
 338 000e 1B68     		ldr	r3, [r3]
 339 0010 DB04     		lsls	r3, r3, #19
ARM GAS  C:\Users\davis\AppData\Local\Temp\cco880hz.s 			page 18


 340 0012 0CD5     		bpl	.L36
 577:Generated_Source\PSoC4/CAN.c **** 
 341              		.loc 1 577 0
 342 0014 0130     		adds	r0, r0, #1
 343              	.LVL25:
 344 0016 0DE0     		b	.L35
 345              	.LVL26:
 346              	.L34:
 607:Generated_Source\PSoC4/CAN.c ****             {
 608:Generated_Source\PSoC4/CAN.c ****                 result = CYRET_SUCCESS;
 609:Generated_Source\PSoC4/CAN.c ****             }
 610:Generated_Source\PSoC4/CAN.c ****         }
 611:Generated_Source\PSoC4/CAN.c ****         else    /* Fixed priority */
 612:Generated_Source\PSoC4/CAN.c ****         {
 613:Generated_Source\PSoC4/CAN.c ****             CAN_CFG_REG |= CAN_ARBITRATION_MASK;
 347              		.loc 1 613 0
 348 0018 074B     		ldr	r3, .L38
 349 001a 1A68     		ldr	r2, [r3]
 350 001c 8021     		movs	r1, #128
 351 001e 4901     		lsls	r1, r1, #5
 352 0020 0A43     		orrs	r2, r1
 353 0022 1A60     		str	r2, [r3]
 614:Generated_Source\PSoC4/CAN.c **** 
 615:Generated_Source\PSoC4/CAN.c ****             /* Verify that bit is set */
 616:Generated_Source\PSoC4/CAN.c ****             if ((CAN_CFG_REG & CAN_ARBITRATION_MASK) != 0u)
 354              		.loc 1 616 0
 355 0024 1B68     		ldr	r3, [r3]
 356 0026 0B42     		tst	r3, r1
 357 0028 03D1     		bne	.L37
 577:Generated_Source\PSoC4/CAN.c **** 
 358              		.loc 1 577 0
 359 002a 0120     		movs	r0, #1
 360              	.LVL27:
 361 002c 02E0     		b	.L35
 362              	.LVL28:
 363              	.L36:
 608:Generated_Source\PSoC4/CAN.c ****             }
 364              		.loc 1 608 0
 365 002e 0020     		movs	r0, #0
 366              	.LVL29:
 367 0030 00E0     		b	.L35
 368              	.LVL30:
 369              	.L37:
 617:Generated_Source\PSoC4/CAN.c ****             {
 618:Generated_Source\PSoC4/CAN.c ****                 result = CYRET_SUCCESS;
 370              		.loc 1 618 0
 371 0032 0020     		movs	r0, #0
 372              	.LVL31:
 373              	.L35:
 619:Generated_Source\PSoC4/CAN.c ****             }
 620:Generated_Source\PSoC4/CAN.c ****         }
 621:Generated_Source\PSoC4/CAN.c ****     #endif /* CY_PSOC3 || CY_PSOC5 */
 622:Generated_Source\PSoC4/CAN.c **** 
 623:Generated_Source\PSoC4/CAN.c ****     return (result);
 624:Generated_Source\PSoC4/CAN.c **** }
 374              		.loc 1 624 0
 375              		@ sp needed
ARM GAS  C:\Users\davis\AppData\Local\Temp\cco880hz.s 			page 19


 376 0034 7047     		bx	lr
 377              	.L39:
 378 0036 C046     		.align	2
 379              	.L38:
 380 0038 14002F40 		.word	1076822036
 381 003c FFEFFFFF 		.word	-4097
 382              		.cfi_endproc
 383              	.LFE9:
 384              		.size	CAN_SetArbiter, .-CAN_SetArbiter
 385              		.section	.text.CAN_SetTsegSample,"ax",%progbits
 386              		.align	2
 387              		.global	CAN_SetTsegSample
 388              		.code	16
 389              		.thumb_func
 390              		.type	CAN_SetTsegSample, %function
 391              	CAN_SetTsegSample:
 392              	.LFB10:
 625:Generated_Source\PSoC4/CAN.c **** 
 626:Generated_Source\PSoC4/CAN.c **** 
 627:Generated_Source\PSoC4/CAN.c **** /*******************************************************************************
 628:Generated_Source\PSoC4/CAN.c **** * FUNCTION NAME: CAN_SetTsegSample
 629:Generated_Source\PSoC4/CAN.c **** ********************************************************************************
 630:Generated_Source\PSoC4/CAN.c **** *
 631:Generated_Source\PSoC4/CAN.c **** * Summary:
 632:Generated_Source\PSoC4/CAN.c **** *  This function configures: Time segment 1, Time segment 2, Sampling Mode
 633:Generated_Source\PSoC4/CAN.c **** *  and Synchronization Jump Width.
 634:Generated_Source\PSoC4/CAN.c **** *
 635:Generated_Source\PSoC4/CAN.c **** * Parameters:
 636:Generated_Source\PSoC4/CAN.c **** *  cfgTseg1: The length of time segment 1, values between 0x2 and 0xF are valid;
 637:Generated_Source\PSoC4/CAN.c **** *  cfgTseg2: The length of time segment 2, values between 0x1 and 0x7 are valid;
 638:Generated_Source\PSoC4/CAN.c **** *  sjw: Synchronization Jump Width, value between 0x0 and 0x3 are valid;
 639:Generated_Source\PSoC4/CAN.c **** *  sm: Sampling Mode.
 640:Generated_Source\PSoC4/CAN.c **** *   Define                               Description
 641:Generated_Source\PSoC4/CAN.c **** *   CAN_ONE_SAMPLE_POINT     One sampling point is used
 642:Generated_Source\PSoC4/CAN.c **** *   CAN_THREE_SAMPLE_POINTS  Three sampling points are used
 643:Generated_Source\PSoC4/CAN.c **** *
 644:Generated_Source\PSoC4/CAN.c **** * Return:
 645:Generated_Source\PSoC4/CAN.c **** *  The indication whether the register is written and verified.
 646:Generated_Source\PSoC4/CAN.c **** *   Define                             Description
 647:Generated_Source\PSoC4/CAN.c **** *    CYRET_SUCCESS                      The function passed successfully
 648:Generated_Source\PSoC4/CAN.c **** *    CAN_FAIL              The function failed
 649:Generated_Source\PSoC4/CAN.c **** *    CAN_OUT_OF_RANGE      The function parameter is out of range
 650:Generated_Source\PSoC4/CAN.c **** *
 651:Generated_Source\PSoC4/CAN.c **** *******************************************************************************/
 652:Generated_Source\PSoC4/CAN.c **** uint8 CAN_SetTsegSample(uint8 cfgTseg1, uint8 cfgTseg2, uint8 sjw, uint8 sm)
 653:Generated_Source\PSoC4/CAN.c ****                                      
 654:Generated_Source\PSoC4/CAN.c **** {
 393              		.loc 1 654 0
 394              		.cfi_startproc
 395              		@ args = 0, pretend = 0, frame = 0
 396              		@ frame_needed = 0, uses_anonymous_args = 0
 397              	.LVL32:
 398 0000 70B5     		push	{r4, r5, r6, lr}
 399              		.cfi_def_cfa_offset 16
 400              		.cfi_offset 4, -16
 401              		.cfi_offset 5, -12
 402              		.cfi_offset 6, -8
ARM GAS  C:\Users\davis\AppData\Local\Temp\cco880hz.s 			page 20


 403              		.cfi_offset 14, -4
 404              	.LVL33:
 655:Generated_Source\PSoC4/CAN.c ****     uint8 result = CAN_OUT_OF_RANGE;
 656:Generated_Source\PSoC4/CAN.c ****     uint8 cfgTemp;
 657:Generated_Source\PSoC4/CAN.c **** 
 658:Generated_Source\PSoC4/CAN.c ****     if ((cfgTseg1 >= CAN_CFG_REG_TSEG1_LOWER_LIMIT) && (cfgTseg1 <=
 405              		.loc 1 658 0
 406 0002 841E     		subs	r4, r0, #2
 407 0004 E4B2     		uxtb	r4, r4
 408 0006 0D2C     		cmp	r4, #13
 409 0008 35D8     		bhi	.L44
 659:Generated_Source\PSoC4/CAN.c ****          CAN_CFG_REG_TSEG1_UPPER_LIMIT))
 660:Generated_Source\PSoC4/CAN.c ****     {
 661:Generated_Source\PSoC4/CAN.c ****         if (((cfgTseg2 >= CAN_CFG_REG_TSEG2_LOWER_LIMIT) &&
 410              		.loc 1 661 0
 411 000a 8C1E     		subs	r4, r1, #2
 412 000c E4B2     		uxtb	r4, r4
 413 000e 052C     		cmp	r4, #5
 414 0010 03D9     		bls	.L42
 662:Generated_Source\PSoC4/CAN.c ****              (cfgTseg2 <= CAN_CFG_REG_TSEG2_UPPER_LIMIT)) || ((sm == CAN_ONE_SAMPLE_POINT) &&
 415              		.loc 1 662 0
 416 0012 002B     		cmp	r3, #0
 417 0014 31D1     		bne	.L45
 418              		.loc 1 662 0 is_stmt 0 discriminator 1
 419 0016 0129     		cmp	r1, #1
 420 0018 31D1     		bne	.L46
 421              	.L42:
 663:Generated_Source\PSoC4/CAN.c ****              (cfgTseg2 == CAN_CFG_REG_TSEG2_EXCEPTION)))
 664:Generated_Source\PSoC4/CAN.c ****         {
 665:Generated_Source\PSoC4/CAN.c ****             if ((sjw <= CAN_CFG_REG_SJW_LOWER_LIMIT) && (sjw <= cfgTseg1) && (sjw <= cfgTseg2))
 422              		.loc 1 665 0 is_stmt 1
 423 001a 032A     		cmp	r2, #3
 424 001c 31D8     		bhi	.L47
 425              		.loc 1 665 0 is_stmt 0 discriminator 1
 426 001e 9042     		cmp	r0, r2
 427 0020 31D3     		bcc	.L48
 428              		.loc 1 665 0 discriminator 2
 429 0022 9142     		cmp	r1, r2
 430 0024 31D3     		bcc	.L49
 431              	.LVL34:
 666:Generated_Source\PSoC4/CAN.c ****             {
 667:Generated_Source\PSoC4/CAN.c ****                 result = CAN_FAIL;
 668:Generated_Source\PSoC4/CAN.c **** 
 669:Generated_Source\PSoC4/CAN.c ****                 #if (CY_PSOC3 || CY_PSOC5)
 670:Generated_Source\PSoC4/CAN.c ****                     cfgTemp = CAN_CFG_REG.byte[1];
 671:Generated_Source\PSoC4/CAN.c ****                     cfgTemp &= (uint8) (~CAN_CFG_REG_TSEG1_MASK);
 672:Generated_Source\PSoC4/CAN.c ****                     cfgTemp |= cfgTseg1;
 673:Generated_Source\PSoC4/CAN.c **** 
 674:Generated_Source\PSoC4/CAN.c ****                     /* Write register byte 1 */
 675:Generated_Source\PSoC4/CAN.c ****                     CAN_CFG_REG.byte[1u] = cfgTemp;
 676:Generated_Source\PSoC4/CAN.c **** 
 677:Generated_Source\PSoC4/CAN.c ****                     /* Verify 1st byte of CAN_CFG_REG register */
 678:Generated_Source\PSoC4/CAN.c ****                     if (CAN_CFG_REG.byte[1u] == cfgTemp)
 679:Generated_Source\PSoC4/CAN.c ****                     {
 680:Generated_Source\PSoC4/CAN.c ****                         cfgTemp = 0u;
 681:Generated_Source\PSoC4/CAN.c ****                         /* Set appropriate bits */
 682:Generated_Source\PSoC4/CAN.c ****                         if (sm != CAN_ONE_SAMPLE_POINT)
ARM GAS  C:\Users\davis\AppData\Local\Temp\cco880hz.s 			page 21


 683:Generated_Source\PSoC4/CAN.c ****                         {
 684:Generated_Source\PSoC4/CAN.c ****                             cfgTemp = CAN_SAMPLE_MODE_MASK;
 685:Generated_Source\PSoC4/CAN.c ****                         }
 686:Generated_Source\PSoC4/CAN.c ****                         cfgTemp |= ((uint8) (cfgTseg2 << CAN_CFG_REG_TSEG2_SHIFT)) |
 687:Generated_Source\PSoC4/CAN.c ****                                    ((uint8) (sjw << CAN_CFG_REG_SJW_SHIFT));
 688:Generated_Source\PSoC4/CAN.c **** 
 689:Generated_Source\PSoC4/CAN.c ****                         /* Write register byte 0 */
 690:Generated_Source\PSoC4/CAN.c ****                         CAN_CFG_REG.byte[0u] = cfgTemp;
 691:Generated_Source\PSoC4/CAN.c **** 
 692:Generated_Source\PSoC4/CAN.c ****                         /* Verify 1st byte of CAN_CFG_REG register */
 693:Generated_Source\PSoC4/CAN.c ****                         if (CAN_CFG_REG.byte[0u] == cfgTemp)
 694:Generated_Source\PSoC4/CAN.c ****                         {
 695:Generated_Source\PSoC4/CAN.c ****                             result = CYRET_SUCCESS;
 696:Generated_Source\PSoC4/CAN.c ****                         }
 697:Generated_Source\PSoC4/CAN.c ****                     }
 698:Generated_Source\PSoC4/CAN.c ****                 #else  /* CY_PSOC4 */
 699:Generated_Source\PSoC4/CAN.c ****                     cfgTemp = (uint8) (CAN_CFG_REG >> CAN_CFG_REG_TSEG1_SHIFT);
 432              		.loc 1 699 0 is_stmt 1
 433 0026 1C4D     		ldr	r5, .L53
 434 0028 2C68     		ldr	r4, [r5]
 435 002a 240A     		lsrs	r4, r4, #8
 436 002c E4B2     		uxtb	r4, r4
 437              	.LVL35:
 700:Generated_Source\PSoC4/CAN.c ****                     cfgTemp &= (uint8) (~CAN_CFG_REG_TSEG1_MASK);
 438              		.loc 1 700 0
 439 002e 0F26     		movs	r6, #15
 440 0030 B443     		bics	r4, r6
 441              	.LVL36:
 701:Generated_Source\PSoC4/CAN.c ****                     cfgTemp |= cfgTseg1;
 442              		.loc 1 701 0
 443 0032 2043     		orrs	r0, r4
 444              	.LVL37:
 702:Generated_Source\PSoC4/CAN.c **** 
 703:Generated_Source\PSoC4/CAN.c ****                     /* Write register byte 1 */
 704:Generated_Source\PSoC4/CAN.c ****                     CAN_CFG_REG =
 705:Generated_Source\PSoC4/CAN.c ****                     (CAN_CFG_REG & (uint32) (~((uint32) ((uint32) CAN_CFG_REG_TSEG1_MASK <<
 445              		.loc 1 705 0
 446 0034 2E68     		ldr	r6, [r5]
 447 0036 194C     		ldr	r4, .L53+4
 448 0038 3440     		ands	r4, r6
 706:Generated_Source\PSoC4/CAN.c ****                     CAN_CFG_REG_TSEG1_SHIFT)))) |
 707:Generated_Source\PSoC4/CAN.c ****                     (uint32) ((uint32) cfgTemp << CAN_CFG_REG_TSEG1_SHIFT);
 449              		.loc 1 707 0
 450 003a 0002     		lsls	r0, r0, #8
 451              	.LVL38:
 706:Generated_Source\PSoC4/CAN.c ****                     CAN_CFG_REG_TSEG1_SHIFT)))) |
 452              		.loc 1 706 0
 453 003c 0443     		orrs	r4, r0
 704:Generated_Source\PSoC4/CAN.c ****                     (CAN_CFG_REG & (uint32) (~((uint32) ((uint32) CAN_CFG_REG_TSEG1_MASK <<
 454              		.loc 1 704 0
 455 003e 2C60     		str	r4, [r5]
 708:Generated_Source\PSoC4/CAN.c **** 
 709:Generated_Source\PSoC4/CAN.c ****                     /* Verify 1st byte of CAN_CFG_REG register */
 710:Generated_Source\PSoC4/CAN.c ****                     if ((CAN_CFG_REG & (uint32) ((uint32) CAN_CFG_REG_TSEG1_MASK <<
 456              		.loc 1 710 0
 457 0040 2C68     		ldr	r4, [r5]
 711:Generated_Source\PSoC4/CAN.c ****                        CAN_CFG_REG_TSEG1_SHIFT)) == (uint32) ((uint32) ((uint32) cfgTemp &
ARM GAS  C:\Users\davis\AppData\Local\Temp\cco880hz.s 			page 22


 458              		.loc 1 711 0
 459 0042 6040     		eors	r0, r4
 460 0044 F024     		movs	r4, #240
 461 0046 2401     		lsls	r4, r4, #4
 710:Generated_Source\PSoC4/CAN.c ****                        CAN_CFG_REG_TSEG1_SHIFT)) == (uint32) ((uint32) ((uint32) cfgTemp &
 462              		.loc 1 710 0
 463 0048 2042     		tst	r0, r4
 464 004a 20D1     		bne	.L50
 465              	.LVL39:
 712:Generated_Source\PSoC4/CAN.c ****                        CAN_CFG_REG_TSEG1_MASK) << CAN_CFG_REG_TSEG1_SHIFT))
 713:Generated_Source\PSoC4/CAN.c ****                     {
 714:Generated_Source\PSoC4/CAN.c ****                         cfgTemp = 0u;
 715:Generated_Source\PSoC4/CAN.c ****                         /* Set appropriate bits */
 716:Generated_Source\PSoC4/CAN.c ****                         if (sm != CAN_ONE_SAMPLE_POINT)
 466              		.loc 1 716 0
 467 004c 002B     		cmp	r3, #0
 468 004e 00D0     		beq	.L43
 717:Generated_Source\PSoC4/CAN.c ****                         {
 718:Generated_Source\PSoC4/CAN.c ****                             cfgTemp = CAN_SAMPLE_MODE_MASK;
 469              		.loc 1 718 0
 470 0050 0223     		movs	r3, #2
 471              	.LVL40:
 472              	.L43:
 719:Generated_Source\PSoC4/CAN.c ****                         }
 720:Generated_Source\PSoC4/CAN.c ****                         cfgTemp |= ((uint8) (cfgTseg2 << CAN_CFG_REG_TSEG2_SHIFT)) |
 473              		.loc 1 720 0
 474 0052 4901     		lsls	r1, r1, #5
 475              	.LVL41:
 476 0054 C9B2     		uxtb	r1, r1
 721:Generated_Source\PSoC4/CAN.c ****                                    ((uint8) (sjw << CAN_CFG_REG_SJW_SHIFT));
 477              		.loc 1 721 0
 478 0056 9200     		lsls	r2, r2, #2
 479              	.LVL42:
 480 0058 D2B2     		uxtb	r2, r2
 720:Generated_Source\PSoC4/CAN.c ****                                    ((uint8) (sjw << CAN_CFG_REG_SJW_SHIFT));
 481              		.loc 1 720 0
 482 005a 1143     		orrs	r1, r2
 483 005c 1943     		orrs	r1, r3
 484              	.LVL43:
 722:Generated_Source\PSoC4/CAN.c **** 
 723:Generated_Source\PSoC4/CAN.c ****                         /* Write register byte 0 */
 724:Generated_Source\PSoC4/CAN.c ****                         CAN_CFG_REG = (CAN_CFG_REG &
 485              		.loc 1 724 0
 486 005e 0E4A     		ldr	r2, .L53
 487 0060 1368     		ldr	r3, [r2]
 488 0062 EE20     		movs	r0, #238
 489 0064 8343     		bics	r3, r0
 725:Generated_Source\PSoC4/CAN.c ****                         (uint32) (~((uint32) (CAN_CFG_REG_TSEG2_MASK | CAN_CFG_REG_SJW_MASK |
 726:Generated_Source\PSoC4/CAN.c ****                         CAN_SAMPLE_MODE_MASK)))) | cfgTemp;
 490              		.loc 1 726 0
 491 0066 0B43     		orrs	r3, r1
 724:Generated_Source\PSoC4/CAN.c ****                         (uint32) (~((uint32) (CAN_CFG_REG_TSEG2_MASK | CAN_CFG_REG_SJW_MASK |
 492              		.loc 1 724 0
 493 0068 1360     		str	r3, [r2]
 727:Generated_Source\PSoC4/CAN.c **** 
 728:Generated_Source\PSoC4/CAN.c ****                         /* Verify 1st byte of CAN_CFG_REG register */
 729:Generated_Source\PSoC4/CAN.c ****                         if ((CAN_CFG_REG & (CAN_CFG_REG_TSEG2_MASK |
ARM GAS  C:\Users\davis\AppData\Local\Temp\cco880hz.s 			page 23


 494              		.loc 1 729 0
 495 006a 1368     		ldr	r3, [r2]
 496 006c 0340     		ands	r3, r0
 497 006e 9942     		cmp	r1, r3
 498 0070 0FD0     		beq	.L52
 667:Generated_Source\PSoC4/CAN.c **** 
 499              		.loc 1 667 0
 500 0072 ED38     		subs	r0, r0, #237
 501 0074 0EE0     		b	.L41
 502              	.LVL44:
 503              	.L44:
 655:Generated_Source\PSoC4/CAN.c ****     uint8 cfgTemp;
 504              		.loc 1 655 0
 505 0076 0220     		movs	r0, #2
 506              	.LVL45:
 507 0078 0CE0     		b	.L41
 508              	.LVL46:
 509              	.L45:
 510 007a 0220     		movs	r0, #2
 511              	.LVL47:
 512 007c 0AE0     		b	.L41
 513              	.LVL48:
 514              	.L46:
 515 007e 0220     		movs	r0, #2
 516              	.LVL49:
 517 0080 08E0     		b	.L41
 518              	.LVL50:
 519              	.L47:
 520 0082 0220     		movs	r0, #2
 521              	.LVL51:
 522 0084 06E0     		b	.L41
 523              	.LVL52:
 524              	.L48:
 525 0086 0220     		movs	r0, #2
 526              	.LVL53:
 527 0088 04E0     		b	.L41
 528              	.LVL54:
 529              	.L49:
 530 008a 0220     		movs	r0, #2
 531              	.LVL55:
 532 008c 02E0     		b	.L41
 533              	.LVL56:
 534              	.L50:
 667:Generated_Source\PSoC4/CAN.c **** 
 535              		.loc 1 667 0
 536 008e 0120     		movs	r0, #1
 537 0090 00E0     		b	.L41
 538              	.LVL57:
 539              	.L52:
 730:Generated_Source\PSoC4/CAN.c ****                            CAN_CFG_REG_SJW_MASK | CAN_SAMPLE_MODE_MASK)) == cfgTemp)
 731:Generated_Source\PSoC4/CAN.c ****                         {
 732:Generated_Source\PSoC4/CAN.c ****                             result = CYRET_SUCCESS;
 540              		.loc 1 732 0
 541 0092 0020     		movs	r0, #0
 542              	.LVL58:
 543              	.L41:
 733:Generated_Source\PSoC4/CAN.c ****                         }
ARM GAS  C:\Users\davis\AppData\Local\Temp\cco880hz.s 			page 24


 734:Generated_Source\PSoC4/CAN.c ****                     }
 735:Generated_Source\PSoC4/CAN.c ****                 #endif /* CY_PSOC3 || CY_PSOC5 */
 736:Generated_Source\PSoC4/CAN.c ****             }
 737:Generated_Source\PSoC4/CAN.c ****         }
 738:Generated_Source\PSoC4/CAN.c ****     }
 739:Generated_Source\PSoC4/CAN.c **** 
 740:Generated_Source\PSoC4/CAN.c ****     return (result);
 741:Generated_Source\PSoC4/CAN.c **** }
 544              		.loc 1 741 0
 545              		@ sp needed
 546 0094 70BD     		pop	{r4, r5, r6, pc}
 547              	.L54:
 548 0096 C046     		.align	2
 549              	.L53:
 550 0098 14002F40 		.word	1076822036
 551 009c FFF0FFFF 		.word	-3841
 552              		.cfi_endproc
 553              	.LFE10:
 554              		.size	CAN_SetTsegSample, .-CAN_SetTsegSample
 555              		.section	.text.CAN_SetRestartType,"ax",%progbits
 556              		.align	2
 557              		.global	CAN_SetRestartType
 558              		.code	16
 559              		.thumb_func
 560              		.type	CAN_SetRestartType, %function
 561              	CAN_SetRestartType:
 562              	.LFB11:
 742:Generated_Source\PSoC4/CAN.c **** 
 743:Generated_Source\PSoC4/CAN.c **** 
 744:Generated_Source\PSoC4/CAN.c **** /*******************************************************************************
 745:Generated_Source\PSoC4/CAN.c **** * FUNCTION NAME:   CAN_SetRestartType
 746:Generated_Source\PSoC4/CAN.c **** ********************************************************************************
 747:Generated_Source\PSoC4/CAN.c **** *
 748:Generated_Source\PSoC4/CAN.c **** * Summary:
 749:Generated_Source\PSoC4/CAN.c **** *  This function sets the Reset type. The types of Reset are Automatic and
 750:Generated_Source\PSoC4/CAN.c **** *  Manual. Manual Reset is the recommended setting.
 751:Generated_Source\PSoC4/CAN.c **** *
 752:Generated_Source\PSoC4/CAN.c **** * Parameters:
 753:Generated_Source\PSoC4/CAN.c **** *  reset: Reset Type.
 754:Generated_Source\PSoC4/CAN.c **** *   Define                             Description
 755:Generated_Source\PSoC4/CAN.c **** *    CAN_MANUAL_RESTART    After Bus-Off, CAN must be restarted
 756:Generated_Source\PSoC4/CAN.c **** *                                       manually. This is the recommended
 757:Generated_Source\PSoC4/CAN.c **** *                                       setting.
 758:Generated_Source\PSoC4/CAN.c **** *    CAN_AUTO_RESTART      After Bus-Off, CAN restarts
 759:Generated_Source\PSoC4/CAN.c **** *                                       automatically after 128 groups of 11
 760:Generated_Source\PSoC4/CAN.c **** *                                       recessive bits.
 761:Generated_Source\PSoC4/CAN.c **** *
 762:Generated_Source\PSoC4/CAN.c **** * Return:
 763:Generated_Source\PSoC4/CAN.c **** *  The indication whether the register is written and verified.
 764:Generated_Source\PSoC4/CAN.c **** *   Define                             Description
 765:Generated_Source\PSoC4/CAN.c **** *    CYRET_SUCCESS                      The function passed successfully
 766:Generated_Source\PSoC4/CAN.c **** *    CAN_FAIL              The function failed
 767:Generated_Source\PSoC4/CAN.c **** *
 768:Generated_Source\PSoC4/CAN.c **** *******************************************************************************/
 769:Generated_Source\PSoC4/CAN.c **** uint8 CAN_SetRestartType(uint8 reset) 
 770:Generated_Source\PSoC4/CAN.c **** {
 563              		.loc 1 770 0
ARM GAS  C:\Users\davis\AppData\Local\Temp\cco880hz.s 			page 25


 564              		.cfi_startproc
 565              		@ args = 0, pretend = 0, frame = 0
 566              		@ frame_needed = 0, uses_anonymous_args = 0
 567              		@ link register save eliminated.
 568              	.LVL59:
 771:Generated_Source\PSoC4/CAN.c ****     uint8 result = CAN_FAIL;
 772:Generated_Source\PSoC4/CAN.c **** 
 773:Generated_Source\PSoC4/CAN.c ****     #if (CY_PSOC3 || CY_PSOC5)
 774:Generated_Source\PSoC4/CAN.c ****         if (reset == CAN_MANUAL_RESTART)
 775:Generated_Source\PSoC4/CAN.c ****         {
 776:Generated_Source\PSoC4/CAN.c ****             CAN_CFG_REG.byte[0u] &= (uint8) (~CAN_RESET_MASK);
 777:Generated_Source\PSoC4/CAN.c **** 
 778:Generated_Source\PSoC4/CAN.c ****             /* Verify that bit is cleared */
 779:Generated_Source\PSoC4/CAN.c ****             if ((CAN_CFG_REG.byte[0u] & CAN_RESET_MASK) == 0u)
 780:Generated_Source\PSoC4/CAN.c ****             {
 781:Generated_Source\PSoC4/CAN.c ****                 result = CYRET_SUCCESS;
 782:Generated_Source\PSoC4/CAN.c ****             }
 783:Generated_Source\PSoC4/CAN.c ****         }
 784:Generated_Source\PSoC4/CAN.c ****         else    /* Automatic restart */
 785:Generated_Source\PSoC4/CAN.c ****         {
 786:Generated_Source\PSoC4/CAN.c ****             CAN_CFG_REG.byte[0u] |= CAN_RESET_MASK;
 787:Generated_Source\PSoC4/CAN.c **** 
 788:Generated_Source\PSoC4/CAN.c ****             /* Verify that bit is set */
 789:Generated_Source\PSoC4/CAN.c ****             if ((CAN_CFG_REG.byte[0u] & CAN_RESET_MASK) != 0u)
 790:Generated_Source\PSoC4/CAN.c ****             {
 791:Generated_Source\PSoC4/CAN.c ****                 result = CYRET_SUCCESS;
 792:Generated_Source\PSoC4/CAN.c ****             }
 793:Generated_Source\PSoC4/CAN.c ****         }
 794:Generated_Source\PSoC4/CAN.c ****     #else  /* CY_PSOC4 */
 795:Generated_Source\PSoC4/CAN.c ****         if (reset == CAN_MANUAL_RESTART)
 569              		.loc 1 795 0
 570 0000 0028     		cmp	r0, #0
 571 0002 09D1     		bne	.L56
 796:Generated_Source\PSoC4/CAN.c ****         {
 797:Generated_Source\PSoC4/CAN.c ****             CAN_CFG_REG &= (uint32) (~((uint32) CAN_RESET_MASK));
 572              		.loc 1 797 0
 573 0004 0B4B     		ldr	r3, .L60
 574 0006 1A68     		ldr	r2, [r3]
 575 0008 1021     		movs	r1, #16
 576 000a 8A43     		bics	r2, r1
 577 000c 1A60     		str	r2, [r3]
 798:Generated_Source\PSoC4/CAN.c **** 
 799:Generated_Source\PSoC4/CAN.c ****             /* Verify that bit is cleared */
 800:Generated_Source\PSoC4/CAN.c ****             if ((CAN_CFG_REG & CAN_RESET_MASK) == 0u)
 578              		.loc 1 800 0
 579 000e 1B68     		ldr	r3, [r3]
 580 0010 1942     		tst	r1, r3
 581 0012 0BD0     		beq	.L58
 771:Generated_Source\PSoC4/CAN.c **** 
 582              		.loc 1 771 0
 583 0014 0130     		adds	r0, r0, #1
 584              	.LVL60:
 585 0016 0CE0     		b	.L57
 586              	.LVL61:
 587              	.L56:
 801:Generated_Source\PSoC4/CAN.c ****             {
 802:Generated_Source\PSoC4/CAN.c ****                 result = CYRET_SUCCESS;
ARM GAS  C:\Users\davis\AppData\Local\Temp\cco880hz.s 			page 26


 803:Generated_Source\PSoC4/CAN.c ****             }
 804:Generated_Source\PSoC4/CAN.c ****         }
 805:Generated_Source\PSoC4/CAN.c ****         else    /* Automatic restart */
 806:Generated_Source\PSoC4/CAN.c ****         {
 807:Generated_Source\PSoC4/CAN.c ****             CAN_CFG_REG |= CAN_RESET_MASK;
 588              		.loc 1 807 0
 589 0018 064B     		ldr	r3, .L60
 590 001a 1A68     		ldr	r2, [r3]
 591 001c 1021     		movs	r1, #16
 592 001e 0A43     		orrs	r2, r1
 593 0020 1A60     		str	r2, [r3]
 808:Generated_Source\PSoC4/CAN.c **** 
 809:Generated_Source\PSoC4/CAN.c ****             /* Verify that bit is set */
 810:Generated_Source\PSoC4/CAN.c ****             if ((CAN_CFG_REG & CAN_RESET_MASK) != 0u)
 594              		.loc 1 810 0
 595 0022 1B68     		ldr	r3, [r3]
 596 0024 1942     		tst	r1, r3
 597 0026 03D1     		bne	.L59
 771:Generated_Source\PSoC4/CAN.c **** 
 598              		.loc 1 771 0
 599 0028 0120     		movs	r0, #1
 600              	.LVL62:
 601 002a 02E0     		b	.L57
 602              	.LVL63:
 603              	.L58:
 802:Generated_Source\PSoC4/CAN.c ****             }
 604              		.loc 1 802 0
 605 002c 0020     		movs	r0, #0
 606              	.LVL64:
 607 002e 00E0     		b	.L57
 608              	.LVL65:
 609              	.L59:
 811:Generated_Source\PSoC4/CAN.c ****             {
 812:Generated_Source\PSoC4/CAN.c ****                 result = CYRET_SUCCESS;
 610              		.loc 1 812 0
 611 0030 0020     		movs	r0, #0
 612              	.LVL66:
 613              	.L57:
 813:Generated_Source\PSoC4/CAN.c ****             }
 814:Generated_Source\PSoC4/CAN.c ****         }
 815:Generated_Source\PSoC4/CAN.c ****     #endif /* CY_PSOC3 || CY_PSOC5 */
 816:Generated_Source\PSoC4/CAN.c **** 
 817:Generated_Source\PSoC4/CAN.c ****     return (result);
 818:Generated_Source\PSoC4/CAN.c **** }
 614              		.loc 1 818 0
 615              		@ sp needed
 616 0032 7047     		bx	lr
 617              	.L61:
 618              		.align	2
 619              	.L60:
 620 0034 14002F40 		.word	1076822036
 621              		.cfi_endproc
 622              	.LFE11:
 623              		.size	CAN_SetRestartType, .-CAN_SetRestartType
 624              		.section	.text.CAN_SetEdgeMode,"ax",%progbits
 625              		.align	2
 626              		.global	CAN_SetEdgeMode
ARM GAS  C:\Users\davis\AppData\Local\Temp\cco880hz.s 			page 27


 627              		.code	16
 628              		.thumb_func
 629              		.type	CAN_SetEdgeMode, %function
 630              	CAN_SetEdgeMode:
 631              	.LFB12:
 819:Generated_Source\PSoC4/CAN.c **** 
 820:Generated_Source\PSoC4/CAN.c **** 
 821:Generated_Source\PSoC4/CAN.c **** /*******************************************************************************
 822:Generated_Source\PSoC4/CAN.c **** * FUNCTION NAME:   CAN_SetEdgeMode
 823:Generated_Source\PSoC4/CAN.c **** ********************************************************************************
 824:Generated_Source\PSoC4/CAN.c **** *
 825:Generated_Source\PSoC4/CAN.c **** * Summary:
 826:Generated_Source\PSoC4/CAN.c **** *  This function sets Edge Mode. The modes are 'R' to 'D'(Recessive to Dominant)
 827:Generated_Source\PSoC4/CAN.c **** *  and Both edges are used.
 828:Generated_Source\PSoC4/CAN.c **** *
 829:Generated_Source\PSoC4/CAN.c **** * Parameters:
 830:Generated_Source\PSoC4/CAN.c **** *  edge: Edge Mode.
 831:Generated_Source\PSoC4/CAN.c **** *   Define                             Description
 832:Generated_Source\PSoC4/CAN.c **** *    CAN_EDGE_R_TO_D       The edge from R to D is used for
 833:Generated_Source\PSoC4/CAN.c **** *                                       synchronization
 834:Generated_Source\PSoC4/CAN.c **** *    CAN_BOTH_EDGES        Both edges are used
 835:Generated_Source\PSoC4/CAN.c **** *
 836:Generated_Source\PSoC4/CAN.c **** * Return:
 837:Generated_Source\PSoC4/CAN.c **** *  The indication whether the register is written and verified.
 838:Generated_Source\PSoC4/CAN.c **** *   Define                             Description
 839:Generated_Source\PSoC4/CAN.c **** *    CYRET_SUCCESS                      The function passed successfully
 840:Generated_Source\PSoC4/CAN.c **** *    CAN_FAIL              The function failed
 841:Generated_Source\PSoC4/CAN.c **** *
 842:Generated_Source\PSoC4/CAN.c **** *******************************************************************************/
 843:Generated_Source\PSoC4/CAN.c **** uint8 CAN_SetEdgeMode(uint8 edge) 
 844:Generated_Source\PSoC4/CAN.c **** {
 632              		.loc 1 844 0
 633              		.cfi_startproc
 634              		@ args = 0, pretend = 0, frame = 0
 635              		@ frame_needed = 0, uses_anonymous_args = 0
 636              		@ link register save eliminated.
 637              	.LVL67:
 845:Generated_Source\PSoC4/CAN.c ****     uint8 result = CAN_FAIL;
 846:Generated_Source\PSoC4/CAN.c **** 
 847:Generated_Source\PSoC4/CAN.c ****     #if (CY_PSOC3 || CY_PSOC5)
 848:Generated_Source\PSoC4/CAN.c ****         if (edge == CAN_EDGE_R_TO_D)
 849:Generated_Source\PSoC4/CAN.c ****         {
 850:Generated_Source\PSoC4/CAN.c ****             /* Recessive to Dominant is used for synchronization */
 851:Generated_Source\PSoC4/CAN.c ****             CAN_CFG_REG.byte[0u] &= (uint8) (~CAN_EDGE_MODE_MASK);
 852:Generated_Source\PSoC4/CAN.c **** 
 853:Generated_Source\PSoC4/CAN.c ****             /* Verify that bit is cleared */
 854:Generated_Source\PSoC4/CAN.c ****             if ((CAN_CFG_REG.byte[0u] & CAN_EDGE_MODE_MASK) == 0u)
 855:Generated_Source\PSoC4/CAN.c ****             {
 856:Generated_Source\PSoC4/CAN.c ****                 result = CYRET_SUCCESS;
 857:Generated_Source\PSoC4/CAN.c ****             }
 858:Generated_Source\PSoC4/CAN.c ****         }
 859:Generated_Source\PSoC4/CAN.c ****         else
 860:Generated_Source\PSoC4/CAN.c ****         {
 861:Generated_Source\PSoC4/CAN.c ****             /* Both edges to be used */
 862:Generated_Source\PSoC4/CAN.c ****             CAN_CFG_REG.byte[0u] |= CAN_EDGE_MODE_MASK;
 863:Generated_Source\PSoC4/CAN.c **** 
 864:Generated_Source\PSoC4/CAN.c ****             /* Verify that bit is set */
ARM GAS  C:\Users\davis\AppData\Local\Temp\cco880hz.s 			page 28


 865:Generated_Source\PSoC4/CAN.c ****             if ((CAN_CFG_REG.byte[0u] & CAN_EDGE_MODE_MASK) != 0u)
 866:Generated_Source\PSoC4/CAN.c ****             {
 867:Generated_Source\PSoC4/CAN.c ****                 result = CYRET_SUCCESS;
 868:Generated_Source\PSoC4/CAN.c ****             }
 869:Generated_Source\PSoC4/CAN.c ****         }
 870:Generated_Source\PSoC4/CAN.c ****     #else  /* CY_PSOC4 */
 871:Generated_Source\PSoC4/CAN.c ****         if (edge == CAN_EDGE_R_TO_D)
 638              		.loc 1 871 0
 639 0000 0028     		cmp	r0, #0
 640 0002 09D1     		bne	.L63
 872:Generated_Source\PSoC4/CAN.c ****         {
 873:Generated_Source\PSoC4/CAN.c ****             /* Recessive to Dominant is used for synchronization */
 874:Generated_Source\PSoC4/CAN.c ****             CAN_CFG_REG &= (uint32) (~((uint32) CAN_EDGE_MODE_MASK));
 641              		.loc 1 874 0
 642 0004 0B4B     		ldr	r3, .L67
 643 0006 1A68     		ldr	r2, [r3]
 644 0008 0121     		movs	r1, #1
 645 000a 8A43     		bics	r2, r1
 646 000c 1A60     		str	r2, [r3]
 875:Generated_Source\PSoC4/CAN.c **** 
 876:Generated_Source\PSoC4/CAN.c ****             /* Verify that bit is cleared */
 877:Generated_Source\PSoC4/CAN.c ****             if ((CAN_CFG_REG & CAN_EDGE_MODE_MASK) == 0u)
 647              		.loc 1 877 0
 648 000e 1B68     		ldr	r3, [r3]
 649 0010 1942     		tst	r1, r3
 650 0012 0BD0     		beq	.L65
 845:Generated_Source\PSoC4/CAN.c **** 
 651              		.loc 1 845 0
 652 0014 0130     		adds	r0, r0, #1
 653              	.LVL68:
 654 0016 0CE0     		b	.L64
 655              	.LVL69:
 656              	.L63:
 878:Generated_Source\PSoC4/CAN.c ****             {
 879:Generated_Source\PSoC4/CAN.c ****                 result = CYRET_SUCCESS;
 880:Generated_Source\PSoC4/CAN.c ****             }
 881:Generated_Source\PSoC4/CAN.c ****         }
 882:Generated_Source\PSoC4/CAN.c ****         else
 883:Generated_Source\PSoC4/CAN.c ****         {
 884:Generated_Source\PSoC4/CAN.c ****             /* Both edges to be used */
 885:Generated_Source\PSoC4/CAN.c ****             CAN_CFG_REG |= CAN_EDGE_MODE_MASK;
 657              		.loc 1 885 0
 658 0018 064B     		ldr	r3, .L67
 659 001a 1A68     		ldr	r2, [r3]
 660 001c 0121     		movs	r1, #1
 661 001e 0A43     		orrs	r2, r1
 662 0020 1A60     		str	r2, [r3]
 886:Generated_Source\PSoC4/CAN.c **** 
 887:Generated_Source\PSoC4/CAN.c ****             /* Verify that bit is set */
 888:Generated_Source\PSoC4/CAN.c ****             if ((CAN_CFG_REG & CAN_EDGE_MODE_MASK) != 0u)
 663              		.loc 1 888 0
 664 0022 1B68     		ldr	r3, [r3]
 665 0024 1942     		tst	r1, r3
 666 0026 03D1     		bne	.L66
 845:Generated_Source\PSoC4/CAN.c **** 
 667              		.loc 1 845 0
 668 0028 0120     		movs	r0, #1
ARM GAS  C:\Users\davis\AppData\Local\Temp\cco880hz.s 			page 29


 669              	.LVL70:
 670 002a 02E0     		b	.L64
 671              	.LVL71:
 672              	.L65:
 879:Generated_Source\PSoC4/CAN.c ****             }
 673              		.loc 1 879 0
 674 002c 0020     		movs	r0, #0
 675              	.LVL72:
 676 002e 00E0     		b	.L64
 677              	.LVL73:
 678              	.L66:
 889:Generated_Source\PSoC4/CAN.c ****             {
 890:Generated_Source\PSoC4/CAN.c ****                 result = CYRET_SUCCESS;
 679              		.loc 1 890 0
 680 0030 0020     		movs	r0, #0
 681              	.LVL74:
 682              	.L64:
 891:Generated_Source\PSoC4/CAN.c ****             }
 892:Generated_Source\PSoC4/CAN.c ****         }
 893:Generated_Source\PSoC4/CAN.c ****     #endif /* CY_PSOC3 || CY_PSOC5 */
 894:Generated_Source\PSoC4/CAN.c **** 
 895:Generated_Source\PSoC4/CAN.c ****     return (result);
 896:Generated_Source\PSoC4/CAN.c **** }
 683              		.loc 1 896 0
 684              		@ sp needed
 685 0032 7047     		bx	lr
 686              	.L68:
 687              		.align	2
 688              	.L67:
 689 0034 14002F40 		.word	1076822036
 690              		.cfi_endproc
 691              	.LFE12:
 692              		.size	CAN_SetEdgeMode, .-CAN_SetEdgeMode
 693              		.section	.text.CAN_RXRegisterInit,"ax",%progbits
 694              		.align	2
 695              		.global	CAN_RXRegisterInit
 696              		.code	16
 697              		.thumb_func
 698              		.type	CAN_RXRegisterInit, %function
 699              	CAN_RXRegisterInit:
 700              	.LFB14:
 897:Generated_Source\PSoC4/CAN.c **** 
 898:Generated_Source\PSoC4/CAN.c **** 
 899:Generated_Source\PSoC4/CAN.c **** /*******************************************************************************
 900:Generated_Source\PSoC4/CAN.c **** * FUNCTION NAME:   CAN_SetOpMode
 901:Generated_Source\PSoC4/CAN.c **** ********************************************************************************
 902:Generated_Source\PSoC4/CAN.c **** *
 903:Generated_Source\PSoC4/CAN.c **** * Summary:
 904:Generated_Source\PSoC4/CAN.c **** *  This function sets Operation Mode.
 905:Generated_Source\PSoC4/CAN.c **** *
 906:Generated_Source\PSoC4/CAN.c **** * Parameters:
 907:Generated_Source\PSoC4/CAN.c **** *  opMode: Operation Mode value.
 908:Generated_Source\PSoC4/CAN.c **** *   Define                              Description
 909:Generated_Source\PSoC4/CAN.c **** *    CAN_STOP_MODE          The CAN controller is in the Stop mode
 910:Generated_Source\PSoC4/CAN.c **** *    CAN_ACTIVE_RUN_MODE    The CAN controller is in the Active
 911:Generated_Source\PSoC4/CAN.c **** *                                        mode
 912:Generated_Source\PSoC4/CAN.c **** *    CAN_LISTEN_ONLY_MODE   The CAN controller is in the Listen
ARM GAS  C:\Users\davis\AppData\Local\Temp\cco880hz.s 			page 30


 913:Generated_Source\PSoC4/CAN.c **** *                                        Only mode: The output is held at the
 914:Generated_Source\PSoC4/CAN.c **** *                                        'R' level.
 915:Generated_Source\PSoC4/CAN.c **** *    CAN_INTERNAL_LOOP_BACK The CAN controller is in the Internal
 916:Generated_Source\PSoC4/CAN.c **** *                                        Loopback mode. This mode is used for
 917:Generated_Source\PSoC4/CAN.c **** *                                        the testing purpose and the transmitted
 918:Generated_Source\PSoC4/CAN.c **** *                                        transactions are internally routed
 919:Generated_Source\PSoC4/CAN.c **** *                                        back to the receiver logic and
 920:Generated_Source\PSoC4/CAN.c **** *                                        processed by the controller in this
 921:Generated_Source\PSoC4/CAN.c **** *                                        mode. Not available for PSoC3/5.
 922:Generated_Source\PSoC4/CAN.c **** *    CAN_EXTERNAL_LOOP_BACK This mode is used for the testing
 923:Generated_Source\PSoC4/CAN.c **** *                                        purpose by connecting Tx and Rx lines
 924:Generated_Source\PSoC4/CAN.c **** *                                        externally. The transmitted messages
 925:Generated_Source\PSoC4/CAN.c **** *                                        are received back and processed by the
 926:Generated_Source\PSoC4/CAN.c **** *                                        CAN controller in this mode.
 927:Generated_Source\PSoC4/CAN.c **** *                                        Not available for PSoC3/5.
 928:Generated_Source\PSoC4/CAN.c **** * Return:
 929:Generated_Source\PSoC4/CAN.c **** *  The indication whether the register is written and verified.
 930:Generated_Source\PSoC4/CAN.c **** *   Define                             Description
 931:Generated_Source\PSoC4/CAN.c **** *    CYRET_SUCCESS                      The function passed successfully
 932:Generated_Source\PSoC4/CAN.c **** *    CAN_FAIL              The function failed
 933:Generated_Source\PSoC4/CAN.c **** *
 934:Generated_Source\PSoC4/CAN.c **** * Side Effects:
 935:Generated_Source\PSoC4/CAN.c **** *  For PSoC 4 device family the function re-initializes the CAN registers.
 936:Generated_Source\PSoC4/CAN.c **** *
 937:Generated_Source\PSoC4/CAN.c **** *******************************************************************************/
 938:Generated_Source\PSoC4/CAN.c **** uint8 CAN_SetOpMode(uint8 opMode) 
 939:Generated_Source\PSoC4/CAN.c **** {
 940:Generated_Source\PSoC4/CAN.c ****     #if (CY_PSOC3 || CY_PSOC5)
 941:Generated_Source\PSoC4/CAN.c ****         uint32 timeout;
 942:Generated_Source\PSoC4/CAN.c ****     #endif /* CY_PSOC3 || CY_PSOC5 */
 943:Generated_Source\PSoC4/CAN.c ****     uint8 result = CAN_FAIL;
 944:Generated_Source\PSoC4/CAN.c ****     uint8 runState = CAN_STOP_MODE;
 945:Generated_Source\PSoC4/CAN.c **** 
 946:Generated_Source\PSoC4/CAN.c ****     #if (CY_PSOC3 || CY_PSOC5)
 947:Generated_Source\PSoC4/CAN.c ****         if (((CAN_CMD_REG.byte[0u] & CAN_ACTIVE_RUN_MODE) != 0u) ||
 948:Generated_Source\PSoC4/CAN.c ****             (opMode == CAN_ACTIVE_RUN_MODE))
 949:Generated_Source\PSoC4/CAN.c ****         {
 950:Generated_Source\PSoC4/CAN.c ****             runState = CAN_ACTIVE_RUN_MODE;
 951:Generated_Source\PSoC4/CAN.c ****         }
 952:Generated_Source\PSoC4/CAN.c **** 
 953:Generated_Source\PSoC4/CAN.c ****         /* Set CAN to the Stop Mode */
 954:Generated_Source\PSoC4/CAN.c ****         CAN_CMD_REG.byte[0u] = CAN_STOP_MODE;
 955:Generated_Source\PSoC4/CAN.c **** 
 956:Generated_Source\PSoC4/CAN.c ****         /* Timeout for CAN state machine to switch mode to Stop */
 957:Generated_Source\PSoC4/CAN.c ****         for (timeout = CAN_MODE_STATE_STOP_TIMEOUT;
 958:Generated_Source\PSoC4/CAN.c ****             (timeout != 0u) && ((CAN_CMD_REG.byte[0u] & CAN_ACTIVE_RUN_MODE) != 0u);
 959:Generated_Source\PSoC4/CAN.c ****              timeout--)
 960:Generated_Source\PSoC4/CAN.c ****         {
 961:Generated_Source\PSoC4/CAN.c ****         }
 962:Generated_Source\PSoC4/CAN.c **** 
 963:Generated_Source\PSoC4/CAN.c ****         if (timeout != 0u)
 964:Generated_Source\PSoC4/CAN.c ****         {
 965:Generated_Source\PSoC4/CAN.c ****             result = CYRET_SUCCESS;
 966:Generated_Source\PSoC4/CAN.c ****         }
 967:Generated_Source\PSoC4/CAN.c **** 
 968:Generated_Source\PSoC4/CAN.c ****         if ((result == CYRET_SUCCESS) && (opMode != CAN_STOP_MODE))
 969:Generated_Source\PSoC4/CAN.c ****         {
ARM GAS  C:\Users\davis\AppData\Local\Temp\cco880hz.s 			page 31


 970:Generated_Source\PSoC4/CAN.c ****             if (opMode == CAN_LISTEN_ONLY_MODE)
 971:Generated_Source\PSoC4/CAN.c ****             {
 972:Generated_Source\PSoC4/CAN.c ****                 CAN_CMD_REG.byte[0u] = CAN_LISTEN_ONLY_MODE;
 973:Generated_Source\PSoC4/CAN.c ****             }
 974:Generated_Source\PSoC4/CAN.c **** 
 975:Generated_Source\PSoC4/CAN.c ****             if (runState == CAN_ACTIVE_RUN_MODE)
 976:Generated_Source\PSoC4/CAN.c ****             {
 977:Generated_Source\PSoC4/CAN.c ****                 CAN_CMD_REG.byte[0u] |= CAN_ACTIVE_RUN_MODE;
 978:Generated_Source\PSoC4/CAN.c **** 
 979:Generated_Source\PSoC4/CAN.c ****                 /* Timeout for CAN state machine to switch mode to Run */
 980:Generated_Source\PSoC4/CAN.c ****                 for (timeout = CAN_MODE_STATE_RUN_TIMEOUT;
 981:Generated_Source\PSoC4/CAN.c ****                     (timeout != 0u) && ((CAN_CMD_REG.byte[0u] & CAN_MODE_MASK) == 0u);
 982:Generated_Source\PSoC4/CAN.c ****                      timeout--)
 983:Generated_Source\PSoC4/CAN.c ****                 {
 984:Generated_Source\PSoC4/CAN.c ****                 }
 985:Generated_Source\PSoC4/CAN.c **** 
 986:Generated_Source\PSoC4/CAN.c ****                 if (timeout == 0u)
 987:Generated_Source\PSoC4/CAN.c ****                 {
 988:Generated_Source\PSoC4/CAN.c ****                     result = CAN_FAIL;
 989:Generated_Source\PSoC4/CAN.c ****                 }
 990:Generated_Source\PSoC4/CAN.c ****             }
 991:Generated_Source\PSoC4/CAN.c ****         }
 992:Generated_Source\PSoC4/CAN.c ****     #else  /* CY_PSOC4 */
 993:Generated_Source\PSoC4/CAN.c ****         if (((CAN_CMD_REG & CAN_MODE_MASK) != 0u) ||
 994:Generated_Source\PSoC4/CAN.c ****             (opMode == CAN_ACTIVE_RUN_MODE))
 995:Generated_Source\PSoC4/CAN.c ****         {
 996:Generated_Source\PSoC4/CAN.c ****             runState = CAN_ACTIVE_RUN_MODE;
 997:Generated_Source\PSoC4/CAN.c ****         }
 998:Generated_Source\PSoC4/CAN.c **** 
 999:Generated_Source\PSoC4/CAN.c ****         /* Sets CAN Component into the Stop mode */
1000:Generated_Source\PSoC4/CAN.c ****         if (CAN_Stop() == CYRET_SUCCESS)
1001:Generated_Source\PSoC4/CAN.c ****         {
1002:Generated_Source\PSoC4/CAN.c ****             /* Disable CAN IP Block to reset configuration before sets Operation Mode */
1003:Generated_Source\PSoC4/CAN.c ****             CAN_CNTL_REG = (uint32) (~CAN_IP_ENABLE);
1004:Generated_Source\PSoC4/CAN.c **** 
1005:Generated_Source\PSoC4/CAN.c ****             /* Enable CAN IP Block */
1006:Generated_Source\PSoC4/CAN.c ****             CAN_CNTL_REG = CAN_IP_ENABLE;
1007:Generated_Source\PSoC4/CAN.c **** 
1008:Generated_Source\PSoC4/CAN.c ****             result = CAN_Init();
1009:Generated_Source\PSoC4/CAN.c **** 
1010:Generated_Source\PSoC4/CAN.c ****             if ((result == CYRET_SUCCESS) && (opMode != CAN_STOP_MODE))
1011:Generated_Source\PSoC4/CAN.c ****             {
1012:Generated_Source\PSoC4/CAN.c ****                 if (opMode != CAN_ACTIVE_RUN_MODE)
1013:Generated_Source\PSoC4/CAN.c ****                 {
1014:Generated_Source\PSoC4/CAN.c ****                     /* Set CAN Operation Mode */
1015:Generated_Source\PSoC4/CAN.c ****                     CAN_CMD_REG |= opMode;
1016:Generated_Source\PSoC4/CAN.c ****                 }
1017:Generated_Source\PSoC4/CAN.c **** 
1018:Generated_Source\PSoC4/CAN.c ****                 if (runState == CAN_ACTIVE_RUN_MODE)
1019:Generated_Source\PSoC4/CAN.c ****                 {
1020:Generated_Source\PSoC4/CAN.c ****                     /* Enable component's operation */
1021:Generated_Source\PSoC4/CAN.c ****                     result = CAN_Enable();
1022:Generated_Source\PSoC4/CAN.c ****                 }
1023:Generated_Source\PSoC4/CAN.c ****             }
1024:Generated_Source\PSoC4/CAN.c ****         }
1025:Generated_Source\PSoC4/CAN.c ****     #endif /* CY_PSOC3 || CY_PSOC5 */
1026:Generated_Source\PSoC4/CAN.c **** 
ARM GAS  C:\Users\davis\AppData\Local\Temp\cco880hz.s 			page 32


1027:Generated_Source\PSoC4/CAN.c ****     return (result);
1028:Generated_Source\PSoC4/CAN.c **** }
1029:Generated_Source\PSoC4/CAN.c **** 
1030:Generated_Source\PSoC4/CAN.c **** 
1031:Generated_Source\PSoC4/CAN.c **** /*******************************************************************************
1032:Generated_Source\PSoC4/CAN.c **** * FUNCTION NAME:   CAN_RXRegisterInit
1033:Generated_Source\PSoC4/CAN.c **** ********************************************************************************
1034:Generated_Source\PSoC4/CAN.c **** *
1035:Generated_Source\PSoC4/CAN.c **** * Summary:
1036:Generated_Source\PSoC4/CAN.c **** *  This function writes only receive CAN registers.
1037:Generated_Source\PSoC4/CAN.c **** *
1038:Generated_Source\PSoC4/CAN.c **** * Parameters:
1039:Generated_Source\PSoC4/CAN.c **** *  regAddr: The pointer to a CAN receive register;
1040:Generated_Source\PSoC4/CAN.c **** *  config:  The value that will be written in the register.
1041:Generated_Source\PSoC4/CAN.c **** *
1042:Generated_Source\PSoC4/CAN.c **** * Return:
1043:Generated_Source\PSoC4/CAN.c **** *  The indication whether the register is written and verified.
1044:Generated_Source\PSoC4/CAN.c **** *   Define                             Description
1045:Generated_Source\PSoC4/CAN.c **** *    CYRET_SUCCESS                      The function passed successfully
1046:Generated_Source\PSoC4/CAN.c **** *    CAN_FAIL              The function failed
1047:Generated_Source\PSoC4/CAN.c **** *    CAN_OUT_OF_RANGE      The function parameter is out of range
1048:Generated_Source\PSoC4/CAN.c **** *
1049:Generated_Source\PSoC4/CAN.c **** *******************************************************************************/
1050:Generated_Source\PSoC4/CAN.c **** uint8 CAN_RXRegisterInit(reg32 *regAddr, uint32 config)
1051:Generated_Source\PSoC4/CAN.c ****                                       
1052:Generated_Source\PSoC4/CAN.c **** {
 701              		.loc 1 1052 0
 702              		.cfi_startproc
 703              		@ args = 0, pretend = 0, frame = 0
 704              		@ frame_needed = 0, uses_anonymous_args = 0
 705              	.LVL75:
 706 0000 70B5     		push	{r4, r5, r6, lr}
 707              		.cfi_def_cfa_offset 16
 708              		.cfi_offset 4, -16
 709              		.cfi_offset 5, -12
 710              		.cfi_offset 6, -8
 711              		.cfi_offset 14, -4
 712 0002 0500     		movs	r5, r0
 713 0004 0C00     		movs	r4, r1
 714              	.LVL76:
1053:Generated_Source\PSoC4/CAN.c ****     uint8 result = CAN_OUT_OF_RANGE;
1054:Generated_Source\PSoC4/CAN.c **** 
1055:Generated_Source\PSoC4/CAN.c ****     if ((((uint32) regAddr & CAN_REG_ADDR_MASK) >=
 715              		.loc 1 1055 0
 716 0006 0304     		lsls	r3, r0, #16
 717 0008 1B0C     		lsrs	r3, r3, #16
1056:Generated_Source\PSoC4/CAN.c ****         ((uint32) CAN_RX_FIRST_REGISTER_PTR & CAN_REG_ADDR_MASK)) &&
 718              		.loc 1 1056 0
 719 000a A03B     		subs	r3, r3, #160
1055:Generated_Source\PSoC4/CAN.c ****         ((uint32) CAN_RX_FIRST_REGISTER_PTR & CAN_REG_ADDR_MASK)) &&
 720              		.loc 1 1055 0
 721 000c FE22     		movs	r2, #254
 722 000e 5200     		lsls	r2, r2, #1
 723 0010 9342     		cmp	r3, r2
 724 0012 1DD8     		bhi	.L72
 725              	.LVL77:
1057:Generated_Source\PSoC4/CAN.c ****         ((((uint32) regAddr & CAN_REG_ADDR_MASK)) <=
ARM GAS  C:\Users\davis\AppData\Local\Temp\cco880hz.s 			page 33


1058:Generated_Source\PSoC4/CAN.c ****         ((uint32) CAN_RX_LAST_REGISTER_PTR & CAN_REG_ADDR_MASK)))
1059:Generated_Source\PSoC4/CAN.c ****     {
1060:Generated_Source\PSoC4/CAN.c ****         result = CAN_FAIL;
1061:Generated_Source\PSoC4/CAN.c **** 
1062:Generated_Source\PSoC4/CAN.c ****         if ((((uint32) regAddr & CAN_REG_ADDR_MASK) % CAN_RX_CMD_REG_WIDTH) == 0u)
 726              		.loc 1 1062 0
 727 0014 C306     		lsls	r3, r0, #27
 728 0016 0FD1     		bne	.L71
1063:Generated_Source\PSoC4/CAN.c ****         {
1064:Generated_Source\PSoC4/CAN.c ****             config |= CAN_RX_WPN_SET;
 729              		.loc 1 1064 0
 730 0018 104B     		ldr	r3, .L75
 731 001a 1C43     		orrs	r4, r3
 732              	.LVL78:
1065:Generated_Source\PSoC4/CAN.c **** 
1066:Generated_Source\PSoC4/CAN.c ****     /* Disable isr */
1067:Generated_Source\PSoC4/CAN.c ****     CyIntDisable(CAN_ISR_NUMBER);
 733              		.loc 1 1067 0
 734 001c 1D20     		movs	r0, #29
 735              	.LVL79:
 736 001e FFF7FEFF 		bl	CyIntDisable
 737              	.LVL80:
1068:Generated_Source\PSoC4/CAN.c **** 
1069:Generated_Source\PSoC4/CAN.c ****             /* Write defined RX CMD registers */
1070:Generated_Source\PSoC4/CAN.c ****             CY_SET_REG32(regAddr, config);
 738              		.loc 1 1070 0
 739 0022 2C60     		str	r4, [r5]
1071:Generated_Source\PSoC4/CAN.c **** 
1072:Generated_Source\PSoC4/CAN.c ****     /* Enable isr */
1073:Generated_Source\PSoC4/CAN.c ****     CyIntEnable(CAN_ISR_NUMBER);
 740              		.loc 1 1073 0
 741 0024 1D20     		movs	r0, #29
 742 0026 FFF7FEFF 		bl	CyIntEnable
 743              	.LVL81:
1074:Generated_Source\PSoC4/CAN.c **** 
1075:Generated_Source\PSoC4/CAN.c ****             /* Verify register */
1076:Generated_Source\PSoC4/CAN.c ****             if ((CY_GET_REG32(regAddr) & CAN_RX_READ_BACK_MASK) ==
 744              		.loc 1 1076 0
 745 002a 2B68     		ldr	r3, [r5]
 746 002c 5C40     		eors	r4, r3
 747              	.LVL82:
 748 002e 0C4B     		ldr	r3, .L75+4
 749 0030 1C42     		tst	r4, r3
 750 0032 0FD0     		beq	.L73
1060:Generated_Source\PSoC4/CAN.c **** 
 751              		.loc 1 1060 0
 752 0034 0120     		movs	r0, #1
 753 0036 10E0     		b	.L70
 754              	.LVL83:
 755              	.L71:
1077:Generated_Source\PSoC4/CAN.c ****                 (config & CAN_RX_READ_BACK_MASK))
1078:Generated_Source\PSoC4/CAN.c ****             {
1079:Generated_Source\PSoC4/CAN.c ****                 result = CYRET_SUCCESS;
1080:Generated_Source\PSoC4/CAN.c ****             }
1081:Generated_Source\PSoC4/CAN.c ****         }
1082:Generated_Source\PSoC4/CAN.c ****         /* All registers except RX CMD*/
1083:Generated_Source\PSoC4/CAN.c ****         else
ARM GAS  C:\Users\davis\AppData\Local\Temp\cco880hz.s 			page 34


1084:Generated_Source\PSoC4/CAN.c ****         {
1085:Generated_Source\PSoC4/CAN.c ****     /* Disable isr */
1086:Generated_Source\PSoC4/CAN.c ****     CyIntDisable(CAN_ISR_NUMBER);
 756              		.loc 1 1086 0
 757 0038 1D20     		movs	r0, #29
 758              	.LVL84:
 759 003a FFF7FEFF 		bl	CyIntDisable
 760              	.LVL85:
1087:Generated_Source\PSoC4/CAN.c **** 
1088:Generated_Source\PSoC4/CAN.c ****             /* Write defined CAN receive register */
1089:Generated_Source\PSoC4/CAN.c ****             CY_SET_REG32(regAddr, config);
 761              		.loc 1 1089 0
 762 003e 2C60     		str	r4, [r5]
1090:Generated_Source\PSoC4/CAN.c **** 
1091:Generated_Source\PSoC4/CAN.c ****     /* Enable isr */
1092:Generated_Source\PSoC4/CAN.c ****     CyIntEnable(CAN_ISR_NUMBER);
 763              		.loc 1 1092 0
 764 0040 1D20     		movs	r0, #29
 765 0042 FFF7FEFF 		bl	CyIntEnable
 766              	.LVL86:
1093:Generated_Source\PSoC4/CAN.c **** 
1094:Generated_Source\PSoC4/CAN.c ****             /* Verify register */
1095:Generated_Source\PSoC4/CAN.c ****             if (CY_GET_REG32(regAddr) == config)
 767              		.loc 1 1095 0
 768 0046 2B68     		ldr	r3, [r5]
 769 0048 9C42     		cmp	r4, r3
 770 004a 05D0     		beq	.L74
1060:Generated_Source\PSoC4/CAN.c **** 
 771              		.loc 1 1060 0
 772 004c 0120     		movs	r0, #1
 773 004e 04E0     		b	.L70
 774              	.LVL87:
 775              	.L72:
1053:Generated_Source\PSoC4/CAN.c **** 
 776              		.loc 1 1053 0
 777 0050 0220     		movs	r0, #2
 778              	.LVL88:
 779 0052 02E0     		b	.L70
 780              	.LVL89:
 781              	.L73:
1079:Generated_Source\PSoC4/CAN.c ****             }
 782              		.loc 1 1079 0
 783 0054 0020     		movs	r0, #0
 784 0056 00E0     		b	.L70
 785              	.LVL90:
 786              	.L74:
1096:Generated_Source\PSoC4/CAN.c ****             {
1097:Generated_Source\PSoC4/CAN.c ****                 result = CYRET_SUCCESS;
 787              		.loc 1 1097 0
 788 0058 0020     		movs	r0, #0
 789              	.LVL91:
 790              	.L70:
1098:Generated_Source\PSoC4/CAN.c ****             }
1099:Generated_Source\PSoC4/CAN.c ****         }
1100:Generated_Source\PSoC4/CAN.c ****     }
1101:Generated_Source\PSoC4/CAN.c **** 
1102:Generated_Source\PSoC4/CAN.c ****     return (result);
ARM GAS  C:\Users\davis\AppData\Local\Temp\cco880hz.s 			page 35


1103:Generated_Source\PSoC4/CAN.c **** }
 791              		.loc 1 1103 0
 792              		@ sp needed
 793              	.LVL92:
 794 005a 70BD     		pop	{r4, r5, r6, pc}
 795              	.L76:
 796              		.align	2
 797              	.L75:
 798 005c 80008000 		.word	8388736
 799 0060 7F007F00 		.word	8323199
 800              		.cfi_endproc
 801              	.LFE14:
 802              		.size	CAN_RXRegisterInit, .-CAN_RXRegisterInit
 803              		.section	.text.CAN_SetIrqMask,"ax",%progbits
 804              		.align	2
 805              		.global	CAN_SetIrqMask
 806              		.code	16
 807              		.thumb_func
 808              		.type	CAN_SetIrqMask, %function
 809              	CAN_SetIrqMask:
 810              	.LFB15:
1104:Generated_Source\PSoC4/CAN.c **** 
1105:Generated_Source\PSoC4/CAN.c **** 
1106:Generated_Source\PSoC4/CAN.c **** /*******************************************************************************
1107:Generated_Source\PSoC4/CAN.c **** * FUNCTION NAME:   CAN_SetIrqMask
1108:Generated_Source\PSoC4/CAN.c **** ********************************************************************************
1109:Generated_Source\PSoC4/CAN.c **** *
1110:Generated_Source\PSoC4/CAN.c **** * Summary:
1111:Generated_Source\PSoC4/CAN.c **** *  This function sets to enable/disable particular interrupt sources. Interrupt
1112:Generated_Source\PSoC4/CAN.c **** *  Mask directly write to the CAN Interrupt Enable register. A particular
1113:Generated_Source\PSoC4/CAN.c **** *  interrupt source is enabled by setting its respective flag to 1.
1114:Generated_Source\PSoC4/CAN.c **** *
1115:Generated_Source\PSoC4/CAN.c **** * Parameters:
1116:Generated_Source\PSoC4/CAN.c **** *  mask: Interrupt enable/disable request. 1 bit per interrupt source.
1117:Generated_Source\PSoC4/CAN.c **** *   Define                                    Description
1118:Generated_Source\PSoC4/CAN.c **** *    CAN_GLOBAL_INT_ENABLE        Global Interrupt Enable Flag
1119:Generated_Source\PSoC4/CAN.c **** *    CAN_ARBITRATION_LOST_ENABLE  Arbitration Loss Interrupt Enable
1120:Generated_Source\PSoC4/CAN.c **** *    CAN_OVERLOAD_ERROR_ENABLE    Overload Interrupt Enable
1121:Generated_Source\PSoC4/CAN.c **** *    CAN_BIT_ERROR_ENABLE         Bit Error Interrupt Enable
1122:Generated_Source\PSoC4/CAN.c **** *    CAN_STUFF_ERROR_ENABLE       Stuff Error Interrupt Enable
1123:Generated_Source\PSoC4/CAN.c **** *    CAN_ACK_ERROR_ENABLE         Ack Error Interrupt Enable
1124:Generated_Source\PSoC4/CAN.c **** *    CAN_FORM_ERROR_ENABLE        Form Error Interrupt Enable
1125:Generated_Source\PSoC4/CAN.c **** *    CAN_CRC_ERROR_ENABLE         CRC Error Interrupt Enable
1126:Generated_Source\PSoC4/CAN.c **** *    CAN_BUS_OFF_ENABLE           Bus-Off State Interrupt Enable
1127:Generated_Source\PSoC4/CAN.c **** *    CAN_RX_MSG_LOST_ENABLE       Rx Msg Loss Interrupt Enable
1128:Generated_Source\PSoC4/CAN.c **** *    CAN_TX_MESSAGE_ENABLE        Tx Msg Sent Interrupt Enable
1129:Generated_Source\PSoC4/CAN.c **** *    CAN_RX_MESSAGE_ENABLE        Msg Received Interrupt Enable
1130:Generated_Source\PSoC4/CAN.c **** *    CAN_RTR_MESSAGE_ENABLE       RTR Auto-reply Interrupt Enable
1131:Generated_Source\PSoC4/CAN.c **** *    CAN_STUCK_AT_ZERO_ENABLE     Stuck at dominant error Interrupt
1132:Generated_Source\PSoC4/CAN.c **** *                                              Enable
1133:Generated_Source\PSoC4/CAN.c **** *    CAN_SST_FAILURE_ENABLE       SST failure Interrupt Enable
1134:Generated_Source\PSoC4/CAN.c **** *
1135:Generated_Source\PSoC4/CAN.c **** * Return:
1136:Generated_Source\PSoC4/CAN.c **** *  The indication whether the register is written and verified.
1137:Generated_Source\PSoC4/CAN.c **** *   Define                             Description
1138:Generated_Source\PSoC4/CAN.c **** *    CYRET_SUCCESS                      The function passed successfully
1139:Generated_Source\PSoC4/CAN.c **** *    CAN_FAIL              The function failed
ARM GAS  C:\Users\davis\AppData\Local\Temp\cco880hz.s 			page 36


1140:Generated_Source\PSoC4/CAN.c **** *
1141:Generated_Source\PSoC4/CAN.c **** *******************************************************************************/
1142:Generated_Source\PSoC4/CAN.c **** uint8 CAN_SetIrqMask(uint16 mask) 
1143:Generated_Source\PSoC4/CAN.c **** {
 811              		.loc 1 1143 0
 812              		.cfi_startproc
 813              		@ args = 0, pretend = 0, frame = 0
 814              		@ frame_needed = 0, uses_anonymous_args = 0
 815              		@ link register save eliminated.
 816              	.LVL93:
1144:Generated_Source\PSoC4/CAN.c ****     uint8 result = CAN_FAIL;
1145:Generated_Source\PSoC4/CAN.c **** 
1146:Generated_Source\PSoC4/CAN.c ****     #if (CY_PSOC3 || CY_PSOC5)
1147:Generated_Source\PSoC4/CAN.c ****         /* Write byte 0 and 1 of CAN_INT_EN_REG register */
1148:Generated_Source\PSoC4/CAN.c ****         CY_SET_REG16((reg16 *) (&CAN_INT_EN_REG), mask);
1149:Generated_Source\PSoC4/CAN.c **** 
1150:Generated_Source\PSoC4/CAN.c ****         /* Verify CAN_INT_EN_REG register */
1151:Generated_Source\PSoC4/CAN.c ****         if (CY_GET_REG16((reg16 *) (&CAN_INT_EN_REG)) == mask)
1152:Generated_Source\PSoC4/CAN.c ****         {
1153:Generated_Source\PSoC4/CAN.c ****             result = CYRET_SUCCESS;
1154:Generated_Source\PSoC4/CAN.c ****         }
1155:Generated_Source\PSoC4/CAN.c ****     #else  /* CY_PSOC4 */
1156:Generated_Source\PSoC4/CAN.c ****         /* Write byte 0 and 1 of CAN_INT_EN_REG register */
1157:Generated_Source\PSoC4/CAN.c ****         CAN_INT_EN_REG = mask;
 817              		.loc 1 1157 0
 818 0000 054B     		ldr	r3, .L80
 819 0002 1860     		str	r0, [r3]
1158:Generated_Source\PSoC4/CAN.c **** 
1159:Generated_Source\PSoC4/CAN.c ****         /* Verify CAN_INT_EN_REG register */
1160:Generated_Source\PSoC4/CAN.c ****         if ((CAN_INT_EN_REG & CAN_REG_ADDR_MASK) == mask)
 820              		.loc 1 1160 0
 821 0004 1B68     		ldr	r3, [r3]
 822 0006 1B04     		lsls	r3, r3, #16
 823 0008 1B0C     		lsrs	r3, r3, #16
 824 000a 9842     		cmp	r0, r3
 825 000c 01D0     		beq	.L79
1144:Generated_Source\PSoC4/CAN.c ****     uint8 result = CAN_FAIL;
 826              		.loc 1 1144 0
 827 000e 0120     		movs	r0, #1
 828              	.LVL94:
 829 0010 00E0     		b	.L78
 830              	.LVL95:
 831              	.L79:
1161:Generated_Source\PSoC4/CAN.c ****         {
1162:Generated_Source\PSoC4/CAN.c ****             result = CYRET_SUCCESS;
 832              		.loc 1 1162 0
 833 0012 0020     		movs	r0, #0
 834              	.LVL96:
 835              	.L78:
1163:Generated_Source\PSoC4/CAN.c ****         }
1164:Generated_Source\PSoC4/CAN.c ****     #endif /* CY_PSOC3 || CY_PSOC5 */
1165:Generated_Source\PSoC4/CAN.c **** 
1166:Generated_Source\PSoC4/CAN.c ****     return (result);
1167:Generated_Source\PSoC4/CAN.c **** }
 836              		.loc 1 1167 0
 837              		@ sp needed
 838 0014 7047     		bx	lr
ARM GAS  C:\Users\davis\AppData\Local\Temp\cco880hz.s 			page 37


 839              	.L81:
 840 0016 C046     		.align	2
 841              	.L80:
 842 0018 04002F40 		.word	1076822020
 843              		.cfi_endproc
 844              	.LFE15:
 845              		.size	CAN_SetIrqMask, .-CAN_SetIrqMask
 846              		.section	.text.CAN_GetTXErrorFlag,"ax",%progbits
 847              		.align	2
 848              		.global	CAN_GetTXErrorFlag
 849              		.code	16
 850              		.thumb_func
 851              		.type	CAN_GetTXErrorFlag, %function
 852              	CAN_GetTXErrorFlag:
 853              	.LFB16:
1168:Generated_Source\PSoC4/CAN.c **** 
1169:Generated_Source\PSoC4/CAN.c **** 
1170:Generated_Source\PSoC4/CAN.c **** /*******************************************************************************
1171:Generated_Source\PSoC4/CAN.c **** * FUNCTION NAME:   CAN_GetTXErrorFlag
1172:Generated_Source\PSoC4/CAN.c **** ********************************************************************************
1173:Generated_Source\PSoC4/CAN.c **** *
1174:Generated_Source\PSoC4/CAN.c **** * Summary:
1175:Generated_Source\PSoC4/CAN.c **** *  This function returns the bit that indicates if the number of TX errors
1176:Generated_Source\PSoC4/CAN.c **** *  exceeds 0x60.
1177:Generated_Source\PSoC4/CAN.c **** *
1178:Generated_Source\PSoC4/CAN.c **** * Parameters:
1179:Generated_Source\PSoC4/CAN.c **** *  None.
1180:Generated_Source\PSoC4/CAN.c **** *
1181:Generated_Source\PSoC4/CAN.c **** * Return:
1182:Generated_Source\PSoC4/CAN.c **** *  The indication whether the number of TX errors exceeds 0x60.
1183:Generated_Source\PSoC4/CAN.c **** *
1184:Generated_Source\PSoC4/CAN.c **** *******************************************************************************/
1185:Generated_Source\PSoC4/CAN.c **** uint8 CAN_GetTXErrorFlag(void) 
1186:Generated_Source\PSoC4/CAN.c **** {
 854              		.loc 1 1186 0
 855              		.cfi_startproc
 856              		@ args = 0, pretend = 0, frame = 0
 857              		@ frame_needed = 0, uses_anonymous_args = 0
 858              		@ link register save eliminated.
1187:Generated_Source\PSoC4/CAN.c ****     #if (CY_PSOC3 || CY_PSOC5)
1188:Generated_Source\PSoC4/CAN.c ****         /* Get state of transmit error flag */
1189:Generated_Source\PSoC4/CAN.c ****         return (((CAN_ERR_SR_REG.byte[2u] & CAN_TX_ERROR_FLAG_MASK) ==
1190:Generated_Source\PSoC4/CAN.c ****                   CAN_TX_ERROR_FLAG_MASK) ? 1u : 0u);
1191:Generated_Source\PSoC4/CAN.c ****     #else  /* CY_PSOC4 */
1192:Generated_Source\PSoC4/CAN.c ****         /* Get state of transmit error flag */
1193:Generated_Source\PSoC4/CAN.c ****         return (((CAN_ERR_SR_REG & CAN_TX_ERROR_FLAG_MASK) ==
 859              		.loc 1 1193 0
 860 0000 034B     		ldr	r3, .L85
 861 0002 1B68     		ldr	r3, [r3]
 862 0004 5B03     		lsls	r3, r3, #13
 863 0006 01D5     		bpl	.L84
 864 0008 0120     		movs	r0, #1
 865 000a 00E0     		b	.L83
 866              	.L84:
 867 000c 0020     		movs	r0, #0
 868              	.L83:
1194:Generated_Source\PSoC4/CAN.c ****                   CAN_TX_ERROR_FLAG_MASK) ? 1u : 0u);
ARM GAS  C:\Users\davis\AppData\Local\Temp\cco880hz.s 			page 38


1195:Generated_Source\PSoC4/CAN.c ****     #endif /* CY_PSOC3 || CY_PSOC5 */
1196:Generated_Source\PSoC4/CAN.c **** 
1197:Generated_Source\PSoC4/CAN.c **** }
 869              		.loc 1 1197 0 discriminator 4
 870              		@ sp needed
 871 000e 7047     		bx	lr
 872              	.L86:
 873              		.align	2
 874              	.L85:
 875 0010 0C002F40 		.word	1076822028
 876              		.cfi_endproc
 877              	.LFE16:
 878              		.size	CAN_GetTXErrorFlag, .-CAN_GetTXErrorFlag
 879              		.section	.text.CAN_GetRXErrorFlag,"ax",%progbits
 880              		.align	2
 881              		.global	CAN_GetRXErrorFlag
 882              		.code	16
 883              		.thumb_func
 884              		.type	CAN_GetRXErrorFlag, %function
 885              	CAN_GetRXErrorFlag:
 886              	.LFB17:
1198:Generated_Source\PSoC4/CAN.c **** 
1199:Generated_Source\PSoC4/CAN.c **** 
1200:Generated_Source\PSoC4/CAN.c **** /*******************************************************************************
1201:Generated_Source\PSoC4/CAN.c **** * FUNCTION NAME:   CAN_GetRXErrorFlag
1202:Generated_Source\PSoC4/CAN.c **** ********************************************************************************
1203:Generated_Source\PSoC4/CAN.c **** *
1204:Generated_Source\PSoC4/CAN.c **** * Summary:
1205:Generated_Source\PSoC4/CAN.c **** *  This function returns the bit that indicates if the number of RX errors
1206:Generated_Source\PSoC4/CAN.c **** *  exceeds 0x60.
1207:Generated_Source\PSoC4/CAN.c **** *
1208:Generated_Source\PSoC4/CAN.c **** * Parameters:
1209:Generated_Source\PSoC4/CAN.c **** *  None.
1210:Generated_Source\PSoC4/CAN.c **** *
1211:Generated_Source\PSoC4/CAN.c **** * Return:
1212:Generated_Source\PSoC4/CAN.c **** *  The indication whether the number of TX errors exceeds 0x60.
1213:Generated_Source\PSoC4/CAN.c **** *
1214:Generated_Source\PSoC4/CAN.c **** *******************************************************************************/
1215:Generated_Source\PSoC4/CAN.c **** uint8 CAN_GetRXErrorFlag(void) 
1216:Generated_Source\PSoC4/CAN.c **** {
 887              		.loc 1 1216 0
 888              		.cfi_startproc
 889              		@ args = 0, pretend = 0, frame = 0
 890              		@ frame_needed = 0, uses_anonymous_args = 0
 891              		@ link register save eliminated.
1217:Generated_Source\PSoC4/CAN.c ****     #if (CY_PSOC3 || CY_PSOC5)
1218:Generated_Source\PSoC4/CAN.c ****         /* Get state of receive error flag */
1219:Generated_Source\PSoC4/CAN.c ****         return (((CAN_ERR_SR_REG.byte[2u] & CAN_RX_ERROR_FLAG_MASK) ==
1220:Generated_Source\PSoC4/CAN.c ****                   CAN_RX_ERROR_FLAG_MASK) ? 1u : 0u);
1221:Generated_Source\PSoC4/CAN.c ****     #else  /* CY_PSOC4 */
1222:Generated_Source\PSoC4/CAN.c ****         /* Get state of receive error flag */
1223:Generated_Source\PSoC4/CAN.c ****         return (((CAN_ERR_SR_REG & CAN_RX_ERROR_FLAG_MASK) ==
 892              		.loc 1 1223 0
 893 0000 034B     		ldr	r3, .L90
 894 0002 1B68     		ldr	r3, [r3]
 895 0004 1B03     		lsls	r3, r3, #12
 896 0006 01D5     		bpl	.L89
ARM GAS  C:\Users\davis\AppData\Local\Temp\cco880hz.s 			page 39


 897 0008 0120     		movs	r0, #1
 898 000a 00E0     		b	.L88
 899              	.L89:
 900 000c 0020     		movs	r0, #0
 901              	.L88:
1224:Generated_Source\PSoC4/CAN.c ****                   CAN_RX_ERROR_FLAG_MASK) ? 1u : 0u);
1225:Generated_Source\PSoC4/CAN.c ****     #endif /* CY_PSOC3 || CY_PSOC5 */
1226:Generated_Source\PSoC4/CAN.c **** 
1227:Generated_Source\PSoC4/CAN.c **** }
 902              		.loc 1 1227 0 discriminator 4
 903              		@ sp needed
 904 000e 7047     		bx	lr
 905              	.L91:
 906              		.align	2
 907              	.L90:
 908 0010 0C002F40 		.word	1076822028
 909              		.cfi_endproc
 910              	.LFE17:
 911              		.size	CAN_GetRXErrorFlag, .-CAN_GetRXErrorFlag
 912              		.section	.text.CAN_GetTXErrorCount,"ax",%progbits
 913              		.align	2
 914              		.global	CAN_GetTXErrorCount
 915              		.code	16
 916              		.thumb_func
 917              		.type	CAN_GetTXErrorCount, %function
 918              	CAN_GetTXErrorCount:
 919              	.LFB18:
1228:Generated_Source\PSoC4/CAN.c **** 
1229:Generated_Source\PSoC4/CAN.c **** 
1230:Generated_Source\PSoC4/CAN.c **** /*******************************************************************************
1231:Generated_Source\PSoC4/CAN.c **** * FUNCTION NAME:   CAN_GetTXErrorCount
1232:Generated_Source\PSoC4/CAN.c **** ********************************************************************************
1233:Generated_Source\PSoC4/CAN.c **** *
1234:Generated_Source\PSoC4/CAN.c **** * Summary:
1235:Generated_Source\PSoC4/CAN.c **** *  This function returns the number of Transmit Errors.
1236:Generated_Source\PSoC4/CAN.c **** *
1237:Generated_Source\PSoC4/CAN.c **** * Parameters:
1238:Generated_Source\PSoC4/CAN.c **** *  None.
1239:Generated_Source\PSoC4/CAN.c **** *
1240:Generated_Source\PSoC4/CAN.c **** * Return:
1241:Generated_Source\PSoC4/CAN.c **** *  The number of Transmit Errors.
1242:Generated_Source\PSoC4/CAN.c **** *
1243:Generated_Source\PSoC4/CAN.c **** *******************************************************************************/
1244:Generated_Source\PSoC4/CAN.c **** uint8 CAN_GetTXErrorCount(void) 
1245:Generated_Source\PSoC4/CAN.c **** {
 920              		.loc 1 1245 0
 921              		.cfi_startproc
 922              		@ args = 0, pretend = 0, frame = 0
 923              		@ frame_needed = 0, uses_anonymous_args = 0
 924              		@ link register save eliminated.
1246:Generated_Source\PSoC4/CAN.c ****     #if (CY_PSOC3 || CY_PSOC5)
1247:Generated_Source\PSoC4/CAN.c ****         /* Get state of transmit error count */
1248:Generated_Source\PSoC4/CAN.c ****         return (CAN_ERR_SR_REG.byte[0u]);    /* bits 7-0 */
1249:Generated_Source\PSoC4/CAN.c ****     #else  /* CY_PSOC4 */
1250:Generated_Source\PSoC4/CAN.c ****         /* Get state of transmit error count */
1251:Generated_Source\PSoC4/CAN.c ****         return ((uint8) CAN_ERR_SR_REG);    /* bits 7-0 */
 925              		.loc 1 1251 0
ARM GAS  C:\Users\davis\AppData\Local\Temp\cco880hz.s 			page 40


 926 0000 014B     		ldr	r3, .L93
 927 0002 1868     		ldr	r0, [r3]
 928 0004 C0B2     		uxtb	r0, r0
1252:Generated_Source\PSoC4/CAN.c ****     #endif /* CY_PSOC3 || CY_PSOC5 */
1253:Generated_Source\PSoC4/CAN.c **** }
 929              		.loc 1 1253 0
 930              		@ sp needed
 931 0006 7047     		bx	lr
 932              	.L94:
 933              		.align	2
 934              	.L93:
 935 0008 0C002F40 		.word	1076822028
 936              		.cfi_endproc
 937              	.LFE18:
 938              		.size	CAN_GetTXErrorCount, .-CAN_GetTXErrorCount
 939              		.section	.text.CAN_GetRXErrorCount,"ax",%progbits
 940              		.align	2
 941              		.global	CAN_GetRXErrorCount
 942              		.code	16
 943              		.thumb_func
 944              		.type	CAN_GetRXErrorCount, %function
 945              	CAN_GetRXErrorCount:
 946              	.LFB19:
1254:Generated_Source\PSoC4/CAN.c **** 
1255:Generated_Source\PSoC4/CAN.c **** 
1256:Generated_Source\PSoC4/CAN.c **** /*******************************************************************************
1257:Generated_Source\PSoC4/CAN.c **** * FUNCTION NAME:   CAN_GetRXErrorCount
1258:Generated_Source\PSoC4/CAN.c **** ********************************************************************************
1259:Generated_Source\PSoC4/CAN.c **** *
1260:Generated_Source\PSoC4/CAN.c **** * Summary:
1261:Generated_Source\PSoC4/CAN.c **** *  This function returns the number of Receive Errors.
1262:Generated_Source\PSoC4/CAN.c **** *
1263:Generated_Source\PSoC4/CAN.c **** * Parameters:
1264:Generated_Source\PSoC4/CAN.c **** *  None.
1265:Generated_Source\PSoC4/CAN.c **** *
1266:Generated_Source\PSoC4/CAN.c **** * Return:
1267:Generated_Source\PSoC4/CAN.c **** *  The number of Receive Errors.
1268:Generated_Source\PSoC4/CAN.c **** *
1269:Generated_Source\PSoC4/CAN.c **** *******************************************************************************/
1270:Generated_Source\PSoC4/CAN.c **** uint8 CAN_GetRXErrorCount(void) 
1271:Generated_Source\PSoC4/CAN.c **** {
 947              		.loc 1 1271 0
 948              		.cfi_startproc
 949              		@ args = 0, pretend = 0, frame = 0
 950              		@ frame_needed = 0, uses_anonymous_args = 0
 951              		@ link register save eliminated.
1272:Generated_Source\PSoC4/CAN.c ****     #if (CY_PSOC3 || CY_PSOC5)
1273:Generated_Source\PSoC4/CAN.c ****         /* Get state of receive error count */
1274:Generated_Source\PSoC4/CAN.c ****         return (CAN_ERR_SR_REG.byte[1u]);    /* bits 15-8 */
1275:Generated_Source\PSoC4/CAN.c ****     #else  /* CY_PSOC4 */
1276:Generated_Source\PSoC4/CAN.c ****         /* Get state of receive error count (bits 15-8) */
1277:Generated_Source\PSoC4/CAN.c ****         return ((uint8) (CAN_ERR_SR_REG >> CAN_ONE_BYTE_OFFSET));
 952              		.loc 1 1277 0
 953 0000 024B     		ldr	r3, .L96
 954 0002 1868     		ldr	r0, [r3]
 955 0004 000A     		lsrs	r0, r0, #8
 956 0006 C0B2     		uxtb	r0, r0
ARM GAS  C:\Users\davis\AppData\Local\Temp\cco880hz.s 			page 41


1278:Generated_Source\PSoC4/CAN.c ****     #endif /* CY_PSOC3 || CY_PSOC5 */
1279:Generated_Source\PSoC4/CAN.c **** 
1280:Generated_Source\PSoC4/CAN.c **** }
 957              		.loc 1 1280 0
 958              		@ sp needed
 959 0008 7047     		bx	lr
 960              	.L97:
 961 000a C046     		.align	2
 962              	.L96:
 963 000c 0C002F40 		.word	1076822028
 964              		.cfi_endproc
 965              	.LFE19:
 966              		.size	CAN_GetRXErrorCount, .-CAN_GetRXErrorCount
 967              		.section	.text.CAN_GetErrorState,"ax",%progbits
 968              		.align	2
 969              		.global	CAN_GetErrorState
 970              		.code	16
 971              		.thumb_func
 972              		.type	CAN_GetErrorState, %function
 973              	CAN_GetErrorState:
 974              	.LFB20:
1281:Generated_Source\PSoC4/CAN.c **** 
1282:Generated_Source\PSoC4/CAN.c **** 
1283:Generated_Source\PSoC4/CAN.c **** /*******************************************************************************
1284:Generated_Source\PSoC4/CAN.c **** * FUNCTION NAME:   CAN_GetErrorState
1285:Generated_Source\PSoC4/CAN.c **** ********************************************************************************
1286:Generated_Source\PSoC4/CAN.c **** *
1287:Generated_Source\PSoC4/CAN.c **** * Summary:
1288:Generated_Source\PSoC4/CAN.c **** *  This function returns the error status of CAN Component.
1289:Generated_Source\PSoC4/CAN.c **** *
1290:Generated_Source\PSoC4/CAN.c **** * Parameters:
1291:Generated_Source\PSoC4/CAN.c **** *  None.
1292:Generated_Source\PSoC4/CAN.c **** *
1293:Generated_Source\PSoC4/CAN.c **** * Return:
1294:Generated_Source\PSoC4/CAN.c **** *  The error status.
1295:Generated_Source\PSoC4/CAN.c **** *
1296:Generated_Source\PSoC4/CAN.c **** *******************************************************************************/
1297:Generated_Source\PSoC4/CAN.c **** uint8 CAN_GetErrorState(void) 
1298:Generated_Source\PSoC4/CAN.c **** {
 975              		.loc 1 1298 0
 976              		.cfi_startproc
 977              		@ args = 0, pretend = 0, frame = 0
 978              		@ frame_needed = 0, uses_anonymous_args = 0
 979              		@ link register save eliminated.
1299:Generated_Source\PSoC4/CAN.c ****     #if (CY_PSOC3 || CY_PSOC5)
1300:Generated_Source\PSoC4/CAN.c ****         /* Get error state of receiver */
1301:Generated_Source\PSoC4/CAN.c ****         return (CAN_ERR_SR_REG.byte[2u] & CAN_ERROR_STATE_MASK);
1302:Generated_Source\PSoC4/CAN.c ****     #else  /* CY_PSOC4 */
1303:Generated_Source\PSoC4/CAN.c ****         /* Get error state of receiver */
1304:Generated_Source\PSoC4/CAN.c ****         return ((uint8) ((CAN_ERR_SR_REG >> CAN_TWO_BYTE_OFFSET) &
 980              		.loc 1 1304 0
 981 0000 024B     		ldr	r3, .L99
 982 0002 1868     		ldr	r0, [r3]
 983 0004 000C     		lsrs	r0, r0, #16
 984 0006 0323     		movs	r3, #3
 985 0008 1840     		ands	r0, r3
1305:Generated_Source\PSoC4/CAN.c ****                 CAN_ERROR_STATE_MASK));
ARM GAS  C:\Users\davis\AppData\Local\Temp\cco880hz.s 			page 42


1306:Generated_Source\PSoC4/CAN.c ****     #endif /* CY_PSOC3 || CY_PSOC5 */
1307:Generated_Source\PSoC4/CAN.c **** }
 986              		.loc 1 1307 0
 987              		@ sp needed
 988 000a 7047     		bx	lr
 989              	.L100:
 990              		.align	2
 991              	.L99:
 992 000c 0C002F40 		.word	1076822028
 993              		.cfi_endproc
 994              	.LFE20:
 995              		.size	CAN_GetErrorState, .-CAN_GetErrorState
 996              		.section	.text.CAN_RxBufConfig,"ax",%progbits
 997              		.align	2
 998              		.global	CAN_RxBufConfig
 999              		.code	16
 1000              		.thumb_func
 1001              		.type	CAN_RxBufConfig, %function
 1002              	CAN_RxBufConfig:
 1003              	.LFB21:
1308:Generated_Source\PSoC4/CAN.c **** 
1309:Generated_Source\PSoC4/CAN.c **** 
1310:Generated_Source\PSoC4/CAN.c **** /*******************************************************************************
1311:Generated_Source\PSoC4/CAN.c **** * FUNCTION NAME:   CAN_RxBufConfig
1312:Generated_Source\PSoC4/CAN.c **** ********************************************************************************
1313:Generated_Source\PSoC4/CAN.c **** *
1314:Generated_Source\PSoC4/CAN.c **** * Summary:
1315:Generated_Source\PSoC4/CAN.c **** *  This function configures all receive registers for a particular mailbox.
1316:Generated_Source\PSoC4/CAN.c **** *
1317:Generated_Source\PSoC4/CAN.c **** * Parameters:
1318:Generated_Source\PSoC4/CAN.c **** *  rxConfig: The pointer to a structure that contain all required values to
1319:Generated_Source\PSoC4/CAN.c **** *  configure all receive registers for a particular mailbox.
1320:Generated_Source\PSoC4/CAN.c **** *
1321:Generated_Source\PSoC4/CAN.c **** * Return:
1322:Generated_Source\PSoC4/CAN.c **** *  The indication if particular configuration has been accepted or rejected.
1323:Generated_Source\PSoC4/CAN.c **** *   Define                             Description
1324:Generated_Source\PSoC4/CAN.c **** *    CYRET_SUCCESS                      The function passed successfully
1325:Generated_Source\PSoC4/CAN.c **** *    CAN_FAIL              The function failed
1326:Generated_Source\PSoC4/CAN.c **** *
1327:Generated_Source\PSoC4/CAN.c **** *******************************************************************************/
1328:Generated_Source\PSoC4/CAN.c **** uint8 CAN_RxBufConfig(const CAN_RX_CFG *rxConfig)
1329:Generated_Source\PSoC4/CAN.c ****                                    
1330:Generated_Source\PSoC4/CAN.c **** {
 1004              		.loc 1 1330 0
 1005              		.cfi_startproc
 1006              		@ args = 0, pretend = 0, frame = 0
 1007              		@ frame_needed = 0, uses_anonymous_args = 0
 1008              	.LVL97:
 1009 0000 10B5     		push	{r4, lr}
 1010              		.cfi_def_cfa_offset 8
 1011              		.cfi_offset 4, -8
 1012              		.cfi_offset 14, -4
 1013              	.LVL98:
1331:Generated_Source\PSoC4/CAN.c ****     uint8 result = CAN_FAIL;
1332:Generated_Source\PSoC4/CAN.c **** 
1333:Generated_Source\PSoC4/CAN.c ****     /* Write RX CMD Register */
1334:Generated_Source\PSoC4/CAN.c ****     CY_SET_REG32((reg32 *) (&CAN_RX[rxConfig->rxmailbox].rxcmd), (rxConfig->rxcmd |
ARM GAS  C:\Users\davis\AppData\Local\Temp\cco880hz.s 			page 43


 1014              		.loc 1 1334 0
 1015 0002 0378     		ldrb	r3, [r0]
 1016 0004 5B01     		lsls	r3, r3, #5
 1017 0006 204A     		ldr	r2, .L108
 1018 0008 9446     		mov	ip, r2
 1019 000a 6344     		add	r3, r3, ip
 1020 000c 1F4A     		ldr	r2, .L108+4
 1021 000e 4168     		ldr	r1, [r0, #4]
 1022 0010 0A43     		orrs	r2, r1
 1023 0012 1A60     		str	r2, [r3]
1335:Generated_Source\PSoC4/CAN.c ****                  CAN_RX_WPN_SET));
1336:Generated_Source\PSoC4/CAN.c ****     if ((CY_GET_REG32((reg32 *) (&CAN_RX[rxConfig->rxmailbox].rxcmd)) &
 1024              		.loc 1 1336 0
 1025 0014 0378     		ldrb	r3, [r0]
 1026 0016 5B01     		lsls	r3, r3, #5
 1027 0018 6344     		add	r3, r3, ip
 1028 001a 1968     		ldr	r1, [r3]
 1029 001c 1C4A     		ldr	r2, .L108+8
 1030 001e 1140     		ands	r1, r2
1337:Generated_Source\PSoC4/CAN.c ****          CAN_RX_READ_BACK_MASK) == (rxConfig->rxcmd & CAN_RX_WPN_CLEAR))
 1031              		.loc 1 1337 0
 1032 0020 1C4A     		ldr	r2, .L108+12
 1033 0022 4468     		ldr	r4, [r0, #4]
 1034 0024 2240     		ands	r2, r4
1336:Generated_Source\PSoC4/CAN.c ****          CAN_RX_READ_BACK_MASK) == (rxConfig->rxcmd & CAN_RX_WPN_CLEAR))
 1035              		.loc 1 1336 0
 1036 0026 9142     		cmp	r1, r2
 1037 0028 24D1     		bne	.L103
1338:Generated_Source\PSoC4/CAN.c ****     {
1339:Generated_Source\PSoC4/CAN.c ****         /* Write RX AMR Register */
1340:Generated_Source\PSoC4/CAN.c ****         CY_SET_REG32((reg32 *) (&CAN_RX[rxConfig->rxmailbox].rxamr), rxConfig->rxamr);
 1038              		.loc 1 1340 0
 1039 002a 8268     		ldr	r2, [r0, #8]
 1040 002c 1A61     		str	r2, [r3, #16]
1341:Generated_Source\PSoC4/CAN.c ****         if (CY_GET_REG32((reg32 *) (&CAN_RX[rxConfig->rxmailbox].rxamr)) == rxConfig->rxamr)
 1041              		.loc 1 1341 0
 1042 002e 0378     		ldrb	r3, [r0]
 1043 0030 5B01     		lsls	r3, r3, #5
 1044 0032 6344     		add	r3, r3, ip
 1045 0034 1A69     		ldr	r2, [r3, #16]
 1046 0036 8168     		ldr	r1, [r0, #8]
 1047 0038 8A42     		cmp	r2, r1
 1048 003a 1DD1     		bne	.L104
1342:Generated_Source\PSoC4/CAN.c ****         {
1343:Generated_Source\PSoC4/CAN.c ****             /* Write RX ACR Register */
1344:Generated_Source\PSoC4/CAN.c ****             CY_SET_REG32((reg32 *) (&CAN_RX[rxConfig->rxmailbox].rxacr), rxConfig->rxacr);
 1049              		.loc 1 1344 0
 1050 003c C268     		ldr	r2, [r0, #12]
 1051 003e 5A61     		str	r2, [r3, #20]
1345:Generated_Source\PSoC4/CAN.c ****             if (CY_GET_REG32((reg32 *) (&CAN_RX[rxConfig->rxmailbox].rxacr)) == rxConfig->rxacr)
 1052              		.loc 1 1345 0
 1053 0040 0378     		ldrb	r3, [r0]
 1054 0042 5B01     		lsls	r3, r3, #5
 1055 0044 6344     		add	r3, r3, ip
 1056 0046 5A69     		ldr	r2, [r3, #20]
 1057 0048 C168     		ldr	r1, [r0, #12]
 1058 004a 8A42     		cmp	r2, r1
ARM GAS  C:\Users\davis\AppData\Local\Temp\cco880hz.s 			page 44


 1059 004c 16D1     		bne	.L105
1346:Generated_Source\PSoC4/CAN.c ****             {
1347:Generated_Source\PSoC4/CAN.c ****                 /* Write RX AMRD Register */
1348:Generated_Source\PSoC4/CAN.c ****                 CY_SET_REG32((reg32 *) (&CAN_RX[rxConfig->rxmailbox].rxamrd), 0xFFFFFFFFu);
 1060              		.loc 1 1348 0
 1061 004e 0122     		movs	r2, #1
 1062 0050 5242     		rsbs	r2, r2, #0
 1063 0052 9A61     		str	r2, [r3, #24]
1349:Generated_Source\PSoC4/CAN.c ****                 if (CY_GET_REG32((reg32 *) (&CAN_RX[rxConfig->rxmailbox].rxamrd)) == 0xFFFFFFFFu)
 1064              		.loc 1 1349 0
 1065 0054 0378     		ldrb	r3, [r0]
 1066 0056 5B01     		lsls	r3, r3, #5
 1067 0058 6344     		add	r3, r3, ip
 1068 005a 9A69     		ldr	r2, [r3, #24]
 1069 005c 0132     		adds	r2, r2, #1
 1070 005e 0FD1     		bne	.L106
1350:Generated_Source\PSoC4/CAN.c ****                 {
1351:Generated_Source\PSoC4/CAN.c ****                     /* Write RX ACRD Register */
1352:Generated_Source\PSoC4/CAN.c ****                     CY_SET_REG32((reg32 *) (&CAN_RX[rxConfig->rxmailbox].rxacrd), 0x00000000u);
 1071              		.loc 1 1352 0
 1072 0060 0022     		movs	r2, #0
 1073 0062 DA61     		str	r2, [r3, #28]
1353:Generated_Source\PSoC4/CAN.c ****                     if (CY_GET_REG32((reg32 *) (&CAN_RX[rxConfig->rxmailbox].rxacrd)) == 0x00000000
 1074              		.loc 1 1353 0
 1075 0064 0378     		ldrb	r3, [r0]
 1076 0066 5B01     		lsls	r3, r3, #5
 1077 0068 6344     		add	r3, r3, ip
 1078 006a DB69     		ldr	r3, [r3, #28]
 1079 006c 002B     		cmp	r3, #0
 1080 006e 09D0     		beq	.L107
1331:Generated_Source\PSoC4/CAN.c **** 
 1081              		.loc 1 1331 0
 1082 0070 0120     		movs	r0, #1
 1083              	.LVL99:
 1084 0072 08E0     		b	.L102
 1085              	.LVL100:
 1086              	.L103:
 1087 0074 0120     		movs	r0, #1
 1088              	.LVL101:
 1089 0076 06E0     		b	.L102
 1090              	.LVL102:
 1091              	.L104:
 1092 0078 0120     		movs	r0, #1
 1093              	.LVL103:
 1094 007a 04E0     		b	.L102
 1095              	.LVL104:
 1096              	.L105:
 1097 007c 0120     		movs	r0, #1
 1098              	.LVL105:
 1099 007e 02E0     		b	.L102
 1100              	.LVL106:
 1101              	.L106:
 1102 0080 0120     		movs	r0, #1
 1103              	.LVL107:
 1104 0082 00E0     		b	.L102
 1105              	.LVL108:
 1106              	.L107:
ARM GAS  C:\Users\davis\AppData\Local\Temp\cco880hz.s 			page 45


1354:Generated_Source\PSoC4/CAN.c ****                     {
1355:Generated_Source\PSoC4/CAN.c ****                         result = CYRET_SUCCESS;
 1107              		.loc 1 1355 0
 1108 0084 0020     		movs	r0, #0
 1109              	.LVL109:
 1110              	.L102:
1356:Generated_Source\PSoC4/CAN.c ****                     }
1357:Generated_Source\PSoC4/CAN.c ****                 }
1358:Generated_Source\PSoC4/CAN.c ****             }
1359:Generated_Source\PSoC4/CAN.c ****         }
1360:Generated_Source\PSoC4/CAN.c ****     }
1361:Generated_Source\PSoC4/CAN.c **** 
1362:Generated_Source\PSoC4/CAN.c ****     return (result);
1363:Generated_Source\PSoC4/CAN.c **** }
 1111              		.loc 1 1363 0
 1112              		@ sp needed
 1113 0086 10BD     		pop	{r4, pc}
 1114              	.L109:
 1115              		.align	2
 1116              	.L108:
 1117 0088 A0002F40 		.word	1076822176
 1118 008c 80008000 		.word	8388736
 1119 0090 7F007F00 		.word	8323199
 1120 0094 7FFF7FFF 		.word	-8388737
 1121              		.cfi_endproc
 1122              	.LFE21:
 1123              		.size	CAN_RxBufConfig, .-CAN_RxBufConfig
 1124              		.section	.text.CAN_TxBufConfig,"ax",%progbits
 1125              		.align	2
 1126              		.global	CAN_TxBufConfig
 1127              		.code	16
 1128              		.thumb_func
 1129              		.type	CAN_TxBufConfig, %function
 1130              	CAN_TxBufConfig:
 1131              	.LFB22:
1364:Generated_Source\PSoC4/CAN.c **** 
1365:Generated_Source\PSoC4/CAN.c **** 
1366:Generated_Source\PSoC4/CAN.c **** /*******************************************************************************
1367:Generated_Source\PSoC4/CAN.c **** * FUNCTION NAME:   CAN_TxBufConfig
1368:Generated_Source\PSoC4/CAN.c **** ********************************************************************************
1369:Generated_Source\PSoC4/CAN.c **** *
1370:Generated_Source\PSoC4/CAN.c **** * Summary:
1371:Generated_Source\PSoC4/CAN.c **** *  This function configures all transmit registers for a particular mailbox.
1372:Generated_Source\PSoC4/CAN.c **** *  Mailbox number contains CAN_TX_CFG structure.
1373:Generated_Source\PSoC4/CAN.c **** *
1374:Generated_Source\PSoC4/CAN.c **** * Parameters:
1375:Generated_Source\PSoC4/CAN.c **** *  txConfig: The pointer to structure that contain all required values to
1376:Generated_Source\PSoC4/CAN.c **** *  configure all transmit registers for a particular mailbox.
1377:Generated_Source\PSoC4/CAN.c **** *
1378:Generated_Source\PSoC4/CAN.c **** * Return:
1379:Generated_Source\PSoC4/CAN.c **** *  The indication if particular configuration has been accepted or rejected.
1380:Generated_Source\PSoC4/CAN.c **** *   Define                             Description
1381:Generated_Source\PSoC4/CAN.c **** *    CYRET_SUCCESS                      The function passed successfully
1382:Generated_Source\PSoC4/CAN.c **** *    CAN_FAIL              The function failed
1383:Generated_Source\PSoC4/CAN.c **** *
1384:Generated_Source\PSoC4/CAN.c **** *******************************************************************************/
1385:Generated_Source\PSoC4/CAN.c **** uint8 CAN_TxBufConfig(const CAN_TX_CFG *txConfig)
ARM GAS  C:\Users\davis\AppData\Local\Temp\cco880hz.s 			page 46


1386:Generated_Source\PSoC4/CAN.c ****                                    
1387:Generated_Source\PSoC4/CAN.c **** {
 1132              		.loc 1 1387 0
 1133              		.cfi_startproc
 1134              		@ args = 0, pretend = 0, frame = 0
 1135              		@ frame_needed = 0, uses_anonymous_args = 0
 1136              	.LVL110:
 1137 0000 10B5     		push	{r4, lr}
 1138              		.cfi_def_cfa_offset 8
 1139              		.cfi_offset 4, -8
 1140              		.cfi_offset 14, -4
 1141              	.LVL111:
1388:Generated_Source\PSoC4/CAN.c ****     uint8 result = CAN_FAIL;
1389:Generated_Source\PSoC4/CAN.c **** 
1390:Generated_Source\PSoC4/CAN.c ****     /* Write TX CMD Register */
1391:Generated_Source\PSoC4/CAN.c ****     CY_SET_REG32(CAN_TX_CMD_PTR(txConfig->txmailbox), (txConfig->txcmd | CAN_TX_WPN_SET));
 1142              		.loc 1 1391 0
 1143 0002 0378     		ldrb	r3, [r0]
 1144 0004 1B01     		lsls	r3, r3, #4
 1145 0006 104A     		ldr	r2, .L114
 1146 0008 9446     		mov	ip, r2
 1147 000a 6344     		add	r3, r3, ip
 1148 000c 0F4A     		ldr	r2, .L114+4
 1149 000e 4168     		ldr	r1, [r0, #4]
 1150 0010 0A43     		orrs	r2, r1
 1151 0012 1A60     		str	r2, [r3]
1392:Generated_Source\PSoC4/CAN.c ****     if ((CY_GET_REG32(CAN_TX_CMD_PTR(txConfig->txmailbox)) &
 1152              		.loc 1 1392 0
 1153 0014 0378     		ldrb	r3, [r0]
 1154 0016 1B01     		lsls	r3, r3, #4
 1155 0018 6344     		add	r3, r3, ip
 1156 001a 1968     		ldr	r1, [r3]
 1157 001c 0C4A     		ldr	r2, .L114+8
 1158 001e 1140     		ands	r1, r2
1393:Generated_Source\PSoC4/CAN.c ****         CAN_TX_READ_BACK_MASK) == (txConfig->txcmd & CAN_TX_WPN_CLEAR))
 1159              		.loc 1 1393 0
 1160 0020 0C4A     		ldr	r2, .L114+12
 1161 0022 4468     		ldr	r4, [r0, #4]
 1162 0024 2240     		ands	r2, r4
1392:Generated_Source\PSoC4/CAN.c ****     if ((CY_GET_REG32(CAN_TX_CMD_PTR(txConfig->txmailbox)) &
 1163              		.loc 1 1392 0
 1164 0026 9142     		cmp	r1, r2
 1165 0028 0AD1     		bne	.L112
1394:Generated_Source\PSoC4/CAN.c ****     {
1395:Generated_Source\PSoC4/CAN.c ****         /* Write TX ID Register */
1396:Generated_Source\PSoC4/CAN.c ****         CY_SET_REG32(CAN_TX_ID_PTR(txConfig->txmailbox), txConfig->txid);
 1166              		.loc 1 1396 0
 1167 002a 8268     		ldr	r2, [r0, #8]
 1168 002c 5A60     		str	r2, [r3, #4]
1397:Generated_Source\PSoC4/CAN.c ****         if (CY_GET_REG32(CAN_TX_ID_PTR(txConfig->txmailbox)) == txConfig->txid)
 1169              		.loc 1 1397 0
 1170 002e 0378     		ldrb	r3, [r0]
 1171 0030 1B01     		lsls	r3, r3, #4
 1172 0032 6344     		add	r3, r3, ip
 1173 0034 5A68     		ldr	r2, [r3, #4]
 1174 0036 8368     		ldr	r3, [r0, #8]
 1175 0038 9A42     		cmp	r2, r3
ARM GAS  C:\Users\davis\AppData\Local\Temp\cco880hz.s 			page 47


 1176 003a 03D0     		beq	.L113
1388:Generated_Source\PSoC4/CAN.c **** 
 1177              		.loc 1 1388 0
 1178 003c 0120     		movs	r0, #1
 1179              	.LVL112:
 1180 003e 02E0     		b	.L111
 1181              	.LVL113:
 1182              	.L112:
 1183 0040 0120     		movs	r0, #1
 1184              	.LVL114:
 1185 0042 00E0     		b	.L111
 1186              	.LVL115:
 1187              	.L113:
1398:Generated_Source\PSoC4/CAN.c ****         {
1399:Generated_Source\PSoC4/CAN.c ****             result = CYRET_SUCCESS;
 1188              		.loc 1 1399 0
 1189 0044 0020     		movs	r0, #0
 1190              	.LVL116:
 1191              	.L111:
1400:Generated_Source\PSoC4/CAN.c ****         }
1401:Generated_Source\PSoC4/CAN.c ****     }
1402:Generated_Source\PSoC4/CAN.c **** 
1403:Generated_Source\PSoC4/CAN.c ****     return (result);
1404:Generated_Source\PSoC4/CAN.c **** }
 1192              		.loc 1 1404 0
 1193              		@ sp needed
 1194 0046 10BD     		pop	{r4, pc}
 1195              	.L115:
 1196              		.align	2
 1197              	.L114:
 1198 0048 20002F40 		.word	1076822048
 1199 004c 08008000 		.word	8388616
 1200 0050 F7007F00 		.word	8323319
 1201 0054 F7FF7FFF 		.word	-8388617
 1202              		.cfi_endproc
 1203              	.LFE22:
 1204              		.size	CAN_TxBufConfig, .-CAN_TxBufConfig
 1205              		.section	.text.CAN_RxTxBuffersConfig,"ax",%progbits
 1206              		.align	2
 1207              		.global	CAN_RxTxBuffersConfig
 1208              		.code	16
 1209              		.thumb_func
 1210              		.type	CAN_RxTxBuffersConfig, %function
 1211              	CAN_RxTxBuffersConfig:
 1212              	.LFB1:
  48:Generated_Source\PSoC4/CAN.c ****     /* Initial values of CAN RX and TX registers */
 1213              		.loc 1 48 0
 1214              		.cfi_startproc
 1215              		@ args = 0, pretend = 0, frame = 0
 1216              		@ frame_needed = 0, uses_anonymous_args = 0
 1217 0000 70B5     		push	{r4, r5, r6, lr}
 1218              		.cfi_def_cfa_offset 16
 1219              		.cfi_offset 4, -16
 1220              		.cfi_offset 5, -12
 1221              		.cfi_offset 6, -8
 1222              		.cfi_offset 14, -4
 1223              	.LVL117:
ARM GAS  C:\Users\davis\AppData\Local\Temp\cco880hz.s 			page 48


  86:Generated_Source\PSoC4/CAN.c ****     {
 1224              		.loc 1 86 0
 1225 0002 0024     		movs	r4, #0
 1226 0004 0AE0     		b	.L117
 1227              	.LVL118:
 1228              	.L119:
  88:Generated_Source\PSoC4/CAN.c ****             (&CAN_TXConfigStruct[i])) != CYRET_SUCCESS)
 1229              		.loc 1 88 0
 1230 0006 6300     		lsls	r3, r4, #1
 1231 0008 1B19     		adds	r3, r3, r4
 1232 000a 9800     		lsls	r0, r3, #2
 1233 000c 104B     		ldr	r3, .L126
 1234 000e 1818     		adds	r0, r3, r0
 1235 0010 FFF7FEFF 		bl	CAN_TxBufConfig
 1236              	.LVL119:
 1237 0014 0028     		cmp	r0, #0
 1238 0016 05D1     		bne	.L123
  86:Generated_Source\PSoC4/CAN.c ****     {
 1239              		.loc 1 86 0 discriminator 2
 1240 0018 0134     		adds	r4, r4, #1
 1241              	.LVL120:
 1242 001a E4B2     		uxtb	r4, r4
 1243              	.LVL121:
 1244              	.L117:
  86:Generated_Source\PSoC4/CAN.c ****     {
 1245              		.loc 1 86 0 is_stmt 0 discriminator 1
 1246 001c 072C     		cmp	r4, #7
 1247 001e F2D9     		bls	.L119
  82:Generated_Source\PSoC4/CAN.c ****     uint8 i;
 1248              		.loc 1 82 0 is_stmt 1
 1249 0020 0025     		movs	r5, #0
 1250 0022 00E0     		b	.L118
 1251              	.L123:
  91:Generated_Source\PSoC4/CAN.c ****             break;
 1252              		.loc 1 91 0
 1253 0024 0125     		movs	r5, #1
 1254              	.L118:
 1255              	.LVL122:
  96:Generated_Source\PSoC4/CAN.c ****     {
 1256              		.loc 1 96 0
 1257 0026 002D     		cmp	r5, #0
 1258 0028 0BD0     		beq	.L124
 1259 002a 0FE0     		b	.L121
 1260              	.L122:
 101:Generated_Source\PSoC4/CAN.c ****                 (&CAN_RXConfigStruct[i])) != CYRET_SUCCESS)
 1261              		.loc 1 101 0
 1262 002c 2301     		lsls	r3, r4, #4
 1263 002e 0848     		ldr	r0, .L126
 1264 0030 6030     		adds	r0, r0, #96
 1265 0032 C018     		adds	r0, r0, r3
 1266 0034 FFF7FEFF 		bl	CAN_RxBufConfig
 1267              	.LVL123:
 1268 0038 0028     		cmp	r0, #0
 1269 003a 06D1     		bne	.L125
  99:Generated_Source\PSoC4/CAN.c ****         {
 1270              		.loc 1 99 0 discriminator 2
 1271 003c 0134     		adds	r4, r4, #1
ARM GAS  C:\Users\davis\AppData\Local\Temp\cco880hz.s 			page 49


 1272              	.LVL124:
 1273 003e E4B2     		uxtb	r4, r4
 1274              	.LVL125:
 1275 0040 00E0     		b	.L120
 1276              	.L124:
 1277 0042 0024     		movs	r4, #0
 1278              	.LVL126:
 1279              	.L120:
  99:Generated_Source\PSoC4/CAN.c ****         {
 1280              		.loc 1 99 0 is_stmt 0 discriminator 1
 1281 0044 0F2C     		cmp	r4, #15
 1282 0046 F1D9     		bls	.L122
 1283 0048 00E0     		b	.L121
 1284              	.L125:
 104:Generated_Source\PSoC4/CAN.c ****                 break;
 1285              		.loc 1 104 0 is_stmt 1
 1286 004a 0125     		movs	r5, #1
 1287              	.LVL127:
 1288              	.L121:
 111:Generated_Source\PSoC4/CAN.c **** 
 1289              		.loc 1 111 0
 1290 004c 2800     		movs	r0, r5
 1291              		@ sp needed
 1292              	.LVL128:
 1293              	.LVL129:
 1294 004e 70BD     		pop	{r4, r5, r6, pc}
 1295              	.L127:
 1296              		.align	2
 1297              	.L126:
 1298 0050 00000000 		.word	.LANCHOR0
 1299              		.cfi_endproc
 1300              	.LFE1:
 1301              		.size	CAN_RxTxBuffersConfig, .-CAN_RxTxBuffersConfig
 1302              		.section	.text.CAN_SetSwapDataEndianness,"ax",%progbits
 1303              		.align	2
 1304              		.global	CAN_SetSwapDataEndianness
 1305              		.code	16
 1306              		.thumb_func
 1307              		.type	CAN_SetSwapDataEndianness, %function
 1308              	CAN_SetSwapDataEndianness:
 1309              	.LFB23:
1405:Generated_Source\PSoC4/CAN.c **** 
1406:Generated_Source\PSoC4/CAN.c **** 
1407:Generated_Source\PSoC4/CAN.c **** #if (!(CY_PSOC3 || CY_PSOC5))
1408:Generated_Source\PSoC4/CAN.c **** 
1409:Generated_Source\PSoC4/CAN.c **** /*******************************************************************************
1410:Generated_Source\PSoC4/CAN.c **** * FUNCTION NAME:   CAN_SetSwapDataEndianness
1411:Generated_Source\PSoC4/CAN.c **** ********************************************************************************
1412:Generated_Source\PSoC4/CAN.c **** *
1413:Generated_Source\PSoC4/CAN.c **** * Summary:
1414:Generated_Source\PSoC4/CAN.c **** *  This function selects whether the data byte endianness of the CAN receive and
1415:Generated_Source\PSoC4/CAN.c **** *  transmit data fields has to be swapped or not swapped. This is useful to
1416:Generated_Source\PSoC4/CAN.c **** *  match the data byte endianness to the endian setting of the processor or the
1417:Generated_Source\PSoC4/CAN.c **** *  used CAN protocol.
1418:Generated_Source\PSoC4/CAN.c **** *
1419:Generated_Source\PSoC4/CAN.c **** * Parameters:
1420:Generated_Source\PSoC4/CAN.c **** *  swap: Swap Enable/Disable setting.
ARM GAS  C:\Users\davis\AppData\Local\Temp\cco880hz.s 			page 50


1421:Generated_Source\PSoC4/CAN.c **** *   Define                                   Description
1422:Generated_Source\PSoC4/CAN.c **** *   CAN_SWAP_ENDIANNESS_ENABLE   The endianness of transmitted/
1423:Generated_Source\PSoC4/CAN.c **** *                                             received data byte fields (Big
1424:Generated_Source\PSoC4/CAN.c **** *                                             endian) is not swapped during
1425:Generated_Source\PSoC4/CAN.c **** *                                             multibyte data transmission.
1426:Generated_Source\PSoC4/CAN.c **** *   CAN_SWAP_ENDIANNESS_DISABLE  The endianness of transmitted/
1427:Generated_Source\PSoC4/CAN.c **** *                                             received data byte fields is
1428:Generated_Source\PSoC4/CAN.c **** *                                             swapped (Little endian) during
1429:Generated_Source\PSoC4/CAN.c **** *                                             multi byte data transmission.
1430:Generated_Source\PSoC4/CAN.c **** *
1431:Generated_Source\PSoC4/CAN.c **** * Return:
1432:Generated_Source\PSoC4/CAN.c **** *  The indication whether the register is written and verified.
1433:Generated_Source\PSoC4/CAN.c **** *   Define                             Description
1434:Generated_Source\PSoC4/CAN.c **** *    CYRET_SUCCESS                      The function passed successfully
1435:Generated_Source\PSoC4/CAN.c **** *    CAN_FAIL              The function failed
1436:Generated_Source\PSoC4/CAN.c **** *
1437:Generated_Source\PSoC4/CAN.c **** *******************************************************************************/
1438:Generated_Source\PSoC4/CAN.c **** uint8 CAN_SetSwapDataEndianness(uint8 swap)
1439:Generated_Source\PSoC4/CAN.c **** {
 1310              		.loc 1 1439 0
 1311              		.cfi_startproc
 1312              		@ args = 0, pretend = 0, frame = 0
 1313              		@ frame_needed = 0, uses_anonymous_args = 0
 1314              		@ link register save eliminated.
 1315              	.LVL130:
1440:Generated_Source\PSoC4/CAN.c ****     uint8 result = CAN_FAIL;
1441:Generated_Source\PSoC4/CAN.c **** 
1442:Generated_Source\PSoC4/CAN.c ****     if (swap == CAN_SWAP_ENDIANNESS_DISABLE)    /* Big endian */
 1316              		.loc 1 1442 0
 1317 0000 0028     		cmp	r0, #0
 1318 0002 09D1     		bne	.L129
1443:Generated_Source\PSoC4/CAN.c ****     {
1444:Generated_Source\PSoC4/CAN.c ****         CAN_CFG_REG &= (uint32) (~CAN_ENDIANNESS_MASK);
 1319              		.loc 1 1444 0
 1320 0004 0C4B     		ldr	r3, .L133
 1321 0006 1968     		ldr	r1, [r3]
 1322 0008 0C4A     		ldr	r2, .L133+4
 1323 000a 0A40     		ands	r2, r1
 1324 000c 1A60     		str	r2, [r3]
1445:Generated_Source\PSoC4/CAN.c **** 
1446:Generated_Source\PSoC4/CAN.c ****         /* Verify that bit is cleared */
1447:Generated_Source\PSoC4/CAN.c ****         if ((CAN_CFG_REG & CAN_ENDIANNESS_MASK) == 0u)
 1325              		.loc 1 1447 0
 1326 000e 1B68     		ldr	r3, [r3]
 1327 0010 9B04     		lsls	r3, r3, #18
 1328 0012 0CD5     		bpl	.L131
1440:Generated_Source\PSoC4/CAN.c **** 
 1329              		.loc 1 1440 0
 1330 0014 0130     		adds	r0, r0, #1
 1331              	.LVL131:
 1332 0016 0DE0     		b	.L130
 1333              	.LVL132:
 1334              	.L129:
1448:Generated_Source\PSoC4/CAN.c ****         {
1449:Generated_Source\PSoC4/CAN.c ****             result = CYRET_SUCCESS;
1450:Generated_Source\PSoC4/CAN.c ****         }
1451:Generated_Source\PSoC4/CAN.c ****     }
ARM GAS  C:\Users\davis\AppData\Local\Temp\cco880hz.s 			page 51


1452:Generated_Source\PSoC4/CAN.c ****     else    /* Little endian */
1453:Generated_Source\PSoC4/CAN.c ****     {
1454:Generated_Source\PSoC4/CAN.c ****         CAN_CFG_REG |= CAN_ENDIANNESS_MASK;
 1335              		.loc 1 1454 0
 1336 0018 074B     		ldr	r3, .L133
 1337 001a 1A68     		ldr	r2, [r3]
 1338 001c 8021     		movs	r1, #128
 1339 001e 8901     		lsls	r1, r1, #6
 1340 0020 0A43     		orrs	r2, r1
 1341 0022 1A60     		str	r2, [r3]
1455:Generated_Source\PSoC4/CAN.c **** 
1456:Generated_Source\PSoC4/CAN.c ****         /* Verify that bit is set */
1457:Generated_Source\PSoC4/CAN.c ****         if ((CAN_CFG_REG & CAN_ENDIANNESS_MASK) != 0u)
 1342              		.loc 1 1457 0
 1343 0024 1B68     		ldr	r3, [r3]
 1344 0026 0B42     		tst	r3, r1
 1345 0028 03D1     		bne	.L132
1440:Generated_Source\PSoC4/CAN.c **** 
 1346              		.loc 1 1440 0
 1347 002a 0120     		movs	r0, #1
 1348              	.LVL133:
 1349 002c 02E0     		b	.L130
 1350              	.LVL134:
 1351              	.L131:
1449:Generated_Source\PSoC4/CAN.c ****         }
 1352              		.loc 1 1449 0
 1353 002e 0020     		movs	r0, #0
 1354              	.LVL135:
 1355 0030 00E0     		b	.L130
 1356              	.LVL136:
 1357              	.L132:
1458:Generated_Source\PSoC4/CAN.c ****         {
1459:Generated_Source\PSoC4/CAN.c ****             result = CYRET_SUCCESS;
 1358              		.loc 1 1459 0
 1359 0032 0020     		movs	r0, #0
 1360              	.LVL137:
 1361              	.L130:
1460:Generated_Source\PSoC4/CAN.c ****         }
1461:Generated_Source\PSoC4/CAN.c ****     }
1462:Generated_Source\PSoC4/CAN.c **** 
1463:Generated_Source\PSoC4/CAN.c ****     return (result);
1464:Generated_Source\PSoC4/CAN.c **** }
 1362              		.loc 1 1464 0
 1363              		@ sp needed
 1364 0034 7047     		bx	lr
 1365              	.L134:
 1366 0036 C046     		.align	2
 1367              	.L133:
 1368 0038 14002F40 		.word	1076822036
 1369 003c FFDFFFFF 		.word	-8193
 1370              		.cfi_endproc
 1371              	.LFE23:
 1372              		.size	CAN_SetSwapDataEndianness, .-CAN_SetSwapDataEndianness
 1373              		.section	.text.CAN_Init,"ax",%progbits
 1374              		.align	2
 1375              		.global	CAN_Init
 1376              		.code	16
ARM GAS  C:\Users\davis\AppData\Local\Temp\cco880hz.s 			page 52


 1377              		.thumb_func
 1378              		.type	CAN_Init, %function
 1379              	CAN_Init:
 1380              	.LFB2:
 138:Generated_Source\PSoC4/CAN.c ****     uint32 timeout = CAN_MODE_STATE_STOP_TIMEOUT;
 1381              		.loc 1 138 0
 1382              		.cfi_startproc
 1383              		@ args = 0, pretend = 0, frame = 0
 1384              		@ frame_needed = 0, uses_anonymous_args = 0
 1385 0000 10B5     		push	{r4, lr}
 1386              		.cfi_def_cfa_offset 8
 1387              		.cfi_offset 4, -8
 1388              		.cfi_offset 14, -4
 1389              	.LVL138:
 163:Generated_Source\PSoC4/CAN.c **** 
 1390              		.loc 1 163 0
 1391 0002 8022     		movs	r2, #128
 1392 0004 1206     		lsls	r2, r2, #24
 1393 0006 334B     		ldr	r3, .L152
 1394 0008 1A60     		str	r2, [r3]
 166:Generated_Source\PSoC4/CAN.c **** 
 1395              		.loc 1 166 0
 1396 000a 334A     		ldr	r2, .L152+4
 1397 000c 1368     		ldr	r3, [r2]
 1398 000e 0121     		movs	r1, #1
 1399 0010 8B43     		bics	r3, r1
 1400 0012 1360     		str	r3, [r2]
 139:Generated_Source\PSoC4/CAN.c ****     uint8 result = CAN_FAIL;
 1401              		.loc 1 139 0
 1402 0014 F023     		movs	r3, #240
 1403 0016 1B02     		lsls	r3, r3, #8
 169:Generated_Source\PSoC4/CAN.c ****         {
 1404              		.loc 1 169 0
 1405 0018 00E0     		b	.L136
 1406              	.LVL139:
 1407              	.L138:
 171:Generated_Source\PSoC4/CAN.c ****         }
 1408              		.loc 1 171 0
 1409 001a 013B     		subs	r3, r3, #1
 1410              	.LVL140:
 1411              	.L136:
 169:Generated_Source\PSoC4/CAN.c ****         {
 1412              		.loc 1 169 0
 1413 001c 002B     		cmp	r3, #0
 1414 001e 03D0     		beq	.L137
 169:Generated_Source\PSoC4/CAN.c ****         {
 1415              		.loc 1 169 0 is_stmt 0 discriminator 1
 1416 0020 2D4A     		ldr	r2, .L152+4
 1417 0022 1268     		ldr	r2, [r2]
 1418 0024 D207     		lsls	r2, r2, #31
 1419 0026 F8D4     		bmi	.L138
 1420              	.L137:
 174:Generated_Source\PSoC4/CAN.c ****         {
 1421              		.loc 1 174 0 is_stmt 1
 1422 0028 002B     		cmp	r3, #0
 1423 002a 49D0     		beq	.L141
 177:Generated_Source\PSoC4/CAN.c **** 
ARM GAS  C:\Users\davis\AppData\Local\Temp\cco880hz.s 			page 53


 1424              		.loc 1 177 0
 1425 002c 1D20     		movs	r0, #29
 1426 002e FFF7FEFF 		bl	CyIntDisable
 1427              	.LVL141:
 180:Generated_Source\PSoC4/CAN.c **** 
 1428              		.loc 1 180 0
 1429 0032 2A49     		ldr	r1, .L152+8
 1430 0034 1D20     		movs	r0, #29
 1431 0036 FFF7FEFF 		bl	CyIntSetVector
 1432              	.LVL142:
 183:Generated_Source\PSoC4/CAN.c **** 
 1433              		.loc 1 183 0
 1434 003a 0321     		movs	r1, #3
 1435 003c 1D20     		movs	r0, #29
 1436 003e FFF7FEFF 		bl	CyIntSetPriority
 1437              	.LVL143:
 185:Generated_Source\PSoC4/CAN.c ****             {
 1438              		.loc 1 185 0
 1439 0042 1720     		movs	r0, #23
 1440 0044 FFF7FEFF 		bl	CAN_SetPreScaler
 1441              	.LVL144:
 1442 0048 0028     		cmp	r0, #0
 1443 004a 19D1     		bne	.L142
 187:Generated_Source\PSoC4/CAN.c ****                 {
 1444              		.loc 1 187 0
 1445 004c FFF7FEFF 		bl	CAN_SetArbiter
 1446              	.LVL145:
 1447 0050 0028     		cmp	r0, #0
 1448 0052 17D1     		bne	.L143
 190:Generated_Source\PSoC4/CAN.c ****                     #endif /* (!(CY_PSOC3 || CY_PSOC5)) */
 1449              		.loc 1 190 0
 1450 0054 FFF7FEFF 		bl	CAN_SetSwapDataEndianness
 1451              	.LVL146:
 1452 0058 0028     		cmp	r0, #0
 1453 005a 15D1     		bne	.L144
 193:Generated_Source\PSoC4/CAN.c ****                                 CAN_CFG_REG_TSEG2, CAN_CFG_REG_SJW,
 1454              		.loc 1 193 0
 1455 005c 0023     		movs	r3, #0
 1456 005e 0122     		movs	r2, #1
 1457 0060 0121     		movs	r1, #1
 1458 0062 0C30     		adds	r0, r0, #12
 1459 0064 FFF7FEFF 		bl	CAN_SetTsegSample
 1460              	.LVL147:
 1461 0068 0028     		cmp	r0, #0
 1462 006a 0FD1     		bne	.L145
 197:Generated_Source\PSoC4/CAN.c ****                                 {
 1463              		.loc 1 197 0
 1464 006c FFF7FEFF 		bl	CAN_SetRestartType
 1465              	.LVL148:
 1466 0070 0028     		cmp	r0, #0
 1467 0072 0DD1     		bne	.L146
 199:Generated_Source\PSoC4/CAN.c ****                                     {
 1468              		.loc 1 199 0
 1469 0074 FFF7FEFF 		bl	CAN_SetEdgeMode
 1470              	.LVL149:
 1471 0078 0028     		cmp	r0, #0
 1472 007a 0BD0     		beq	.L147
ARM GAS  C:\Users\davis\AppData\Local\Temp\cco880hz.s 			page 54


 141:Generated_Source\PSoC4/CAN.c **** 
 1473              		.loc 1 141 0
 1474 007c 0123     		movs	r3, #1
 1475 007e 0AE0     		b	.L140
 1476              	.L142:
 1477 0080 0123     		movs	r3, #1
 1478 0082 08E0     		b	.L140
 1479              	.L143:
 1480 0084 0123     		movs	r3, #1
 1481 0086 06E0     		b	.L140
 1482              	.L144:
 1483 0088 0123     		movs	r3, #1
 1484 008a 04E0     		b	.L140
 1485              	.L145:
 1486 008c 0123     		movs	r3, #1
 1487 008e 02E0     		b	.L140
 1488              	.L146:
 1489 0090 0123     		movs	r3, #1
 1490 0092 00E0     		b	.L140
 1491              	.L147:
 201:Generated_Source\PSoC4/CAN.c ****                                     }
 1492              		.loc 1 201 0
 1493 0094 0023     		movs	r3, #0
 1494              	.L140:
 1495              	.LVL150:
 209:Generated_Source\PSoC4/CAN.c ****             {
 1496              		.loc 1 209 0
 1497 0096 002B     		cmp	r3, #0
 1498 0098 14D1     		bne	.L148
 211:Generated_Source\PSoC4/CAN.c ****                 {
 1499              		.loc 1 211 0
 1500 009a FFF7FEFF 		bl	CAN_RxTxBuffersConfig
 1501              	.LVL151:
 1502 009e 0028     		cmp	r0, #0
 1503 00a0 12D1     		bne	.L149
 214:Generated_Source\PSoC4/CAN.c ****                         CYRET_SUCCESS)
 1504              		.loc 1 214 0
 1505 00a2 0F48     		ldr	r0, .L152+12
 1506 00a4 FFF7FEFF 		bl	CAN_SetIrqMask
 1507              	.LVL152:
 1508 00a8 0028     		cmp	r0, #0
 1509 00aa 0FD1     		bne	.L150
 222:Generated_Source\PSoC4/CAN.c ****                             if ((CAN_CMD_REG & CAN_OPMODE_FIELD_MASK) == 0u)
 1510              		.loc 1 222 0
 1511 00ac 0A4B     		ldr	r3, .L152+4
 1512 00ae 1A68     		ldr	r2, [r3]
 1513 00b0 0721     		movs	r1, #7
 1514 00b2 8A43     		bics	r2, r1
 1515 00b4 1A60     		str	r2, [r3]
 223:Generated_Source\PSoC4/CAN.c ****                         #endif /* CY_PSOC3 || CY_PSOC5 */
 1516              		.loc 1 223 0
 1517 00b6 1B68     		ldr	r3, [r3]
 1518 00b8 1942     		tst	r1, r3
 1519 00ba 09D0     		beq	.L151
 140:Generated_Source\PSoC4/CAN.c ****     uint8 localResult = CAN_FAIL;
 1520              		.loc 1 140 0
 1521 00bc 0130     		adds	r0, r0, #1
ARM GAS  C:\Users\davis\AppData\Local\Temp\cco880hz.s 			page 55


 1522 00be 08E0     		b	.L139
 1523              	.LVL153:
 1524              	.L141:
 1525 00c0 0120     		movs	r0, #1
 1526 00c2 06E0     		b	.L139
 1527              	.LVL154:
 1528              	.L148:
 1529 00c4 0120     		movs	r0, #1
 1530 00c6 04E0     		b	.L139
 1531              	.LVL155:
 1532              	.L149:
 1533 00c8 0120     		movs	r0, #1
 1534 00ca 02E0     		b	.L139
 1535              	.L150:
 1536 00cc 0120     		movs	r0, #1
 1537 00ce 00E0     		b	.L139
 1538              	.L151:
 226:Generated_Source\PSoC4/CAN.c ****                             }
 1539              		.loc 1 226 0
 1540 00d0 0020     		movs	r0, #0
 1541              	.L139:
 1542              	.LVL156:
 234:Generated_Source\PSoC4/CAN.c **** 
 1543              		.loc 1 234 0
 1544              		@ sp needed
 1545 00d2 10BD     		pop	{r4, pc}
 1546              	.L153:
 1547              		.align	2
 1548              	.L152:
 1549 00d4 00042F40 		.word	1076823040
 1550 00d8 10002F40 		.word	1076822032
 1551 00dc 00000000 		.word	CAN_ISR
 1552 00e0 01100000 		.word	4097
 1553              		.cfi_endproc
 1554              	.LFE2:
 1555              		.size	CAN_Init, .-CAN_Init
 1556              		.section	.text.CAN_Start,"ax",%progbits
 1557              		.align	2
 1558              		.global	CAN_Start
 1559              		.code	16
 1560              		.thumb_func
 1561              		.type	CAN_Start, %function
 1562              	CAN_Start:
 1563              	.LFB4:
 324:Generated_Source\PSoC4/CAN.c ****     uint8 result = CYRET_SUCCESS;
 1564              		.loc 1 324 0
 1565              		.cfi_startproc
 1566              		@ args = 0, pretend = 0, frame = 0
 1567              		@ frame_needed = 0, uses_anonymous_args = 0
 1568 0000 10B5     		push	{r4, lr}
 1569              		.cfi_def_cfa_offset 8
 1570              		.cfi_offset 4, -8
 1571              		.cfi_offset 14, -4
 1572              	.LVL157:
 327:Generated_Source\PSoC4/CAN.c ****     {
 1573              		.loc 1 327 0
 1574 0002 084B     		ldr	r3, .L158
ARM GAS  C:\Users\davis\AppData\Local\Temp\cco880hz.s 			page 56


 1575 0004 1B78     		ldrb	r3, [r3]
 1576 0006 002B     		cmp	r3, #0
 1577 0008 02D1     		bne	.L157
 329:Generated_Source\PSoC4/CAN.c ****     }
 1578              		.loc 1 329 0
 1579 000a FFF7FEFF 		bl	CAN_Init
 1580              	.LVL158:
 1581 000e 00E0     		b	.L155
 1582              	.LVL159:
 1583              	.L157:
 325:Generated_Source\PSoC4/CAN.c **** 
 1584              		.loc 1 325 0
 1585 0010 0020     		movs	r0, #0
 1586              	.LVL160:
 1587              	.L155:
 332:Generated_Source\PSoC4/CAN.c ****     {
 1588              		.loc 1 332 0
 1589 0012 0028     		cmp	r0, #0
 1590 0014 04D1     		bne	.L156
 334:Generated_Source\PSoC4/CAN.c ****         result = CAN_Enable();
 1591              		.loc 1 334 0
 1592 0016 0122     		movs	r2, #1
 1593 0018 024B     		ldr	r3, .L158
 1594 001a 1A70     		strb	r2, [r3]
 335:Generated_Source\PSoC4/CAN.c ****     }
 1595              		.loc 1 335 0
 1596 001c FFF7FEFF 		bl	CAN_Enable
 1597              	.LVL161:
 1598              	.L156:
 339:Generated_Source\PSoC4/CAN.c **** 
 1599              		.loc 1 339 0
 1600              		@ sp needed
 1601 0020 10BD     		pop	{r4, pc}
 1602              	.L159:
 1603 0022 C046     		.align	2
 1604              	.L158:
 1605 0024 00000000 		.word	.LANCHOR1
 1606              		.cfi_endproc
 1607              	.LFE4:
 1608              		.size	CAN_Start, .-CAN_Start
 1609              		.section	.text.CAN_SetOpMode,"ax",%progbits
 1610              		.align	2
 1611              		.global	CAN_SetOpMode
 1612              		.code	16
 1613              		.thumb_func
 1614              		.type	CAN_SetOpMode, %function
 1615              	CAN_SetOpMode:
 1616              	.LFB13:
 939:Generated_Source\PSoC4/CAN.c ****     #if (CY_PSOC3 || CY_PSOC5)
 1617              		.loc 1 939 0
 1618              		.cfi_startproc
 1619              		@ args = 0, pretend = 0, frame = 0
 1620              		@ frame_needed = 0, uses_anonymous_args = 0
 1621              	.LVL162:
 1622 0000 70B5     		push	{r4, r5, r6, lr}
 1623              		.cfi_def_cfa_offset 16
 1624              		.cfi_offset 4, -16
ARM GAS  C:\Users\davis\AppData\Local\Temp\cco880hz.s 			page 57


 1625              		.cfi_offset 5, -12
 1626              		.cfi_offset 6, -8
 1627              		.cfi_offset 14, -4
 1628 0002 0400     		movs	r4, r0
 1629              	.LVL163:
 993:Generated_Source\PSoC4/CAN.c ****             (opMode == CAN_ACTIVE_RUN_MODE))
 1630              		.loc 1 993 0
 1631 0004 134B     		ldr	r3, .L167
 1632 0006 1B68     		ldr	r3, [r3]
 1633 0008 DB07     		lsls	r3, r3, #31
 1634 000a 03D4     		bmi	.L164
 993:Generated_Source\PSoC4/CAN.c ****             (opMode == CAN_ACTIVE_RUN_MODE))
 1635              		.loc 1 993 0 is_stmt 0 discriminator 1
 1636 000c 0128     		cmp	r0, #1
 1637 000e 03D0     		beq	.L165
 944:Generated_Source\PSoC4/CAN.c **** 
 1638              		.loc 1 944 0 is_stmt 1
 1639 0010 0025     		movs	r5, #0
 1640 0012 02E0     		b	.L161
 1641              	.L164:
 996:Generated_Source\PSoC4/CAN.c ****         }
 1642              		.loc 1 996 0
 1643 0014 0125     		movs	r5, #1
 1644 0016 00E0     		b	.L161
 1645              	.L165:
 1646 0018 0125     		movs	r5, #1
 1647              	.L161:
 1648              	.LVL164:
1000:Generated_Source\PSoC4/CAN.c ****         {
 1649              		.loc 1 1000 0
 1650 001a FFF7FEFF 		bl	CAN_Stop
 1651              	.LVL165:
 1652 001e 0028     		cmp	r0, #0
 1653 0020 15D1     		bne	.L166
1003:Generated_Source\PSoC4/CAN.c **** 
 1654              		.loc 1 1003 0
 1655 0022 0D4B     		ldr	r3, .L167+4
 1656 0024 0D4A     		ldr	r2, .L167+8
 1657 0026 1A60     		str	r2, [r3]
1006:Generated_Source\PSoC4/CAN.c **** 
 1658              		.loc 1 1006 0
 1659 0028 0132     		adds	r2, r2, #1
 1660 002a 1A60     		str	r2, [r3]
1008:Generated_Source\PSoC4/CAN.c **** 
 1661              		.loc 1 1008 0
 1662 002c FFF7FEFF 		bl	CAN_Init
 1663              	.LVL166:
1010:Generated_Source\PSoC4/CAN.c ****             {
 1664              		.loc 1 1010 0
 1665 0030 0028     		cmp	r0, #0
 1666 0032 0DD1     		bne	.L162
1010:Generated_Source\PSoC4/CAN.c ****             {
 1667              		.loc 1 1010 0 is_stmt 0 discriminator 1
 1668 0034 002C     		cmp	r4, #0
 1669 0036 0BD0     		beq	.L162
1012:Generated_Source\PSoC4/CAN.c ****                 {
 1670              		.loc 1 1012 0 is_stmt 1
ARM GAS  C:\Users\davis\AppData\Local\Temp\cco880hz.s 			page 58


 1671 0038 012C     		cmp	r4, #1
 1672 003a 03D0     		beq	.L163
1015:Generated_Source\PSoC4/CAN.c ****                 }
 1673              		.loc 1 1015 0
 1674 003c 054A     		ldr	r2, .L167
 1675 003e 1368     		ldr	r3, [r2]
 1676 0040 1C43     		orrs	r4, r3
 1677 0042 1460     		str	r4, [r2]
 1678              	.L163:
1018:Generated_Source\PSoC4/CAN.c ****                 {
 1679              		.loc 1 1018 0
 1680 0044 012D     		cmp	r5, #1
 1681 0046 03D1     		bne	.L162
1021:Generated_Source\PSoC4/CAN.c ****                 }
 1682              		.loc 1 1021 0
 1683 0048 FFF7FEFF 		bl	CAN_Enable
 1684              	.LVL167:
 1685 004c 00E0     		b	.L162
 1686              	.LVL168:
 1687              	.L166:
 943:Generated_Source\PSoC4/CAN.c ****     uint8 runState = CAN_STOP_MODE;
 1688              		.loc 1 943 0
 1689 004e 0120     		movs	r0, #1
 1690              	.LVL169:
 1691              	.L162:
1028:Generated_Source\PSoC4/CAN.c **** 
 1692              		.loc 1 1028 0
 1693              		@ sp needed
 1694              	.LVL170:
 1695 0050 70BD     		pop	{r4, r5, r6, pc}
 1696              	.L168:
 1697 0052 C046     		.align	2
 1698              	.L167:
 1699 0054 10002F40 		.word	1076822032
 1700 0058 00042F40 		.word	1076823040
 1701 005c FFFFFF7F 		.word	2147483647
 1702              		.cfi_endproc
 1703              	.LFE13:
 1704              		.size	CAN_SetOpMode, .-CAN_SetOpMode
 1705              		.section	.text.CAN_SetErrorCaptureRegisterMode,"ax",%progbits
 1706              		.align	2
 1707              		.global	CAN_SetErrorCaptureRegisterMode
 1708              		.code	16
 1709              		.thumb_func
 1710              		.type	CAN_SetErrorCaptureRegisterMode, %function
 1711              	CAN_SetErrorCaptureRegisterMode:
 1712              	.LFB24:
1465:Generated_Source\PSoC4/CAN.c **** 
1466:Generated_Source\PSoC4/CAN.c **** 
1467:Generated_Source\PSoC4/CAN.c **** /*******************************************************************************
1468:Generated_Source\PSoC4/CAN.c **** * FUNCTION NAME:   CAN_SetErrorCaptureRegisterMode
1469:Generated_Source\PSoC4/CAN.c **** ********************************************************************************
1470:Generated_Source\PSoC4/CAN.c **** *
1471:Generated_Source\PSoC4/CAN.c **** * Summary:
1472:Generated_Source\PSoC4/CAN.c **** *  This function sets the Error Capture register mode. The two modes are
1473:Generated_Source\PSoC4/CAN.c **** *  possible: Free Running and Error Capture.
1474:Generated_Source\PSoC4/CAN.c **** *
ARM GAS  C:\Users\davis\AppData\Local\Temp\cco880hz.s 			page 59


1475:Generated_Source\PSoC4/CAN.c **** * Parameters:
1476:Generated_Source\PSoC4/CAN.c **** *  ecrMode: The Error Capture register mode setting.
1477:Generated_Source\PSoC4/CAN.c **** *   Define                               Description
1478:Generated_Source\PSoC4/CAN.c **** *   CAN_ECR_FREE_RUNNING     The ECR captures the field and bit
1479:Generated_Source\PSoC4/CAN.c **** *                                         position within the current CAN frame.
1480:Generated_Source\PSoC4/CAN.c **** *   CAN_ECR_ERROR_CAPTURE    In this mode the ECR register only
1481:Generated_Source\PSoC4/CAN.c **** *                                         captures an error event. For
1482:Generated_Source\PSoC4/CAN.c **** *                                         successive error captures, the ECR
1483:Generated_Source\PSoC4/CAN.c **** *                                         needs to be armed again by writing
1484:Generated_Source\PSoC4/CAN.c **** *                                         to the ECR register.
1485:Generated_Source\PSoC4/CAN.c **** *
1486:Generated_Source\PSoC4/CAN.c **** * Return:
1487:Generated_Source\PSoC4/CAN.c **** *  The indication whether the register is written and verified.
1488:Generated_Source\PSoC4/CAN.c **** *   Define                             Description
1489:Generated_Source\PSoC4/CAN.c **** *    CYRET_SUCCESS                      The function passed successfully
1490:Generated_Source\PSoC4/CAN.c **** *    CAN_FAIL              The function failed
1491:Generated_Source\PSoC4/CAN.c **** *
1492:Generated_Source\PSoC4/CAN.c **** *******************************************************************************/
1493:Generated_Source\PSoC4/CAN.c **** uint8 CAN_SetErrorCaptureRegisterMode(uint8 ecrMode)
1494:Generated_Source\PSoC4/CAN.c **** {
 1713              		.loc 1 1494 0
 1714              		.cfi_startproc
 1715              		@ args = 0, pretend = 0, frame = 0
 1716              		@ frame_needed = 0, uses_anonymous_args = 0
 1717              		@ link register save eliminated.
 1718              	.LVL171:
1495:Generated_Source\PSoC4/CAN.c ****     uint8 result = CAN_FAIL;
1496:Generated_Source\PSoC4/CAN.c **** 
1497:Generated_Source\PSoC4/CAN.c ****     if (ecrMode == CAN_ECR_FREE_RUNNING)
 1719              		.loc 1 1497 0
 1720 0000 0028     		cmp	r0, #0
 1721 0002 09D1     		bne	.L170
1498:Generated_Source\PSoC4/CAN.c ****     {
1499:Generated_Source\PSoC4/CAN.c ****         CAN_CFG_REG &= (uint32) (~CAN_ECR_MODE_MASK);
 1722              		.loc 1 1499 0
 1723 0004 0C4B     		ldr	r3, .L174
 1724 0006 1968     		ldr	r1, [r3]
 1725 0008 0C4A     		ldr	r2, .L174+4
 1726 000a 0A40     		ands	r2, r1
 1727 000c 1A60     		str	r2, [r3]
1500:Generated_Source\PSoC4/CAN.c **** 
1501:Generated_Source\PSoC4/CAN.c ****         /* Verify that bit is cleared */
1502:Generated_Source\PSoC4/CAN.c ****         if ((CAN_CFG_REG & CAN_ECR_MODE_MASK) == 0u)
 1728              		.loc 1 1502 0
 1729 000e 1B68     		ldr	r3, [r3]
 1730 0010 5B04     		lsls	r3, r3, #17
 1731 0012 0CD5     		bpl	.L172
1495:Generated_Source\PSoC4/CAN.c **** 
 1732              		.loc 1 1495 0
 1733 0014 0130     		adds	r0, r0, #1
 1734              	.LVL172:
 1735 0016 0DE0     		b	.L171
 1736              	.LVL173:
 1737              	.L170:
1503:Generated_Source\PSoC4/CAN.c ****         {
1504:Generated_Source\PSoC4/CAN.c ****             result = CYRET_SUCCESS;
1505:Generated_Source\PSoC4/CAN.c ****         }
ARM GAS  C:\Users\davis\AppData\Local\Temp\cco880hz.s 			page 60


1506:Generated_Source\PSoC4/CAN.c ****     }
1507:Generated_Source\PSoC4/CAN.c ****     else    /* Capture mode */
1508:Generated_Source\PSoC4/CAN.c ****     {
1509:Generated_Source\PSoC4/CAN.c ****         CAN_CFG_REG |= CAN_ECR_MODE_MASK;
 1738              		.loc 1 1509 0
 1739 0018 074B     		ldr	r3, .L174
 1740 001a 1A68     		ldr	r2, [r3]
 1741 001c 8021     		movs	r1, #128
 1742 001e C901     		lsls	r1, r1, #7
 1743 0020 0A43     		orrs	r2, r1
 1744 0022 1A60     		str	r2, [r3]
1510:Generated_Source\PSoC4/CAN.c **** 
1511:Generated_Source\PSoC4/CAN.c ****         /* Verify that bit is set */
1512:Generated_Source\PSoC4/CAN.c ****         if ((CAN_CFG_REG & CAN_ECR_MODE_MASK) != 0u)
 1745              		.loc 1 1512 0
 1746 0024 1B68     		ldr	r3, [r3]
 1747 0026 0B42     		tst	r3, r1
 1748 0028 03D1     		bne	.L173
1495:Generated_Source\PSoC4/CAN.c **** 
 1749              		.loc 1 1495 0
 1750 002a 0120     		movs	r0, #1
 1751              	.LVL174:
 1752 002c 02E0     		b	.L171
 1753              	.LVL175:
 1754              	.L172:
1504:Generated_Source\PSoC4/CAN.c ****         }
 1755              		.loc 1 1504 0
 1756 002e 0020     		movs	r0, #0
 1757              	.LVL176:
 1758 0030 00E0     		b	.L171
 1759              	.LVL177:
 1760              	.L173:
1513:Generated_Source\PSoC4/CAN.c ****         {
1514:Generated_Source\PSoC4/CAN.c ****             result = CYRET_SUCCESS;
 1761              		.loc 1 1514 0
 1762 0032 0020     		movs	r0, #0
 1763              	.LVL178:
 1764              	.L171:
1515:Generated_Source\PSoC4/CAN.c ****         }
1516:Generated_Source\PSoC4/CAN.c ****     }
1517:Generated_Source\PSoC4/CAN.c **** 
1518:Generated_Source\PSoC4/CAN.c ****     return (result);
1519:Generated_Source\PSoC4/CAN.c **** }
 1765              		.loc 1 1519 0
 1766              		@ sp needed
 1767 0034 7047     		bx	lr
 1768              	.L175:
 1769 0036 C046     		.align	2
 1770              	.L174:
 1771 0038 14002F40 		.word	1076822036
 1772 003c FFBFFFFF 		.word	-16385
 1773              		.cfi_endproc
 1774              	.LFE24:
 1775              		.size	CAN_SetErrorCaptureRegisterMode, .-CAN_SetErrorCaptureRegisterMode
 1776              		.section	.text.CAN_ReadErrorCaptureRegister,"ax",%progbits
 1777              		.align	2
 1778              		.global	CAN_ReadErrorCaptureRegister
ARM GAS  C:\Users\davis\AppData\Local\Temp\cco880hz.s 			page 61


 1779              		.code	16
 1780              		.thumb_func
 1781              		.type	CAN_ReadErrorCaptureRegister, %function
 1782              	CAN_ReadErrorCaptureRegister:
 1783              	.LFB25:
1520:Generated_Source\PSoC4/CAN.c **** 
1521:Generated_Source\PSoC4/CAN.c **** 
1522:Generated_Source\PSoC4/CAN.c **** /*******************************************************************************
1523:Generated_Source\PSoC4/CAN.c **** * FUNCTION NAME:   CAN_ReadErrorCaptureRegister
1524:Generated_Source\PSoC4/CAN.c **** ********************************************************************************
1525:Generated_Source\PSoC4/CAN.c **** *
1526:Generated_Source\PSoC4/CAN.c **** * Summary:
1527:Generated_Source\PSoC4/CAN.c **** *  This function returns the value of the Error Capture register.
1528:Generated_Source\PSoC4/CAN.c **** *
1529:Generated_Source\PSoC4/CAN.c **** * Parameters:
1530:Generated_Source\PSoC4/CAN.c **** *  None.
1531:Generated_Source\PSoC4/CAN.c **** *
1532:Generated_Source\PSoC4/CAN.c **** * Return:
1533:Generated_Source\PSoC4/CAN.c **** *  The value of the Error Capture register.
1534:Generated_Source\PSoC4/CAN.c **** *   Bit  Name          Values
1535:Generated_Source\PSoC4/CAN.c **** *    0    ECR_STATUS    0: The ECR register captured an error or it is a free
1536:Generated_Source\PSoC4/CAN.c **** *                          running mode
1537:Generated_Source\PSoC4/CAN.c **** *                       1: The ECR register is armed
1538:Generated_Source\PSoC4/CAN.c **** *   3:1   ERROR_TYPE    000 : Arbitration loss
1539:Generated_Source\PSoC4/CAN.c **** *                       001 : Bit Error
1540:Generated_Source\PSoC4/CAN.c **** *                       010 : Bit Stuffing Error
1541:Generated_Source\PSoC4/CAN.c **** *                       011 : Acknowledge Error
1542:Generated_Source\PSoC4/CAN.c **** *                       100 : Form Error
1543:Generated_Source\PSoC4/CAN.c **** *                       101 : CRC Error
1544:Generated_Source\PSoC4/CAN.c **** *                       Others : N/A
1545:Generated_Source\PSoC4/CAN.c **** *    4    TX_MODE       0: No status
1546:Generated_Source\PSoC4/CAN.c **** *                       1: CAN Controller is the transmitter
1547:Generated_Source\PSoC4/CAN.c **** *    5    RX_MODE       0: No status
1548:Generated_Source\PSoC4/CAN.c **** *                       1: CAN Controller is the receiver
1549:Generated_Source\PSoC4/CAN.c **** *  11:6   BIT           Bit number inside of Field
1550:Generated_Source\PSoC4/CAN.c **** *  12:16  Field         0x00 : Stopped
1551:Generated_Source\PSoC4/CAN.c **** *                       0x01 : Synchronize
1552:Generated_Source\PSoC4/CAN.c **** *                       0x05 : Interframe
1553:Generated_Source\PSoC4/CAN.c **** *                       0x06 : Bus Idle
1554:Generated_Source\PSoC4/CAN.c **** *                       0x07 : Start of Frame
1555:Generated_Source\PSoC4/CAN.c **** *                       0x08 : Arbitration
1556:Generated_Source\PSoC4/CAN.c **** *                       0x09 : Control
1557:Generated_Source\PSoC4/CAN.c **** *                       0x0A : Data
1558:Generated_Source\PSoC4/CAN.c **** *                       0x0B : CRC
1559:Generated_Source\PSoC4/CAN.c **** *                       0x0C : ACK
1560:Generated_Source\PSoC4/CAN.c **** *                       0x0D : End of frame
1561:Generated_Source\PSoC4/CAN.c **** *                       0x10 : Error flag
1562:Generated_Source\PSoC4/CAN.c **** *                       0x11 : Error echo
1563:Generated_Source\PSoC4/CAN.c **** *                       0x12 : Error delimiter
1564:Generated_Source\PSoC4/CAN.c **** *                       0x18 : Overload flag
1565:Generated_Source\PSoC4/CAN.c **** *                       0x19 : Overload echo
1566:Generated_Source\PSoC4/CAN.c **** *                       0x1A : Overload delimiter
1567:Generated_Source\PSoC4/CAN.c **** *                       Others : N/A
1568:Generated_Source\PSoC4/CAN.c **** *
1569:Generated_Source\PSoC4/CAN.c **** *******************************************************************************/
1570:Generated_Source\PSoC4/CAN.c **** uint32 CAN_ReadErrorCaptureRegister(void)
1571:Generated_Source\PSoC4/CAN.c **** {
ARM GAS  C:\Users\davis\AppData\Local\Temp\cco880hz.s 			page 62


 1784              		.loc 1 1571 0
 1785              		.cfi_startproc
 1786              		@ args = 0, pretend = 0, frame = 0
 1787              		@ frame_needed = 0, uses_anonymous_args = 0
 1788              		@ link register save eliminated.
1572:Generated_Source\PSoC4/CAN.c ****     return (CAN_ECR_REG);
 1789              		.loc 1 1572 0
 1790 0000 014B     		ldr	r3, .L177
 1791 0002 1868     		ldr	r0, [r3]
1573:Generated_Source\PSoC4/CAN.c **** }
 1792              		.loc 1 1573 0
 1793              		@ sp needed
 1794 0004 7047     		bx	lr
 1795              	.L178:
 1796 0006 C046     		.align	2
 1797              	.L177:
 1798 0008 18002F40 		.word	1076822040
 1799              		.cfi_endproc
 1800              	.LFE25:
 1801              		.size	CAN_ReadErrorCaptureRegister, .-CAN_ReadErrorCaptureRegister
 1802              		.section	.text.CAN_ArmErrorCaptureRegister,"ax",%progbits
 1803              		.align	2
 1804              		.global	CAN_ArmErrorCaptureRegister
 1805              		.code	16
 1806              		.thumb_func
 1807              		.type	CAN_ArmErrorCaptureRegister, %function
 1808              	CAN_ArmErrorCaptureRegister:
 1809              	.LFB26:
1574:Generated_Source\PSoC4/CAN.c **** 
1575:Generated_Source\PSoC4/CAN.c **** 
1576:Generated_Source\PSoC4/CAN.c **** /*******************************************************************************
1577:Generated_Source\PSoC4/CAN.c **** * FUNCTION NAME:   CAN_ArmErrorCaptureRegister
1578:Generated_Source\PSoC4/CAN.c **** ********************************************************************************
1579:Generated_Source\PSoC4/CAN.c **** *
1580:Generated_Source\PSoC4/CAN.c **** * Summary:
1581:Generated_Source\PSoC4/CAN.c **** *  This function arms the Error Capture register when the ECR is in the Error
1582:Generated_Source\PSoC4/CAN.c **** *  Capture mode, by setting the ECR_STATUS bit in the ECR register.
1583:Generated_Source\PSoC4/CAN.c **** *
1584:Generated_Source\PSoC4/CAN.c **** * Parameters:
1585:Generated_Source\PSoC4/CAN.c **** *  None.
1586:Generated_Source\PSoC4/CAN.c **** *
1587:Generated_Source\PSoC4/CAN.c **** * Return:
1588:Generated_Source\PSoC4/CAN.c **** *  The indication whether the register is written and verified.
1589:Generated_Source\PSoC4/CAN.c **** *   Define                             Description
1590:Generated_Source\PSoC4/CAN.c **** *    CYRET_SUCCESS                      The function passed successfully
1591:Generated_Source\PSoC4/CAN.c **** *    CAN_FAIL              The function failed
1592:Generated_Source\PSoC4/CAN.c **** *
1593:Generated_Source\PSoC4/CAN.c **** *******************************************************************************/
1594:Generated_Source\PSoC4/CAN.c **** uint8 CAN_ArmErrorCaptureRegister(void)
1595:Generated_Source\PSoC4/CAN.c **** {
 1810              		.loc 1 1595 0
 1811              		.cfi_startproc
 1812              		@ args = 0, pretend = 0, frame = 0
 1813              		@ frame_needed = 0, uses_anonymous_args = 0
 1814              		@ link register save eliminated.
 1815              	.LVL179:
1596:Generated_Source\PSoC4/CAN.c ****     uint8 result = CAN_FAIL;
ARM GAS  C:\Users\davis\AppData\Local\Temp\cco880hz.s 			page 63


1597:Generated_Source\PSoC4/CAN.c **** 
1598:Generated_Source\PSoC4/CAN.c ****     CAN_ECR_REG |= CAN_ECR_STATUS_ARM;
 1816              		.loc 1 1598 0
 1817 0000 054B     		ldr	r3, .L182
 1818 0002 1A68     		ldr	r2, [r3]
 1819 0004 0121     		movs	r1, #1
 1820 0006 0A43     		orrs	r2, r1
 1821 0008 1A60     		str	r2, [r3]
1599:Generated_Source\PSoC4/CAN.c **** 
1600:Generated_Source\PSoC4/CAN.c ****     /* Verify that bit is set */
1601:Generated_Source\PSoC4/CAN.c ****     if ((CAN_ECR_REG & CAN_ECR_STATUS_ARM) != 0u)
 1822              		.loc 1 1601 0
 1823 000a 1B68     		ldr	r3, [r3]
 1824 000c 1942     		tst	r1, r3
 1825 000e 01D1     		bne	.L181
1596:Generated_Source\PSoC4/CAN.c ****     uint8 result = CAN_FAIL;
 1826              		.loc 1 1596 0
 1827 0010 0120     		movs	r0, #1
 1828 0012 00E0     		b	.L180
 1829              	.L181:
1602:Generated_Source\PSoC4/CAN.c ****     {
1603:Generated_Source\PSoC4/CAN.c ****         result = CYRET_SUCCESS;
 1830              		.loc 1 1603 0
 1831 0014 0020     		movs	r0, #0
 1832              	.L180:
 1833              	.LVL180:
1604:Generated_Source\PSoC4/CAN.c ****     }
1605:Generated_Source\PSoC4/CAN.c **** 
1606:Generated_Source\PSoC4/CAN.c ****     return (result);
1607:Generated_Source\PSoC4/CAN.c **** }
 1834              		.loc 1 1607 0
 1835              		@ sp needed
 1836 0016 7047     		bx	lr
 1837              	.L183:
 1838              		.align	2
 1839              	.L182:
 1840 0018 18002F40 		.word	1076822040
 1841              		.cfi_endproc
 1842              	.LFE26:
 1843              		.size	CAN_ArmErrorCaptureRegister, .-CAN_ArmErrorCaptureRegister
 1844              		.global	CAN_initVar
 1845              		.section	.rodata
 1846              		.align	2
 1847              		.set	.LANCHOR0,. + 0
 1848              		.type	CAN_TXConfigStruct.5030, %object
 1849              		.size	CAN_TXConfigStruct.5030, 96
 1850              	CAN_TXConfigStruct.5030:
 1851 0000 00       		.byte	0
 1852 0001 000000   		.space	3
 1853 0004 08008800 		.word	8912904
 1854 0008 00000000 		.word	0
 1855 000c 01       		.byte	1
 1856 000d 000000   		.space	3
 1857 0010 08008800 		.word	8912904
 1858 0014 00000000 		.word	0
 1859 0018 02       		.byte	2
 1860 0019 000000   		.space	3
ARM GAS  C:\Users\davis\AppData\Local\Temp\cco880hz.s 			page 64


 1861 001c 08008800 		.word	8912904
 1862 0020 00000000 		.word	0
 1863 0024 03       		.byte	3
 1864 0025 000000   		.space	3
 1865 0028 08008800 		.word	8912904
 1866 002c 00000000 		.word	0
 1867 0030 04       		.byte	4
 1868 0031 000000   		.space	3
 1869 0034 08008800 		.word	8912904
 1870 0038 00000000 		.word	0
 1871 003c 05       		.byte	5
 1872 003d 000000   		.space	3
 1873 0040 08008800 		.word	8912904
 1874 0044 00000000 		.word	0
 1875 0048 06       		.byte	6
 1876 0049 000000   		.space	3
 1877 004c 08008800 		.word	8912904
 1878 0050 00000000 		.word	0
 1879 0054 07       		.byte	7
 1880 0055 000000   		.space	3
 1881 0058 08008800 		.word	8912904
 1882 005c 00000000 		.word	0
 1883              		.type	CAN_RXConfigStruct.5029, %object
 1884              		.size	CAN_RXConfigStruct.5029, 256
 1885              	CAN_RXConfigStruct.5029:
 1886 0060 00       		.byte	0
 1887 0061 000000   		.space	3
 1888 0064 A8008000 		.word	8388776
 1889 0068 FFFFFFFF 		.word	-1
 1890 006c 00000000 		.word	0
 1891 0070 01       		.byte	1
 1892 0071 000000   		.space	3
 1893 0074 A8008000 		.word	8388776
 1894 0078 FFFFFFFF 		.word	-1
 1895 007c 00000000 		.word	0
 1896 0080 02       		.byte	2
 1897 0081 000000   		.space	3
 1898 0084 A8008000 		.word	8388776
 1899 0088 FFFFFFFF 		.word	-1
 1900 008c 00000000 		.word	0
 1901 0090 03       		.byte	3
 1902 0091 000000   		.space	3
 1903 0094 A8008000 		.word	8388776
 1904 0098 FFFFFFFF 		.word	-1
 1905 009c 00000000 		.word	0
 1906 00a0 04       		.byte	4
 1907 00a1 000000   		.space	3
 1908 00a4 00000000 		.word	0
 1909 00a8 00000000 		.word	0
 1910 00ac 00000000 		.word	0
 1911 00b0 05       		.byte	5
 1912 00b1 000000   		.space	3
 1913 00b4 00000000 		.word	0
 1914 00b8 00000000 		.word	0
 1915 00bc 00000000 		.word	0
 1916 00c0 06       		.byte	6
 1917 00c1 000000   		.space	3
ARM GAS  C:\Users\davis\AppData\Local\Temp\cco880hz.s 			page 65


 1918 00c4 00000000 		.word	0
 1919 00c8 00000000 		.word	0
 1920 00cc 00000000 		.word	0
 1921 00d0 07       		.byte	7
 1922 00d1 000000   		.space	3
 1923 00d4 00000000 		.word	0
 1924 00d8 00000000 		.word	0
 1925 00dc 00000000 		.word	0
 1926 00e0 08       		.byte	8
 1927 00e1 000000   		.space	3
 1928 00e4 00000000 		.word	0
 1929 00e8 00000000 		.word	0
 1930 00ec 00000000 		.word	0
 1931 00f0 09       		.byte	9
 1932 00f1 000000   		.space	3
 1933 00f4 00000000 		.word	0
 1934 00f8 00000000 		.word	0
 1935 00fc 00000000 		.word	0
 1936 0100 0A       		.byte	10
 1937 0101 000000   		.space	3
 1938 0104 00000000 		.word	0
 1939 0108 00000000 		.word	0
 1940 010c 00000000 		.word	0
 1941 0110 0B       		.byte	11
 1942 0111 000000   		.space	3
 1943 0114 00000000 		.word	0
 1944 0118 00000000 		.word	0
 1945 011c 00000000 		.word	0
 1946 0120 0C       		.byte	12
 1947 0121 000000   		.space	3
 1948 0124 00000000 		.word	0
 1949 0128 00000000 		.word	0
 1950 012c 00000000 		.word	0
 1951 0130 0D       		.byte	13
 1952 0131 000000   		.space	3
 1953 0134 00000000 		.word	0
 1954 0138 00000000 		.word	0
 1955 013c 00000000 		.word	0
 1956 0140 0E       		.byte	14
 1957 0141 000000   		.space	3
 1958 0144 00000000 		.word	0
 1959 0148 00000000 		.word	0
 1960 014c 00000000 		.word	0
 1961 0150 0F       		.byte	15
 1962 0151 000000   		.space	3
 1963 0154 00000000 		.word	0
 1964 0158 00000000 		.word	0
 1965 015c 00000000 		.word	0
 1966              		.bss
 1967              		.set	.LANCHOR1,. + 0
 1968              		.type	CAN_initVar, %object
 1969              		.size	CAN_initVar, 1
 1970              	CAN_initVar:
 1971 0000 00       		.space	1
 1972              		.text
 1973              	.Letext0:
 1974              		.file 2 "Generated_Source\\PSoC4\\cytypes.h"
ARM GAS  C:\Users\davis\AppData\Local\Temp\cco880hz.s 			page 66


 1975              		.file 3 "Generated_Source\\PSoC4\\CAN.h"
 1976              		.file 4 "Generated_Source\\PSoC4\\CyLib.h"