ARM GAS  C:\Users\davis\AppData\Local\Temp\cco880hz.s 			page 1


   1              		.syntax unified
   2              		.cpu cortex-m0
   3              		.fpu softvfp
   4              		.eabi_attribute 20, 1
   5              		.eabi_attribute 21, 1
   6              		.eabi_attribute 23, 3
   7              		.eabi_attribute 24, 1
   8              		.eabi_attribute 25, 1
   9              		.eabi_attribute 26, 1
  10              		.eabi_attribute 30, 1
  11              		.eabi_attribute 34, 0
  12              		.eabi_attribute 18, 4
  13              		.thumb
  14              		.syntax unified
  15              		.file	"CAN.c"
  16              		.text
  17              	.Ltext0:
  18              		.cfi_sections	.debug_frame
  19              		.section	.text.CAN_Stop,"ax",%progbits
  20              		.align	2
  21              		.global	CAN_Stop
  22              		.code	16
  23              		.thumb_func
  24              		.type	CAN_Stop, %function
  25              	CAN_Stop:
  26              	.LFB5:
  27              		.file 1 "Generated_Source\\PSoC4\\CAN.c"
   1:Generated_Source\PSoC4/CAN.c **** /*******************************************************************************
   2:Generated_Source\PSoC4/CAN.c **** * File Name: CAN.c
   3:Generated_Source\PSoC4/CAN.c **** * Version 3.0
   4:Generated_Source\PSoC4/CAN.c **** *
   5:Generated_Source\PSoC4/CAN.c **** * Description:
   6:Generated_Source\PSoC4/CAN.c **** *  The CAN Component provides functionality of Control Area Network.
   7:Generated_Source\PSoC4/CAN.c **** *  The two types of mailbox configuration available are "Full" and "Basic".
   8:Generated_Source\PSoC4/CAN.c **** *
   9:Generated_Source\PSoC4/CAN.c **** * Note:
  10:Generated_Source\PSoC4/CAN.c **** *  The CAN configuration is put as constant to ROM and can be changed
  11:Generated_Source\PSoC4/CAN.c **** *  only directly by the registers written by the user.
  12:Generated_Source\PSoC4/CAN.c **** *
  13:Generated_Source\PSoC4/CAN.c **** ********************************************************************************
  14:Generated_Source\PSoC4/CAN.c **** * Copyright 2008-2015, Cypress Semiconductor Corporation.  All rights reserved.
  15:Generated_Source\PSoC4/CAN.c **** * You may use this file only in accordance with the license, terms, conditions,
  16:Generated_Source\PSoC4/CAN.c **** * disclaimers, and limitations in the end user license agreement accompanying
  17:Generated_Source\PSoC4/CAN.c **** * the software package with which this file was provided.
  18:Generated_Source\PSoC4/CAN.c **** *******************************************************************************/
  19:Generated_Source\PSoC4/CAN.c **** 
  20:Generated_Source\PSoC4/CAN.c **** #include "CAN.h"
  21:Generated_Source\PSoC4/CAN.c **** 
  22:Generated_Source\PSoC4/CAN.c **** uint8 CAN_initVar = 0u;
  23:Generated_Source\PSoC4/CAN.c **** 
  24:Generated_Source\PSoC4/CAN.c **** 
  25:Generated_Source\PSoC4/CAN.c **** /*******************************************************************************
  26:Generated_Source\PSoC4/CAN.c **** * FUNCTION NAME:   CAN_RxTxBuffersConfig
  27:Generated_Source\PSoC4/CAN.c **** ********************************************************************************
  28:Generated_Source\PSoC4/CAN.c **** *
  29:Generated_Source\PSoC4/CAN.c **** * Summary:
  30:Generated_Source\PSoC4/CAN.c **** *  Inits/Restores default CAN Rx and Tx Buffers control registers configuration
ARM GAS  C:\Users\davis\AppData\Local\Temp\cco880hz.s 			page 2


  31:Generated_Source\PSoC4/CAN.c **** *  provided by the customizer.
  32:Generated_Source\PSoC4/CAN.c **** *
  33:Generated_Source\PSoC4/CAN.c **** * Parameters:
  34:Generated_Source\PSoC4/CAN.c **** *  None.
  35:Generated_Source\PSoC4/CAN.c **** *
  36:Generated_Source\PSoC4/CAN.c **** * Return:
  37:Generated_Source\PSoC4/CAN.c **** *  The indication whether the configuration has been accepted or rejected.
  38:Generated_Source\PSoC4/CAN.c **** *   Define                             Description
  39:Generated_Source\PSoC4/CAN.c **** *    CYRET_SUCCESS                      The function passed successfully
  40:Generated_Source\PSoC4/CAN.c **** *    CAN_FAIL              The function failed
  41:Generated_Source\PSoC4/CAN.c **** *
  42:Generated_Source\PSoC4/CAN.c **** * Side Effects:
  43:Generated_Source\PSoC4/CAN.c **** *  All the Rx and Tx Buffers control registers will be reset to their initial
  44:Generated_Source\PSoC4/CAN.c **** *  values.
  45:Generated_Source\PSoC4/CAN.c **** *
  46:Generated_Source\PSoC4/CAN.c **** *******************************************************************************/
  47:Generated_Source\PSoC4/CAN.c **** uint8 CAN_RxTxBuffersConfig(void) 
  48:Generated_Source\PSoC4/CAN.c **** {
  49:Generated_Source\PSoC4/CAN.c ****     /* Initial values of CAN RX and TX registers */
  50:Generated_Source\PSoC4/CAN.c ****     static const CAN_RX_CFG CYCODE CAN_RXConfigStruct[] =
  51:Generated_Source\PSoC4/CAN.c ****     {
  52:Generated_Source\PSoC4/CAN.c ****         { 0u, 0x8000A8u, 0xFFFFFFFFu, 0x0u },
  53:Generated_Source\PSoC4/CAN.c ****         { 1u, 0x8000A8u, 0xFFFFFFFFu, 0x0u },
  54:Generated_Source\PSoC4/CAN.c ****         { 2u, 0x8000A8u, 0xFFFFFFFFu, 0x0u },
  55:Generated_Source\PSoC4/CAN.c ****         { 3u, 0x8000A8u, 0xFFFFFFFFu, 0x0u },
  56:Generated_Source\PSoC4/CAN.c ****         { 4u, 0x0u, 0x0u, 0x0u },
  57:Generated_Source\PSoC4/CAN.c ****         { 5u, 0x0u, 0x0u, 0x0u },
  58:Generated_Source\PSoC4/CAN.c ****         { 6u, 0x0u, 0x0u, 0x0u },
  59:Generated_Source\PSoC4/CAN.c ****         { 7u, 0x0u, 0x0u, 0x0u },
  60:Generated_Source\PSoC4/CAN.c ****         { 8u, 0x0u, 0x0u, 0x0u },
  61:Generated_Source\PSoC4/CAN.c ****         { 9u, 0x0u, 0x0u, 0x0u },
  62:Generated_Source\PSoC4/CAN.c ****         { 10u, 0x0u, 0x0u, 0x0u },
  63:Generated_Source\PSoC4/CAN.c ****         { 11u, 0x0u, 0x0u, 0x0u },
  64:Generated_Source\PSoC4/CAN.c ****         { 12u, 0x0u, 0x0u, 0x0u },
  65:Generated_Source\PSoC4/CAN.c ****         { 13u, 0x0u, 0x0u, 0x0u },
  66:Generated_Source\PSoC4/CAN.c ****         { 14u, 0x0u, 0x0u, 0x0u },
  67:Generated_Source\PSoC4/CAN.c ****         { 15u, 0x0u, 0x0u, 0x0u }
  68:Generated_Source\PSoC4/CAN.c ****     };
  69:Generated_Source\PSoC4/CAN.c **** 
  70:Generated_Source\PSoC4/CAN.c ****     static const CAN_TX_CFG CYCODE CAN_TXConfigStruct[] =
  71:Generated_Source\PSoC4/CAN.c ****     {
  72:Generated_Source\PSoC4/CAN.c ****         { 0u, 0x880008u, 0x0u },
  73:Generated_Source\PSoC4/CAN.c ****         { 1u, 0x880008u, 0x0u },
  74:Generated_Source\PSoC4/CAN.c ****         { 2u, 0x880008u, 0x0u },
  75:Generated_Source\PSoC4/CAN.c ****         { 3u, 0x880008u, 0x0u },
  76:Generated_Source\PSoC4/CAN.c ****         { 4u, 0x880008u, 0x0u },
  77:Generated_Source\PSoC4/CAN.c ****         { 5u, 0x880008u, 0x0u },
  78:Generated_Source\PSoC4/CAN.c ****         { 6u, 0x880008u, 0x0u },
  79:Generated_Source\PSoC4/CAN.c ****         { 7u, 0x880008u, 0x0u }
  80:Generated_Source\PSoC4/CAN.c ****     };
  81:Generated_Source\PSoC4/CAN.c **** 
  82:Generated_Source\PSoC4/CAN.c ****     uint8 result = CYRET_SUCCESS;
  83:Generated_Source\PSoC4/CAN.c ****     uint8 i;
  84:Generated_Source\PSoC4/CAN.c **** 
  85:Generated_Source\PSoC4/CAN.c ****     /* Initialize TX mailboxes */
  86:Generated_Source\PSoC4/CAN.c ****     for (i = 0u; i < CAN_NUMBER_OF_TX_MAILBOXES; i++)
  87:Generated_Source\PSoC4/CAN.c ****     {
ARM GAS  C:\Users\davis\AppData\Local\Temp\cco880hz.s 			page 3


  88:Generated_Source\PSoC4/CAN.c ****         if (CAN_TxBufConfig((const CAN_TX_CFG *)
  89:Generated_Source\PSoC4/CAN.c ****             (&CAN_TXConfigStruct[i])) != CYRET_SUCCESS)
  90:Generated_Source\PSoC4/CAN.c ****         {
  91:Generated_Source\PSoC4/CAN.c ****             result = CAN_FAIL;
  92:Generated_Source\PSoC4/CAN.c ****             break;
  93:Generated_Source\PSoC4/CAN.c ****         }
  94:Generated_Source\PSoC4/CAN.c ****     }
  95:Generated_Source\PSoC4/CAN.c **** 
  96:Generated_Source\PSoC4/CAN.c ****     if (result == CYRET_SUCCESS)
  97:Generated_Source\PSoC4/CAN.c ****     {
  98:Generated_Source\PSoC4/CAN.c ****         /* Initialize RX mailboxes */
  99:Generated_Source\PSoC4/CAN.c ****         for (i = 0u; i < CAN_NUMBER_OF_RX_MAILBOXES; i++)
 100:Generated_Source\PSoC4/CAN.c ****         {
 101:Generated_Source\PSoC4/CAN.c ****             if (CAN_RxBufConfig((const CAN_RX_CFG *)
 102:Generated_Source\PSoC4/CAN.c ****                 (&CAN_RXConfigStruct[i])) != CYRET_SUCCESS)
 103:Generated_Source\PSoC4/CAN.c ****             {
 104:Generated_Source\PSoC4/CAN.c ****                 result = CAN_FAIL;
 105:Generated_Source\PSoC4/CAN.c ****                 break;
 106:Generated_Source\PSoC4/CAN.c ****             }
 107:Generated_Source\PSoC4/CAN.c ****         }
 108:Generated_Source\PSoC4/CAN.c ****     }
 109:Generated_Source\PSoC4/CAN.c **** 
 110:Generated_Source\PSoC4/CAN.c ****     return (result);
 111:Generated_Source\PSoC4/CAN.c **** }
 112:Generated_Source\PSoC4/CAN.c **** 
 113:Generated_Source\PSoC4/CAN.c **** 
 114:Generated_Source\PSoC4/CAN.c **** /*******************************************************************************
 115:Generated_Source\PSoC4/CAN.c **** * FUNCTION NAME:   CAN_Init
 116:Generated_Source\PSoC4/CAN.c **** ********************************************************************************
 117:Generated_Source\PSoC4/CAN.c **** *
 118:Generated_Source\PSoC4/CAN.c **** * Summary:
 119:Generated_Source\PSoC4/CAN.c **** *  Inits/Restores default CAN configuration provided by the customizer.
 120:Generated_Source\PSoC4/CAN.c **** *
 121:Generated_Source\PSoC4/CAN.c **** * Parameters:
 122:Generated_Source\PSoC4/CAN.c **** *  None.
 123:Generated_Source\PSoC4/CAN.c **** *
 124:Generated_Source\PSoC4/CAN.c **** * Return:
 125:Generated_Source\PSoC4/CAN.c **** *  The indication whether the configuration has been accepted or rejected.
 126:Generated_Source\PSoC4/CAN.c **** *   Define                             Description
 127:Generated_Source\PSoC4/CAN.c **** *    CYRET_SUCCESS                      The function passed successfully
 128:Generated_Source\PSoC4/CAN.c **** *    CAN_FAIL              The function failed
 129:Generated_Source\PSoC4/CAN.c **** *
 130:Generated_Source\PSoC4/CAN.c **** * Side Effects:
 131:Generated_Source\PSoC4/CAN.c **** *  All the registers will be reset to their initial values. This will
 132:Generated_Source\PSoC4/CAN.c **** *  re-initialize the component with the following exceptions - it will not clear
 133:Generated_Source\PSoC4/CAN.c **** *  data from the mailboxes.
 134:Generated_Source\PSoC4/CAN.c **** *  Enable power to the CAN Core.
 135:Generated_Source\PSoC4/CAN.c **** *
 136:Generated_Source\PSoC4/CAN.c **** *******************************************************************************/
 137:Generated_Source\PSoC4/CAN.c **** uint8 CAN_Init(void) 
 138:Generated_Source\PSoC4/CAN.c **** {
 139:Generated_Source\PSoC4/CAN.c ****     uint32 timeout = CAN_MODE_STATE_STOP_TIMEOUT;
 140:Generated_Source\PSoC4/CAN.c ****     uint8 result = CAN_FAIL;
 141:Generated_Source\PSoC4/CAN.c ****     uint8 localResult = CAN_FAIL;
 142:Generated_Source\PSoC4/CAN.c **** 
 143:Generated_Source\PSoC4/CAN.c ****     #if (CY_PSOC3 || CY_PSOC5)
 144:Generated_Source\PSoC4/CAN.c ****         uint8 enableInterrupts;
ARM GAS  C:\Users\davis\AppData\Local\Temp\cco880hz.s 			page 4


 145:Generated_Source\PSoC4/CAN.c **** 
 146:Generated_Source\PSoC4/CAN.c ****         enableInterrupts = CyEnterCriticalSection();
 147:Generated_Source\PSoC4/CAN.c ****         /* Enable CAN block in Active mode */
 148:Generated_Source\PSoC4/CAN.c ****         CAN_PM_ACT_CFG_REG |= CAN_ACT_PWR_EN;
 149:Generated_Source\PSoC4/CAN.c ****         /* Enable CAN block in Alternate Active (Standby) mode */
 150:Generated_Source\PSoC4/CAN.c ****         CAN_PM_STBY_CFG_REG |= CAN_STBY_PWR_EN;
 151:Generated_Source\PSoC4/CAN.c ****         CyExitCriticalSection(enableInterrupts);
 152:Generated_Source\PSoC4/CAN.c **** 
 153:Generated_Source\PSoC4/CAN.c ****         /* Sets CAN controller to stop mode */
 154:Generated_Source\PSoC4/CAN.c ****         CAN_CMD_REG.byte[0u] &= (uint8) (~CAN_MODE_MASK);
 155:Generated_Source\PSoC4/CAN.c **** 
 156:Generated_Source\PSoC4/CAN.c ****         /* Timeout for CAN state machine to switch mode to Stop */
 157:Generated_Source\PSoC4/CAN.c ****         while ((timeout != 0u) && ((CAN_CMD_REG.byte[0u] & CAN_MODE_MASK) != 0u))
 158:Generated_Source\PSoC4/CAN.c ****         {
 159:Generated_Source\PSoC4/CAN.c ****             timeout--;
 160:Generated_Source\PSoC4/CAN.c ****         }
 161:Generated_Source\PSoC4/CAN.c ****     #else  /* CY_PSOC4 */
 162:Generated_Source\PSoC4/CAN.c ****         /* Enable CAN IP Block */
 163:Generated_Source\PSoC4/CAN.c ****         CAN_CNTL_REG = CAN_IP_ENABLE;
 164:Generated_Source\PSoC4/CAN.c **** 
 165:Generated_Source\PSoC4/CAN.c ****         /* Sets CAN controller to stop mode */
 166:Generated_Source\PSoC4/CAN.c ****         CAN_CMD_REG &= (uint32) (~((uint32) CAN_MODE_MASK));
 167:Generated_Source\PSoC4/CAN.c **** 
 168:Generated_Source\PSoC4/CAN.c ****         /* Timeout for CAN state machine to switch mode to Stop */
 169:Generated_Source\PSoC4/CAN.c ****         while ((timeout != 0u) && ((CAN_CMD_REG & CAN_MODE_MASK) != 0u))
 170:Generated_Source\PSoC4/CAN.c ****         {
 171:Generated_Source\PSoC4/CAN.c ****             timeout--;
 172:Generated_Source\PSoC4/CAN.c ****         }
 173:Generated_Source\PSoC4/CAN.c ****     #endif /* CY_PSOC3 || CY_PSOC5 */
 174:Generated_Source\PSoC4/CAN.c ****         if (timeout != 0u)
 175:Generated_Source\PSoC4/CAN.c ****         {
 176:Generated_Source\PSoC4/CAN.c ****             /* Disable Interrupt. */
 177:Generated_Source\PSoC4/CAN.c ****         CyIntDisable(CAN_ISR_NUMBER);
 178:Generated_Source\PSoC4/CAN.c **** 
 179:Generated_Source\PSoC4/CAN.c ****         /* Set the ISR to point to the CAN_ISR Interrupt. */
 180:Generated_Source\PSoC4/CAN.c ****         (void) CyIntSetVector(CAN_ISR_NUMBER, & CAN_ISR);
 181:Generated_Source\PSoC4/CAN.c **** 
 182:Generated_Source\PSoC4/CAN.c ****         /* Set the priority. */
 183:Generated_Source\PSoC4/CAN.c ****         CyIntSetPriority(CAN_ISR_NUMBER, CAN_ISR_PRIORITY);
 184:Generated_Source\PSoC4/CAN.c **** 
 185:Generated_Source\PSoC4/CAN.c ****             if (CAN_SetPreScaler(CAN_BITRATE) == CYRET_SUCCESS)
 186:Generated_Source\PSoC4/CAN.c ****             {
 187:Generated_Source\PSoC4/CAN.c ****                 if (CAN_SetArbiter(CAN_ARBITER) == CYRET_SUCCESS)
 188:Generated_Source\PSoC4/CAN.c ****                 {
 189:Generated_Source\PSoC4/CAN.c ****                     #if (!(CY_PSOC3 || CY_PSOC5))
 190:Generated_Source\PSoC4/CAN.c ****                         if (CAN_SetSwapDataEndianness(CAN_SWAP_DATA_END) == CYRET_SUCCESS)
 191:Generated_Source\PSoC4/CAN.c ****                     #endif /* (!(CY_PSOC3 || CY_PSOC5)) */
 192:Generated_Source\PSoC4/CAN.c ****                         {
 193:Generated_Source\PSoC4/CAN.c ****                             if (CAN_SetTsegSample(CAN_CFG_REG_TSEG1,
 194:Generated_Source\PSoC4/CAN.c ****                                 CAN_CFG_REG_TSEG2, CAN_CFG_REG_SJW,
 195:Generated_Source\PSoC4/CAN.c ****                                 CAN_SAMPLING_MODE) == CYRET_SUCCESS)
 196:Generated_Source\PSoC4/CAN.c ****                             {
 197:Generated_Source\PSoC4/CAN.c ****                                 if (CAN_SetRestartType(CAN_RESET_TYPE) == CYRET_SUCCESS)
 198:Generated_Source\PSoC4/CAN.c ****                                 {
 199:Generated_Source\PSoC4/CAN.c ****                                     if (CAN_SetEdgeMode(CAN_SYNC_EDGE) == CYRET_SUCCESS)
 200:Generated_Source\PSoC4/CAN.c ****                                     {
 201:Generated_Source\PSoC4/CAN.c ****                                         localResult = CYRET_SUCCESS;
ARM GAS  C:\Users\davis\AppData\Local\Temp\cco880hz.s 			page 5


 202:Generated_Source\PSoC4/CAN.c ****                                     }
 203:Generated_Source\PSoC4/CAN.c ****                                 }
 204:Generated_Source\PSoC4/CAN.c ****                             }
 205:Generated_Source\PSoC4/CAN.c ****                         }
 206:Generated_Source\PSoC4/CAN.c ****                 }
 207:Generated_Source\PSoC4/CAN.c ****             }
 208:Generated_Source\PSoC4/CAN.c **** 
 209:Generated_Source\PSoC4/CAN.c ****             if (localResult == CYRET_SUCCESS)
 210:Generated_Source\PSoC4/CAN.c ****             {
 211:Generated_Source\PSoC4/CAN.c ****                 if (CAN_RxTxBuffersConfig() == CYRET_SUCCESS)
 212:Generated_Source\PSoC4/CAN.c ****                 {
 213:Generated_Source\PSoC4/CAN.c ****                     /* Write IRQ Mask */
 214:Generated_Source\PSoC4/CAN.c ****                     if (CAN_SetIrqMask(CAN_INIT_INTERRUPT_MASK) ==
 215:Generated_Source\PSoC4/CAN.c ****                         CYRET_SUCCESS)
 216:Generated_Source\PSoC4/CAN.c ****                     {
 217:Generated_Source\PSoC4/CAN.c ****                         /* Set CAN Operation Mode to Active mode always */
 218:Generated_Source\PSoC4/CAN.c ****                         #if (CY_PSOC3 || CY_PSOC5)
 219:Generated_Source\PSoC4/CAN.c ****                             CAN_CMD_REG.byte[0u] = CAN_INITIAL_MODE;
 220:Generated_Source\PSoC4/CAN.c ****                             if ((CAN_CMD_REG.byte[0u] & CAN_MODE_MASK) == 0u)
 221:Generated_Source\PSoC4/CAN.c ****                         #else  /* CY_PSOC4 */
 222:Generated_Source\PSoC4/CAN.c ****                             CAN_CMD_REG &= (uint32) (~((uint32) CAN_OPMODE_FIELD_MASK));
 223:Generated_Source\PSoC4/CAN.c ****                             if ((CAN_CMD_REG & CAN_OPMODE_FIELD_MASK) == 0u)
 224:Generated_Source\PSoC4/CAN.c ****                         #endif /* CY_PSOC3 || CY_PSOC5 */
 225:Generated_Source\PSoC4/CAN.c ****                             {
 226:Generated_Source\PSoC4/CAN.c ****                                 result = CYRET_SUCCESS;
 227:Generated_Source\PSoC4/CAN.c ****                             }
 228:Generated_Source\PSoC4/CAN.c ****                     }
 229:Generated_Source\PSoC4/CAN.c ****                 }
 230:Generated_Source\PSoC4/CAN.c ****             }
 231:Generated_Source\PSoC4/CAN.c ****         }
 232:Generated_Source\PSoC4/CAN.c **** 
 233:Generated_Source\PSoC4/CAN.c ****     return (result);
 234:Generated_Source\PSoC4/CAN.c **** }
 235:Generated_Source\PSoC4/CAN.c **** 
 236:Generated_Source\PSoC4/CAN.c **** 
 237:Generated_Source\PSoC4/CAN.c **** /*******************************************************************************
 238:Generated_Source\PSoC4/CAN.c **** * Function Name: CAN_Enable
 239:Generated_Source\PSoC4/CAN.c **** ********************************************************************************
 240:Generated_Source\PSoC4/CAN.c **** *
 241:Generated_Source\PSoC4/CAN.c **** * Summary:
 242:Generated_Source\PSoC4/CAN.c **** *  This function enables the CAN Component and ISR of CAN Component.
 243:Generated_Source\PSoC4/CAN.c **** *
 244:Generated_Source\PSoC4/CAN.c **** * Parameters:
 245:Generated_Source\PSoC4/CAN.c **** *  None.
 246:Generated_Source\PSoC4/CAN.c **** *
 247:Generated_Source\PSoC4/CAN.c **** * Return:
 248:Generated_Source\PSoC4/CAN.c **** *  The indication whether the register is written and verified.
 249:Generated_Source\PSoC4/CAN.c **** *   Define                             Description
 250:Generated_Source\PSoC4/CAN.c **** *    CYRET_SUCCESS                      The function passed successfully
 251:Generated_Source\PSoC4/CAN.c **** *    CAN_FAIL              The function failed
 252:Generated_Source\PSoC4/CAN.c **** *
 253:Generated_Source\PSoC4/CAN.c **** *******************************************************************************/
 254:Generated_Source\PSoC4/CAN.c **** uint8 CAN_Enable(void) 
 255:Generated_Source\PSoC4/CAN.c **** {
 256:Generated_Source\PSoC4/CAN.c ****     uint32 timeout = CAN_MODE_STATE_RUN_TIMEOUT;
 257:Generated_Source\PSoC4/CAN.c ****     uint8 result = CAN_FAIL;
 258:Generated_Source\PSoC4/CAN.c **** 
ARM GAS  C:\Users\davis\AppData\Local\Temp\cco880hz.s 			page 6


 259:Generated_Source\PSoC4/CAN.c ****     #if (CY_PSOC3 || CY_PSOC5)
 260:Generated_Source\PSoC4/CAN.c ****         uint8 enableInterrupts;
 261:Generated_Source\PSoC4/CAN.c **** 
 262:Generated_Source\PSoC4/CAN.c ****         enableInterrupts = CyEnterCriticalSection();
 263:Generated_Source\PSoC4/CAN.c **** 
 264:Generated_Source\PSoC4/CAN.c ****         /* Enable CAN block in Active mode */
 265:Generated_Source\PSoC4/CAN.c ****         CAN_PM_ACT_CFG_REG |= CAN_ACT_PWR_EN;
 266:Generated_Source\PSoC4/CAN.c **** 
 267:Generated_Source\PSoC4/CAN.c ****         /* Enable CAN block in Alternate Active (Standby) mode */
 268:Generated_Source\PSoC4/CAN.c ****         CAN_PM_STBY_CFG_REG |= CAN_STBY_PWR_EN;
 269:Generated_Source\PSoC4/CAN.c **** 
 270:Generated_Source\PSoC4/CAN.c ****         CyExitCriticalSection(enableInterrupts);
 271:Generated_Source\PSoC4/CAN.c ****     #endif /* CY_PSOC3 || CY_PSOC5 */
 272:Generated_Source\PSoC4/CAN.c **** 
 273:Generated_Source\PSoC4/CAN.c ****     /* Clear interrupts status */
 274:Generated_Source\PSoC4/CAN.c ****     CY_SET_REG32(CAN_INT_SR_PTR, CAN_INIT_INTERRUPT_MASK);
 275:Generated_Source\PSoC4/CAN.c ****     (void) CAN_GlobalIntEnable();
 276:Generated_Source\PSoC4/CAN.c **** 
 277:Generated_Source\PSoC4/CAN.c ****     /* Enable isr */
 278:Generated_Source\PSoC4/CAN.c ****     CyIntEnable(CAN_ISR_NUMBER);
 279:Generated_Source\PSoC4/CAN.c **** 
 280:Generated_Source\PSoC4/CAN.c ****     /* Sets CAN controller to run mode */
 281:Generated_Source\PSoC4/CAN.c ****     CY_SET_REG32(CAN_CMD_PTR, CY_GET_REG32(CAN_CMD_PTR) | CAN_MODE_MASK);
 282:Generated_Source\PSoC4/CAN.c **** 
 283:Generated_Source\PSoC4/CAN.c ****     /* Timeout for CAN state machine to switch mode to Run */
 284:Generated_Source\PSoC4/CAN.c ****     while ((timeout != 0u) && ((CY_GET_REG32(CAN_CMD_PTR) & CAN_MODE_MASK) == 0u))
 285:Generated_Source\PSoC4/CAN.c ****     {
 286:Generated_Source\PSoC4/CAN.c ****         timeout--;
 287:Generated_Source\PSoC4/CAN.c ****     }
 288:Generated_Source\PSoC4/CAN.c **** 
 289:Generated_Source\PSoC4/CAN.c ****     if (timeout != 0u)
 290:Generated_Source\PSoC4/CAN.c ****     {
 291:Generated_Source\PSoC4/CAN.c ****         result = CYRET_SUCCESS;
 292:Generated_Source\PSoC4/CAN.c ****     }
 293:Generated_Source\PSoC4/CAN.c **** 
 294:Generated_Source\PSoC4/CAN.c ****     return (result);
 295:Generated_Source\PSoC4/CAN.c **** }
 296:Generated_Source\PSoC4/CAN.c **** 
 297:Generated_Source\PSoC4/CAN.c **** 
 298:Generated_Source\PSoC4/CAN.c **** /*******************************************************************************
 299:Generated_Source\PSoC4/CAN.c **** * FUNCTION NAME:   CAN_Start
 300:Generated_Source\PSoC4/CAN.c **** ********************************************************************************
 301:Generated_Source\PSoC4/CAN.c **** *
 302:Generated_Source\PSoC4/CAN.c **** * Summary:
 303:Generated_Source\PSoC4/CAN.c **** *  This function sets CAN Component into the Run mode. Starts Rate Counter if
 304:Generated_Source\PSoC4/CAN.c **** *  polling mailboxes are available.
 305:Generated_Source\PSoC4/CAN.c **** *
 306:Generated_Source\PSoC4/CAN.c **** * Parameters:
 307:Generated_Source\PSoC4/CAN.c **** *  None.
 308:Generated_Source\PSoC4/CAN.c **** *
 309:Generated_Source\PSoC4/CAN.c **** * Return:
 310:Generated_Source\PSoC4/CAN.c **** *  The indication whether the register is written and verified.
 311:Generated_Source\PSoC4/CAN.c **** *   Define                             Description
 312:Generated_Source\PSoC4/CAN.c **** *    CYRET_SUCCESS                      The function passed successfully
 313:Generated_Source\PSoC4/CAN.c **** *    CAN_FAIL              The function failed
 314:Generated_Source\PSoC4/CAN.c **** *
 315:Generated_Source\PSoC4/CAN.c **** * Global variables:
ARM GAS  C:\Users\davis\AppData\Local\Temp\cco880hz.s 			page 7


 316:Generated_Source\PSoC4/CAN.c **** *  CAN_initVar - used to check the initial configuration, modified
 317:Generated_Source\PSoC4/CAN.c **** *  on the first function call.
 318:Generated_Source\PSoC4/CAN.c **** *
 319:Generated_Source\PSoC4/CAN.c **** * Reentrant:
 320:Generated_Source\PSoC4/CAN.c **** *  No.
 321:Generated_Source\PSoC4/CAN.c **** *
 322:Generated_Source\PSoC4/CAN.c **** *******************************************************************************/
 323:Generated_Source\PSoC4/CAN.c **** uint8 CAN_Start(void) 
 324:Generated_Source\PSoC4/CAN.c **** {
 325:Generated_Source\PSoC4/CAN.c ****     uint8 result = CYRET_SUCCESS;
 326:Generated_Source\PSoC4/CAN.c **** 
 327:Generated_Source\PSoC4/CAN.c ****     if (CAN_initVar == 0u)
 328:Generated_Source\PSoC4/CAN.c ****     {
 329:Generated_Source\PSoC4/CAN.c ****         result = CAN_Init();
 330:Generated_Source\PSoC4/CAN.c ****     }
 331:Generated_Source\PSoC4/CAN.c **** 
 332:Generated_Source\PSoC4/CAN.c ****     if (result == CYRET_SUCCESS)
 333:Generated_Source\PSoC4/CAN.c ****     {
 334:Generated_Source\PSoC4/CAN.c ****         CAN_initVar = 1u;
 335:Generated_Source\PSoC4/CAN.c ****         result = CAN_Enable();
 336:Generated_Source\PSoC4/CAN.c ****     }
 337:Generated_Source\PSoC4/CAN.c **** 
 338:Generated_Source\PSoC4/CAN.c ****     return (result);
 339:Generated_Source\PSoC4/CAN.c **** }
 340:Generated_Source\PSoC4/CAN.c **** 
 341:Generated_Source\PSoC4/CAN.c **** 
 342:Generated_Source\PSoC4/CAN.c **** /*******************************************************************************
 343:Generated_Source\PSoC4/CAN.c **** * FUNCTION NAME:   CAN_Stop
 344:Generated_Source\PSoC4/CAN.c **** ********************************************************************************
 345:Generated_Source\PSoC4/CAN.c **** *
 346:Generated_Source\PSoC4/CAN.c **** * Summary:
 347:Generated_Source\PSoC4/CAN.c **** *  This function sets CAN Component into the Stop mode.
 348:Generated_Source\PSoC4/CAN.c **** *
 349:Generated_Source\PSoC4/CAN.c **** * Parameters:
 350:Generated_Source\PSoC4/CAN.c **** *  None.
 351:Generated_Source\PSoC4/CAN.c **** *
 352:Generated_Source\PSoC4/CAN.c **** * Return:
 353:Generated_Source\PSoC4/CAN.c **** *  The indication whether the register is written and verified.
 354:Generated_Source\PSoC4/CAN.c **** *   Define                             Description
 355:Generated_Source\PSoC4/CAN.c **** *    CYRET_SUCCESS                      The function passed successfully
 356:Generated_Source\PSoC4/CAN.c **** *    CAN_FAIL              The function failed
 357:Generated_Source\PSoC4/CAN.c **** *
 358:Generated_Source\PSoC4/CAN.c **** * Side Effects:
 359:Generated_Source\PSoC4/CAN.c **** *  Disable power to CAN Core in case of PSoC 3/5.
 360:Generated_Source\PSoC4/CAN.c **** *  Pending message in the Tx buffer of PSoC 3/5 will not be aborted on calling
 361:Generated_Source\PSoC4/CAN.c **** *  the CAN_Stop() API. User has to abort all pending messages
 362:Generated_Source\PSoC4/CAN.c **** *  before calling the CAN_Stop() function to make sure that the
 363:Generated_Source\PSoC4/CAN.c **** *  block stops all the message transmission immediately.
 364:Generated_Source\PSoC4/CAN.c **** *
 365:Generated_Source\PSoC4/CAN.c **** *******************************************************************************/
 366:Generated_Source\PSoC4/CAN.c **** uint8 CAN_Stop(void) 
 367:Generated_Source\PSoC4/CAN.c **** {
  28              		.loc 1 367 0
  29              		.cfi_startproc
  30              		@ args = 0, pretend = 0, frame = 0
  31              		@ frame_needed = 0, uses_anonymous_args = 0
  32 0000 10B5     		push	{r4, lr}
ARM GAS  C:\Users\davis\AppData\Local\Temp\cco880hz.s 			page 8


  33              		.cfi_def_cfa_offset 8
  34              		.cfi_offset 4, -8
  35              		.cfi_offset 14, -4
  36              	.LVL0:
 368:Generated_Source\PSoC4/CAN.c ****     uint32 timeout = CAN_MODE_STATE_STOP_TIMEOUT;
 369:Generated_Source\PSoC4/CAN.c ****     uint8 result = CAN_FAIL;
 370:Generated_Source\PSoC4/CAN.c **** 
 371:Generated_Source\PSoC4/CAN.c ****     #if (CY_PSOC3 || CY_PSOC5)
 372:Generated_Source\PSoC4/CAN.c ****         uint8 enableInterrupts;
 373:Generated_Source\PSoC4/CAN.c ****     #endif /* CY_PSOC3 || CY_PSOC5 */
 374:Generated_Source\PSoC4/CAN.c **** 
 375:Generated_Source\PSoC4/CAN.c ****     /* Set CAN controller to stop mode */
 376:Generated_Source\PSoC4/CAN.c ****     CY_SET_REG32(CAN_CMD_PTR, (CY_GET_REG32(CAN_CMD_PTR) &
  37              		.loc 1 376 0
  38 0002 0C4A     		ldr	r2, .L7
  39 0004 1368     		ldr	r3, [r2]
  40 0006 0121     		movs	r1, #1
  41 0008 8B43     		bics	r3, r1
  42 000a 1360     		str	r3, [r2]
 368:Generated_Source\PSoC4/CAN.c ****     uint32 timeout = CAN_MODE_STATE_STOP_TIMEOUT;
  43              		.loc 1 368 0
  44 000c F023     		movs	r3, #240
  45 000e 1B02     		lsls	r3, r3, #8
 377:Generated_Source\PSoC4/CAN.c ****                                             ((uint32) (~((uint32)CAN_MODE_MASK)))));
 378:Generated_Source\PSoC4/CAN.c **** 
 379:Generated_Source\PSoC4/CAN.c ****     /* Timeout for CAN state machine to switch mode to Stop */
 380:Generated_Source\PSoC4/CAN.c ****     while ((timeout != 0u) && ((CY_GET_REG32(CAN_CMD_PTR) & CAN_MODE_MASK) != 0u))
  46              		.loc 1 380 0
  47 0010 00E0     		b	.L2
  48              	.LVL1:
  49              	.L4:
 381:Generated_Source\PSoC4/CAN.c ****     {
 382:Generated_Source\PSoC4/CAN.c ****         timeout--;
  50              		.loc 1 382 0
  51 0012 013B     		subs	r3, r3, #1
  52              	.LVL2:
  53              	.L2:
 380:Generated_Source\PSoC4/CAN.c ****     {
  54              		.loc 1 380 0
  55 0014 002B     		cmp	r3, #0
  56 0016 03D0     		beq	.L3
 380:Generated_Source\PSoC4/CAN.c ****     {
  57              		.loc 1 380 0 is_stmt 0 discriminator 1
  58 0018 064A     		ldr	r2, .L7
  59 001a 1268     		ldr	r2, [r2]
  60 001c D207     		lsls	r2, r2, #31
  61 001e F8D4     		bmi	.L4
  62              	.L3:
 383:Generated_Source\PSoC4/CAN.c ****     }
 384:Generated_Source\PSoC4/CAN.c **** 
 385:Generated_Source\PSoC4/CAN.c ****     /* Verify that bit is cleared */
 386:Generated_Source\PSoC4/CAN.c ****     if (timeout != 0u)
  63              		.loc 1 386 0 is_stmt 1
  64 0020 002B     		cmp	r3, #0
  65 0022 04D0     		beq	.L6
  66              	.LVL3:
 387:Generated_Source\PSoC4/CAN.c ****     {
ARM GAS  C:\Users\davis\AppData\Local\Temp\cco880hz.s 			page 9


 388:Generated_Source\PSoC4/CAN.c ****         result = CYRET_SUCCESS;
 389:Generated_Source\PSoC4/CAN.c **** 
 390:Generated_Source\PSoC4/CAN.c ****         /* Disable isr */
 391:Generated_Source\PSoC4/CAN.c ****     CyIntDisable(CAN_ISR_NUMBER);
  67              		.loc 1 391 0
  68 0024 1D20     		movs	r0, #29
  69 0026 FFF7FEFF 		bl	CyIntDisable
  70              	.LVL4:
 388:Generated_Source\PSoC4/CAN.c **** 
  71              		.loc 1 388 0
  72 002a 0020     		movs	r0, #0
  73 002c 00E0     		b	.L5
  74              	.LVL5:
  75              	.L6:
 369:Generated_Source\PSoC4/CAN.c **** 
  76              		.loc 1 369 0
  77 002e 0120     		movs	r0, #1
  78              	.LVL6:
  79              	.L5:
 392:Generated_Source\PSoC4/CAN.c **** 
 393:Generated_Source\PSoC4/CAN.c ****         #if (CY_PSOC3 || CY_PSOC5)
 394:Generated_Source\PSoC4/CAN.c ****             enableInterrupts = CyEnterCriticalSection();
 395:Generated_Source\PSoC4/CAN.c **** 
 396:Generated_Source\PSoC4/CAN.c ****             /* Disable CAN block in Active mode */
 397:Generated_Source\PSoC4/CAN.c ****             CAN_PM_ACT_CFG_REG &= (uint8) (~CAN_ACT_PWR_EN);
 398:Generated_Source\PSoC4/CAN.c **** 
 399:Generated_Source\PSoC4/CAN.c ****             /* Disable CAN block in Alternate Active (Standby) mode template */
 400:Generated_Source\PSoC4/CAN.c ****             CAN_PM_STBY_CFG_REG &= (uint8) (~CAN_STBY_PWR_EN);
 401:Generated_Source\PSoC4/CAN.c **** 
 402:Generated_Source\PSoC4/CAN.c ****             CyExitCriticalSection(enableInterrupts);
 403:Generated_Source\PSoC4/CAN.c ****         #endif /* CY_PSOC3 || CY_PSOC5 */
 404:Generated_Source\PSoC4/CAN.c ****     }
 405:Generated_Source\PSoC4/CAN.c **** 
 406:Generated_Source\PSoC4/CAN.c ****     return (result);
 407:Generated_Source\PSoC4/CAN.c **** }
  80              		.loc 1 407 0
  81              		@ sp needed
  82 0030 10BD     		pop	{r4, pc}
  83              	.L8:
  84 0032 C046     		.align	2
  85              	.L7:
  86 0034 10002F40 		.word	1076822032
  87              		.cfi_endproc
  88              	.LFE5:
  89              		.size	CAN_Stop, .-CAN_Stop
  90              		.section	.text.CAN_GlobalIntEnable,"ax",%progbits
  91              		.align	2
  92              		.global	CAN_GlobalIntEnable
  93              		.code	16
  94              		.thumb_func
  95              		.type	CAN_GlobalIntEnable, %function
  96              	CAN_GlobalIntEnable:
  97              	.LFB6:
 408:Generated_Source\PSoC4/CAN.c **** 
 409:Generated_Source\PSoC4/CAN.c **** 
 410:Generated_Source\PSoC4/CAN.c **** /*******************************************************************************
 411:Generated_Source\PSoC4/CAN.c **** * FUNCTION NAME:   CAN_GlobalIntEnable
ARM GAS  C:\Users\davis\AppData\Local\Temp\cco880hz.s 			page 10


 412:Generated_Source\PSoC4/CAN.c **** ********************************************************************************
 413:Generated_Source\PSoC4/CAN.c **** *
 414:Generated_Source\PSoC4/CAN.c **** * Summary:
 415:Generated_Source\PSoC4/CAN.c **** *  This function enables Global Interrupts from CAN Core.
 416:Generated_Source\PSoC4/CAN.c **** *
 417:Generated_Source\PSoC4/CAN.c **** * Parameters:
 418:Generated_Source\PSoC4/CAN.c **** *  None.
 419:Generated_Source\PSoC4/CAN.c **** *
 420:Generated_Source\PSoC4/CAN.c **** * Return:
 421:Generated_Source\PSoC4/CAN.c **** *  The indication whether the register is written and verified.
 422:Generated_Source\PSoC4/CAN.c **** *   Define                             Description
 423:Generated_Source\PSoC4/CAN.c **** *    CYRET_SUCCESS                      The function passed successfully
 424:Generated_Source\PSoC4/CAN.c **** *    CAN_FAIL              The function failed
 425:Generated_Source\PSoC4/CAN.c **** *
 426:Generated_Source\PSoC4/CAN.c **** *******************************************************************************/
 427:Generated_Source\PSoC4/CAN.c **** uint8 CAN_GlobalIntEnable(void) 
 428:Generated_Source\PSoC4/CAN.c **** {
  98              		.loc 1 428 0
  99              		.cfi_startproc
 100              		@ args = 0, pretend = 0, frame = 0
 101              		@ frame_needed = 0, uses_anonymous_args = 0
 102              		@ link register save eliminated.
 103              	.LVL7:
 429:Generated_Source\PSoC4/CAN.c ****     uint8 result = CAN_FAIL;
 430:Generated_Source\PSoC4/CAN.c **** 
 431:Generated_Source\PSoC4/CAN.c ****     #if (CY_PSOC3 || CY_PSOC5)
 432:Generated_Source\PSoC4/CAN.c ****         CAN_INT_EN_REG.byte[0u] |= CAN_GLOBAL_INT_MASK;
 433:Generated_Source\PSoC4/CAN.c **** 
 434:Generated_Source\PSoC4/CAN.c ****         /* Verify that bit is set */
 435:Generated_Source\PSoC4/CAN.c ****         if ((CAN_INT_EN_REG.byte[0u] & CAN_GLOBAL_INT_MASK) != 0u)
 436:Generated_Source\PSoC4/CAN.c ****         {
 437:Generated_Source\PSoC4/CAN.c ****             result = CYRET_SUCCESS;
 438:Generated_Source\PSoC4/CAN.c ****         }
 439:Generated_Source\PSoC4/CAN.c ****     #else  /* CY_PSOC4 */
 440:Generated_Source\PSoC4/CAN.c ****         CAN_INT_EN_REG |= CAN_GLOBAL_INT_MASK;
 104              		.loc 1 440 0
 105 0000 054B     		ldr	r3, .L12
 106 0002 1A68     		ldr	r2, [r3]
 107 0004 0121     		movs	r1, #1
 108 0006 0A43     		orrs	r2, r1
 109 0008 1A60     		str	r2, [r3]
 441:Generated_Source\PSoC4/CAN.c ****         /* Verify that bit is set */
 442:Generated_Source\PSoC4/CAN.c ****         if ((CAN_INT_EN_REG & CAN_GLOBAL_INT_MASK) != 0u)
 110              		.loc 1 442 0
 111 000a 1B68     		ldr	r3, [r3]
 112 000c 1942     		tst	r1, r3
 113 000e 01D1     		bne	.L11
 429:Generated_Source\PSoC4/CAN.c ****     uint8 result = CAN_FAIL;
 114              		.loc 1 429 0
 115 0010 0120     		movs	r0, #1
 116 0012 00E0     		b	.L10
 117              	.L11:
 443:Generated_Source\PSoC4/CAN.c ****         {
 444:Generated_Source\PSoC4/CAN.c ****             result = CYRET_SUCCESS;
 118              		.loc 1 444 0
 119 0014 0020     		movs	r0, #0
 120              	.L10:
ARM GAS  C:\Users\davis\AppData\Local\Temp\cco880hz.s 			page 11


 121              	.LVL8:
 445:Generated_Source\PSoC4/CAN.c ****         }
 446:Generated_Source\PSoC4/CAN.c ****     #endif /* CY_PSOC3 || CY_PSOC5 */
 447:Generated_Source\PSoC4/CAN.c **** 
 448:Generated_Source\PSoC4/CAN.c ****     return (result);
 449:Generated_Source\PSoC4/CAN.c **** }
 122              		.loc 1 449 0
 123              		@ sp needed
 124 0016 7047     		bx	lr
 125              	.L13:
 126              		.align	2
 127              	.L12:
 128 0018 04002F40 		.word	1076822020
 129              		.cfi_endproc
 130              	.LFE6:
 131              		.size	CAN_GlobalIntEnable, .-CAN_GlobalIntEnable
 132              		.section	.text.CAN_Enable,"ax",%progbits
 133              		.align	2
 134              		.global	CAN_Enable
 135              		.code	16
 136              		.thumb_func
 137              		.type	CAN_Enable, %function
 138              	CAN_Enable:
 139              	.LFB3:
 255:Generated_Source\PSoC4/CAN.c ****     uint32 timeout = CAN_MODE_STATE_RUN_TIMEOUT;
 140              		.loc 1 255 0
 141              		.cfi_startproc
 142              		@ args = 0, pretend = 0, frame = 0
 143              		@ frame_needed = 0, uses_anonymous_args = 0
 144 0000 10B5     		push	{r4, lr}
 145              		.cfi_def_cfa_offset 8
 146              		.cfi_offset 4, -8
 147              		.cfi_offset 14, -4
 148              	.LVL9:
 274:Generated_Source\PSoC4/CAN.c ****     (void) CAN_GlobalIntEnable();
 149              		.loc 1 274 0
 150 0002 0E4A     		ldr	r2, .L20
 151 0004 0E4B     		ldr	r3, .L20+4
 152 0006 1A60     		str	r2, [r3]
 275:Generated_Source\PSoC4/CAN.c **** 
 153              		.loc 1 275 0
 154 0008 FFF7FEFF 		bl	CAN_GlobalIntEnable
 155              	.LVL10:
 278:Generated_Source\PSoC4/CAN.c **** 
 156              		.loc 1 278 0
 157 000c 1D20     		movs	r0, #29
 158 000e FFF7FEFF 		bl	CyIntEnable
 159              	.LVL11:
 281:Generated_Source\PSoC4/CAN.c **** 
 160              		.loc 1 281 0
 161 0012 0C4A     		ldr	r2, .L20+8
 162 0014 1168     		ldr	r1, [r2]
 163 0016 0123     		movs	r3, #1
 164 0018 0B43     		orrs	r3, r1
 165 001a 1360     		str	r3, [r2]
 256:Generated_Source\PSoC4/CAN.c ****     uint8 result = CAN_FAIL;
 166              		.loc 1 256 0
ARM GAS  C:\Users\davis\AppData\Local\Temp\cco880hz.s 			page 12


 167 001c 9023     		movs	r3, #144
 168 001e 5B01     		lsls	r3, r3, #5
 284:Generated_Source\PSoC4/CAN.c ****     {
 169              		.loc 1 284 0
 170 0020 00E0     		b	.L15
 171              	.LVL12:
 172              	.L17:
 286:Generated_Source\PSoC4/CAN.c ****     }
 173              		.loc 1 286 0
 174 0022 013B     		subs	r3, r3, #1
 175              	.LVL13:
 176              	.L15:
 284:Generated_Source\PSoC4/CAN.c ****     {
 177              		.loc 1 284 0
 178 0024 002B     		cmp	r3, #0
 179 0026 03D0     		beq	.L16
 284:Generated_Source\PSoC4/CAN.c ****     {
 180              		.loc 1 284 0 is_stmt 0 discriminator 1
 181 0028 064A     		ldr	r2, .L20+8
 182 002a 1268     		ldr	r2, [r2]
 183 002c D207     		lsls	r2, r2, #31
 184 002e F8D5     		bpl	.L17
 185              	.L16:
 289:Generated_Source\PSoC4/CAN.c ****     {
 186              		.loc 1 289 0 is_stmt 1
 187 0030 002B     		cmp	r3, #0
 188 0032 01D1     		bne	.L19
 257:Generated_Source\PSoC4/CAN.c **** 
 189              		.loc 1 257 0
 190 0034 0120     		movs	r0, #1
 191 0036 00E0     		b	.L18
 192              	.L19:
 291:Generated_Source\PSoC4/CAN.c ****     }
 193              		.loc 1 291 0
 194 0038 0020     		movs	r0, #0
 195              	.L18:
 196              	.LVL14:
 295:Generated_Source\PSoC4/CAN.c **** 
 197              		.loc 1 295 0
 198              		@ sp needed
 199 003a 10BD     		pop	{r4, pc}
 200              	.L21:
 201              		.align	2
 202              	.L20:
 203 003c 01100000 		.word	4097
 204 0040 00002F40 		.word	1076822016
 205 0044 10002F40 		.word	1076822032
 206              		.cfi_endproc
 207              	.LFE3:
 208              		.size	CAN_Enable, .-CAN_Enable
 209              		.section	.text.CAN_GlobalIntDisable,"ax",%progbits
 210              		.align	2
 211              		.global	CAN_GlobalIntDisable
 212              		.code	16
 213              		.thumb_func
 214              		.type	CAN_GlobalIntDisable, %function
 215              	CAN_GlobalIntDisable:
ARM GAS  C:\Users\davis\AppData\Local\Temp\cco880hz.s 			page 13


 216              	.LFB7:
 450:Generated_Source\PSoC4/CAN.c **** 
 451:Generated_Source\PSoC4/CAN.c **** 
 452:Generated_Source\PSoC4/CAN.c **** /*******************************************************************************
 453:Generated_Source\PSoC4/CAN.c **** * FUNCTION NAME:   CAN_GlobalIntDisable
 454:Generated_Source\PSoC4/CAN.c **** ********************************************************************************
 455:Generated_Source\PSoC4/CAN.c **** *
 456:Generated_Source\PSoC4/CAN.c **** * Summary:
 457:Generated_Source\PSoC4/CAN.c **** *  This function disables Global Interrupts from CAN Core.
 458:Generated_Source\PSoC4/CAN.c **** *
 459:Generated_Source\PSoC4/CAN.c **** * Parameters:
 460:Generated_Source\PSoC4/CAN.c **** *  None.
 461:Generated_Source\PSoC4/CAN.c **** *
 462:Generated_Source\PSoC4/CAN.c **** * Return:
 463:Generated_Source\PSoC4/CAN.c **** *  The indication whether the register is written and verified.
 464:Generated_Source\PSoC4/CAN.c **** *   Define                             Description
 465:Generated_Source\PSoC4/CAN.c **** *    CYRET_SUCCESS                      The function passed successfully
 466:Generated_Source\PSoC4/CAN.c **** *    CAN_FAIL              The function failed
 467:Generated_Source\PSoC4/CAN.c **** *
 468:Generated_Source\PSoC4/CAN.c **** *******************************************************************************/
 469:Generated_Source\PSoC4/CAN.c **** uint8 CAN_GlobalIntDisable(void) 
 470:Generated_Source\PSoC4/CAN.c **** {
 217              		.loc 1 470 0
 218              		.cfi_startproc
 219              		@ args = 0, pretend = 0, frame = 0
 220              		@ frame_needed = 0, uses_anonymous_args = 0
 221              		@ link register save eliminated.
 222              	.LVL15:
 471:Generated_Source\PSoC4/CAN.c ****     uint8 result = CAN_FAIL;
 472:Generated_Source\PSoC4/CAN.c **** 
 473:Generated_Source\PSoC4/CAN.c ****     #if (CY_PSOC3 || CY_PSOC5)
 474:Generated_Source\PSoC4/CAN.c ****         CAN_INT_EN_REG.byte[0u] &= (uint8) (~CAN_GLOBAL_INT_MASK);
 475:Generated_Source\PSoC4/CAN.c **** 
 476:Generated_Source\PSoC4/CAN.c ****         /* Verify that bit is cleared */
 477:Generated_Source\PSoC4/CAN.c ****         if ((CAN_INT_EN_REG.byte[0u] & CAN_GLOBAL_INT_MASK) == 0u)
 478:Generated_Source\PSoC4/CAN.c ****         {
 479:Generated_Source\PSoC4/CAN.c ****             result = CYRET_SUCCESS;
 480:Generated_Source\PSoC4/CAN.c ****         }
 481:Generated_Source\PSoC4/CAN.c ****     #else  /* CY_PSOC4 */
 482:Generated_Source\PSoC4/CAN.c ****         CAN_INT_EN_REG &= (uint32) (~((uint32) CAN_GLOBAL_INT_MASK));
 223              		.loc 1 482 0
 224 0000 054B     		ldr	r3, .L25
 225 0002 1A68     		ldr	r2, [r3]
 226 0004 0121     		movs	r1, #1
 227 0006 8A43     		bics	r2, r1
 228 0008 1A60     		str	r2, [r3]
 483:Generated_Source\PSoC4/CAN.c **** 
 484:Generated_Source\PSoC4/CAN.c ****         /* Verify that bit is cleared */
 485:Generated_Source\PSoC4/CAN.c ****         if ((CAN_INT_EN_REG & CAN_GLOBAL_INT_MASK) == 0u)
 229              		.loc 1 485 0
 230 000a 1B68     		ldr	r3, [r3]
 231 000c 1942     		tst	r1, r3
 232 000e 01D0     		beq	.L24
 471:Generated_Source\PSoC4/CAN.c ****     uint8 result = CAN_FAIL;
 233              		.loc 1 471 0
 234 0010 0120     		movs	r0, #1
 235 0012 00E0     		b	.L23
ARM GAS  C:\Users\davis\AppData\Local\Temp\cco880hz.s 			page 14


 236              	.L24:
 486:Generated_Source\PSoC4/CAN.c ****         {
 487:Generated_Source\PSoC4/CAN.c ****             result = CYRET_SUCCESS;
 237              		.loc 1 487 0
 238 0014 0020     		movs	r0, #0
 239              	.L23:
 240              	.LVL16:
 488:Generated_Source\PSoC4/CAN.c ****         }
 489:Generated_Source\PSoC4/CAN.c ****     #endif /* CY_PSOC3 || CY_PSOC5 */
 490:Generated_Source\PSoC4/CAN.c **** 
 491:Generated_Source\PSoC4/CAN.c ****     return (result);
 492:Generated_Source\PSoC4/CAN.c **** }
 241              		.loc 1 492 0
 242              		@ sp needed
 243 0016 7047     		bx	lr
 244              	.L26:
 245              		.align	2
 246              	.L25:
 247 0018 04002F40 		.word	1076822020
 248              		.cfi_endproc
 249              	.LFE7:
 250              		.size	CAN_GlobalIntDisable, .-CAN_GlobalIntDisable
 251              		.section	.text.CAN_SetPreScaler,"ax",%progbits
 252              		.align	2
 253              		.global	CAN_SetPreScaler
 254              		.code	16
 255              		.thumb_func
 256              		.type	CAN_SetPreScaler, %function
 257              	CAN_SetPreScaler:
 258              	.LFB8:
 493:Generated_Source\PSoC4/CAN.c **** 
 494:Generated_Source\PSoC4/CAN.c **** 
 495:Generated_Source\PSoC4/CAN.c **** /*******************************************************************************
 496:Generated_Source\PSoC4/CAN.c **** * FUNCTION NAME:   CAN_SetPreScaler
 497:Generated_Source\PSoC4/CAN.c **** ********************************************************************************
 498:Generated_Source\PSoC4/CAN.c **** *
 499:Generated_Source\PSoC4/CAN.c **** * Summary:
 500:Generated_Source\PSoC4/CAN.c **** *  This function sets PreScaler for generating the time quantum which defines
 501:Generated_Source\PSoC4/CAN.c **** *  the time quanta. The values between 0x0 and 0x7FFF are valid.
 502:Generated_Source\PSoC4/CAN.c **** *
 503:Generated_Source\PSoC4/CAN.c **** * Parameters:
 504:Generated_Source\PSoC4/CAN.c **** *  bitrate: PreScaler value.
 505:Generated_Source\PSoC4/CAN.c **** *   Value           Description
 506:Generated_Source\PSoC4/CAN.c **** *    0               One time quantum equals 1 clock cycle
 507:Generated_Source\PSoC4/CAN.c **** *    1               One time quantum equals 2 clock cycles
 508:Generated_Source\PSoC4/CAN.c **** *    ...             ...
 509:Generated_Source\PSoC4/CAN.c **** *    32767           One time quantum equals 32768 clock cycles
 510:Generated_Source\PSoC4/CAN.c **** *
 511:Generated_Source\PSoC4/CAN.c **** * Return:
 512:Generated_Source\PSoC4/CAN.c **** *  The indication whether the register is written and verified.
 513:Generated_Source\PSoC4/CAN.c **** *   Define                             Description
 514:Generated_Source\PSoC4/CAN.c **** *    CYRET_SUCCESS                      The function passed successfully
 515:Generated_Source\PSoC4/CAN.c **** *    CAN_FAIL              The function failed
 516:Generated_Source\PSoC4/CAN.c **** *    CAN_OUT_OF_RANGE      The function parameter is out of range
 517:Generated_Source\PSoC4/CAN.c **** *
 518:Generated_Source\PSoC4/CAN.c **** *******************************************************************************/
 519:Generated_Source\PSoC4/CAN.c **** uint8 CAN_SetPreScaler(uint16 bitrate) 
ARM GAS  C:\Users\davis\AppData\Local\Temp\cco880hz.s 			page 15


 520:Generated_Source\PSoC4/CAN.c **** {
 259              		.loc 1 520 0
 260              		.cfi_startproc
 261              		@ args = 0, pretend = 0, frame = 0
 262              		@ frame_needed = 0, uses_anonymous_args = 0
 263              		@ link register save eliminated.
 264              	.LVL17:
 521:Generated_Source\PSoC4/CAN.c ****     uint8 result = CAN_OUT_OF_RANGE;
 522:Generated_Source\PSoC4/CAN.c **** 
 523:Generated_Source\PSoC4/CAN.c ****     if (bitrate <= CAN_BITRATE_MASK)
 265              		.loc 1 523 0
 266 0000 03B2     		sxth	r3, r0
 267 0002 002B     		cmp	r3, #0
 268 0004 0DDB     		blt	.L29
 269              	.LVL18:
 524:Generated_Source\PSoC4/CAN.c ****     {
 525:Generated_Source\PSoC4/CAN.c ****         result = CAN_FAIL;
 526:Generated_Source\PSoC4/CAN.c **** 
 527:Generated_Source\PSoC4/CAN.c ****         #if (CY_PSOC3 || CY_PSOC5)
 528:Generated_Source\PSoC4/CAN.c ****             /* Set prescaler */
 529:Generated_Source\PSoC4/CAN.c ****             CY_SET_REG16((reg16 *) (&CAN_CFG_REG.byte[2u]), bitrate);
 530:Generated_Source\PSoC4/CAN.c **** 
 531:Generated_Source\PSoC4/CAN.c ****             /* Verify that prescaler is set */
 532:Generated_Source\PSoC4/CAN.c ****             if (CY_GET_REG16((reg16 *) (&CAN_CFG_REG.byte[2u])) == bitrate)
 533:Generated_Source\PSoC4/CAN.c ****             {
 534:Generated_Source\PSoC4/CAN.c ****                 result = CYRET_SUCCESS;
 535:Generated_Source\PSoC4/CAN.c ****             }
 536:Generated_Source\PSoC4/CAN.c ****         #else  /* CY_PSOC4 */
 537:Generated_Source\PSoC4/CAN.c ****             /* Set prescaler */
 538:Generated_Source\PSoC4/CAN.c ****             CAN_CFG_REG = (CAN_CFG_REG & (uint32) (~CAN_BITRATE_MASK_SHIFTED)) |
 270              		.loc 1 538 0
 271 0006 094A     		ldr	r2, .L31
 272 0008 1168     		ldr	r1, [r2]
 273 000a 094B     		ldr	r3, .L31+4
 274 000c 0B40     		ands	r3, r1
 539:Generated_Source\PSoC4/CAN.c ****             (uint32) ((uint32) bitrate << CAN_BITRATE_SHIFT);
 275              		.loc 1 539 0
 276 000e 0004     		lsls	r0, r0, #16
 277              	.LVL19:
 538:Generated_Source\PSoC4/CAN.c ****             (uint32) ((uint32) bitrate << CAN_BITRATE_SHIFT);
 278              		.loc 1 538 0
 279 0010 0343     		orrs	r3, r0
 280 0012 1360     		str	r3, [r2]
 540:Generated_Source\PSoC4/CAN.c **** 
 541:Generated_Source\PSoC4/CAN.c ****             /* Verify that prescaler is set */
 542:Generated_Source\PSoC4/CAN.c ****             if ((CAN_CFG_REG & CAN_BITRATE_MASK_SHIFTED) ==
 281              		.loc 1 542 0
 282 0014 1268     		ldr	r2, [r2]
 283 0016 074B     		ldr	r3, .L31+8
 284 0018 1340     		ands	r3, r2
 285 001a 9842     		cmp	r0, r3
 286 001c 03D0     		beq	.L30
 525:Generated_Source\PSoC4/CAN.c **** 
 287              		.loc 1 525 0
 288 001e 0120     		movs	r0, #1
 289 0020 02E0     		b	.L28
 290              	.LVL20:
ARM GAS  C:\Users\davis\AppData\Local\Temp\cco880hz.s 			page 16


 291              	.L29:
 521:Generated_Source\PSoC4/CAN.c **** 
 292              		.loc 1 521 0
 293 0022 0220     		movs	r0, #2
 294              	.LVL21:
 295 0024 00E0     		b	.L28
 296              	.LVL22:
 297              	.L30:
 543:Generated_Source\PSoC4/CAN.c ****                ((uint32) ((uint32) bitrate << CAN_BITRATE_SHIFT)))
 544:Generated_Source\PSoC4/CAN.c ****             {
 545:Generated_Source\PSoC4/CAN.c ****                 result = CYRET_SUCCESS;
 298              		.loc 1 545 0
 299 0026 0020     		movs	r0, #0
 300              	.LVL23:
 301              	.L28:
 546:Generated_Source\PSoC4/CAN.c ****             }
 547:Generated_Source\PSoC4/CAN.c ****         #endif /* CY_PSOC3 || CY_PSOC5 */
 548:Generated_Source\PSoC4/CAN.c ****     }
 549:Generated_Source\PSoC4/CAN.c **** 
 550:Generated_Source\PSoC4/CAN.c ****     return (result);
 551:Generated_Source\PSoC4/CAN.c **** }
 302              		.loc 1 551 0
 303              		@ sp needed
 304 0028 7047     		bx	lr
 305              	.L32:
 306 002a C046     		.align	2
 307              	.L31:
 308 002c 14002F40 		.word	1076822036
 309 0030 FFFF0080 		.word	-2147418113
 310 0034 0000FF7F 		.word	2147418112
 311              		.cfi_endproc
 312              	.LFE8:
 313              		.size	CAN_SetPreScaler, .-CAN_SetPreScaler
 314              		.section	.text.CAN_SetArbiter,"ax",%progbits
 315              		.align	2
 316              		.global	CAN_SetArbiter
 317              		.code	16
 318              		.thumb_func
 319              		.type	CAN_SetArbiter, %function
 320              	CAN_SetArbiter:
 321              	.LFB9:
 552:Generated_Source\PSoC4/CAN.c **** 
 553:Generated_Source\PSoC4/CAN.c **** 
 554:Generated_Source\PSoC4/CAN.c **** /*******************************************************************************
 555:Generated_Source\PSoC4/CAN.c **** * FUNCTION NAME:   CAN_SetArbiter
 556:Generated_Source\PSoC4/CAN.c **** ********************************************************************************
 557:Generated_Source\PSoC4/CAN.c **** *
 558:Generated_Source\PSoC4/CAN.c **** * Summary:
 559:Generated_Source\PSoC4/CAN.c **** *  This function sets the arbitration type for transmit mailboxes. The types of
 560:Generated_Source\PSoC4/CAN.c **** *  the arbiters are Round Robin and Fixed Priority. Values 0 and 1 are valid.
 561:Generated_Source\PSoC4/CAN.c **** *
 562:Generated_Source\PSoC4/CAN.c **** * Parameters:
 563:Generated_Source\PSoC4/CAN.c **** *  arbiter: The arbitration type for transmit mailboxes.
 564:Generated_Source\PSoC4/CAN.c **** *   Value                              Description
 565:Generated_Source\PSoC4/CAN.c **** *    CAN_ROUND_ROBIN       The Round Robin arbitration
 566:Generated_Source\PSoC4/CAN.c **** *    CAN_FIXED_PRIORITY    The Fixed Priority arbitration.
 567:Generated_Source\PSoC4/CAN.c **** *
ARM GAS  C:\Users\davis\AppData\Local\Temp\cco880hz.s 			page 17


 568:Generated_Source\PSoC4/CAN.c **** * Return:
 569:Generated_Source\PSoC4/CAN.c **** *  The indication whether the register is written and verified.
 570:Generated_Source\PSoC4/CAN.c **** *   Define                             Description
 571:Generated_Source\PSoC4/CAN.c **** *    CYRET_SUCCESS                      The function passed successfully
 572:Generated_Source\PSoC4/CAN.c **** *    CAN_FAIL              The function failed
 573:Generated_Source\PSoC4/CAN.c **** *
 574:Generated_Source\PSoC4/CAN.c **** *******************************************************************************/
 575:Generated_Source\PSoC4/CAN.c **** uint8 CAN_SetArbiter(uint8 arbiter) 
 576:Generated_Source\PSoC4/CAN.c **** {
 322              		.loc 1 576 0
 323              		.cfi_startproc
 324              		@ args = 0, pretend = 0, frame = 0
 325              		@ frame_needed = 0, uses_anonymous_args = 0
 326              		@ link register save eliminated.
 327              	.LVL24:
 577:Generated_Source\PSoC4/CAN.c ****     uint8 result = CAN_FAIL;
 578:Generated_Source\PSoC4/CAN.c **** 
 579:Generated_Source\PSoC4/CAN.c ****     #if (CY_PSOC3 || CY_PSOC5)
 580:Generated_Source\PSoC4/CAN.c ****         if (arbiter == CAN_ROUND_ROBIN)
 581:Generated_Source\PSoC4/CAN.c ****         {
 582:Generated_Source\PSoC4/CAN.c ****             CAN_CFG_REG.byte[1u] &= (uint8) (~CAN_ARBITRATION_MASK);
 583:Generated_Source\PSoC4/CAN.c **** 
 584:Generated_Source\PSoC4/CAN.c ****             /* Verify that bit is cleared */
 585:Generated_Source\PSoC4/CAN.c ****             if ((CAN_CFG_REG.byte[1u] & CAN_ARBITRATION_MASK) == 0u)
 586:Generated_Source\PSoC4/CAN.c ****             {
 587:Generated_Source\PSoC4/CAN.c ****                 result = CYRET_SUCCESS;
 588:Generated_Source\PSoC4/CAN.c ****             }
 589:Generated_Source\PSoC4/CAN.c ****         }
 590:Generated_Source\PSoC4/CAN.c ****         else    /* Fixed Priority */
 591:Generated_Source\PSoC4/CAN.c ****         {
 592:Generated_Source\PSoC4/CAN.c ****             CAN_CFG_REG.byte[1u] |= CAN_ARBITRATION_MASK;
 593:Generated_Source\PSoC4/CAN.c **** 
 594:Generated_Source\PSoC4/CAN.c ****             /* Verify that bit is set */
 595:Generated_Source\PSoC4/CAN.c ****             if ((CAN_CFG_REG.byte[1u] & CAN_ARBITRATION_MASK) != 0u)
 596:Generated_Source\PSoC4/CAN.c ****             {
 597:Generated_Source\PSoC4/CAN.c ****                 result = CYRET_SUCCESS;
 598:Generated_Source\PSoC4/CAN.c ****             }
 599:Generated_Source\PSoC4/CAN.c ****         }
 600:Generated_Source\PSoC4/CAN.c ****     #else  /* CY_PSOC4 */
 601:Generated_Source\PSoC4/CAN.c ****         if (arbiter == CAN_ROUND_ROBIN)
 328              		.loc 1 601 0
 329 0000 0028     		cmp	r0, #0
 330 0002 09D1     		bne	.L34
 602:Generated_Source\PSoC4/CAN.c ****         {
 603:Generated_Source\PSoC4/CAN.c ****             CAN_CFG_REG &= (uint32) (~CAN_ARBITRATION_MASK);
 331              		.loc 1 603 0
 332 0004 0C4B     		ldr	r3, .L38
 333 0006 1968     		ldr	r1, [r3]
 334 0008 0C4A     		ldr	r2, .L38+4
 335 000a 0A40     		ands	r2, r1
 336 000c 1A60     		str	r2, [r3]
 604:Generated_Source\PSoC4/CAN.c **** 
 605:Generated_Source\PSoC4/CAN.c ****             /* Verify that bit is cleared */
 606:Generated_Source\PSoC4/CAN.c ****             if ((CAN_CFG_REG & CAN_ARBITRATION_MASK) == 0u)
 337              		.loc 1 606 0
 338 000e 1B68     		ldr	r3, [r3]
 339 0010 DB04     		lsls	r3, r3, #19
ARM GAS  C:\Users\davis\AppData\Local\Temp\cco880hz.s 			page 18


 340 0012 0CD5     		bpl	.L36
 577:Generated_Source\PSoC4/CAN.c **** 
 341              		.loc 1 577 0
 342 0014 0130     		adds	r0, r0, #1
 343              	.LVL25:
 344 0016 0DE0     		b	.L35
 345              	.LVL26:
 346              	.L34:
 607:Generated_Source\PSoC4/CAN.c ****             {
 608:Generated_Source\PSoC4/CAN.c ****                 result = CYRET_SUCCESS;
 609:Generated_Source\PSoC4/CAN.c ****             }
 610:Generated_Source\PSoC4/CAN.c ****         }
 611:Generated_Source\PSoC4/CAN.c ****         else    /* Fixed priority */
 612:Generated_Source\PSoC4/CAN.c ****         {
 613:Generated_Source\PSoC4/CAN.c ****             CAN_CFG_REG |= CAN_ARBITRATION_MASK;
 347              		.loc 1 613 0
 348 0018 074B     		ldr	r3, .L38
 349 001a 1A68     		ldr	r2, [r3]
 350 001c 8021     		movs	r1, #128
 351 001e 4901     		lsls	r1, r1, #5
 352 0020 0A43     		orrs	r2, r1
 353 0022 1A60     		str	r2, [r3]
 614:Generated_Source\PSoC4/CAN.c **** 
 615:Generated_Source\PSoC4/CAN.c ****             /* Verify that bit is set */
 616:Generated_Source\PSoC4/CAN.c ****             if ((CAN_CFG_REG & CAN_ARBITRATION_MASK) != 0u)
 354              		.loc 1 616 0
 355 0024 1B68     		ldr	r3, [r3]
 356 0026 0B42     		tst	r3, r1
 357 0028 03D1     		bne	.L37
 577:Generated_Source\PSoC4/CAN.c **** 
 358              		.loc 1 577 0
 359 002a 0120     		movs	r0, #1
 360              	.LVL27:
 361 002c 02E0     		b	.L35
 362              	.LVL28:
 363              	.L36:
 608:Generated_Source\PSoC4/CAN.c ****             }
 364              		.loc 1 608 0
 365 002e 0020     		movs	r0, #0
 366              	.LVL29:
 367 0030 00E0     		b	.L35
 368              	.LVL30:
 369              	.L37:
 617:Generated_Source\PSoC4/CAN.c ****             {
 618:Generated_Source\PSoC4/CAN.c ****                 result = CYRET_SUCCESS;
 370              		.loc 1 618 0
 371 0032 0020     		movs	r0, #0
 372              	.LVL31:
 373              	.L35:
 619:Generated_Source\PSoC4/CAN.c ****             }
 620:Generated_Source\PSoC4/CAN.c ****         }
 621:Generated_Source\PSoC4/CAN.c ****     #endif /* CY_PSOC3 || CY_PSOC5 */
 622:Generated_Source\PSoC4/CAN.c **** 
 623:Generated_Source\PSoC4/CAN.c ****     return (result);
 624:Generated_Source\PSoC4/CAN.c **** }
 374              		.loc 1 624 0
 375              		@ sp needed
ARM GAS  C:\Users\davis\AppData\Local\Temp\cco880hz.s 			page 19


 376 0034 7047     		bx	lr
 377              	.L39:
 378 0036 C046     		.align	2
 379              	.L38:
 380 0038 14002F40 		.word	1076822036
 381 003c FFEFFFFF 		.word	-4097
 382              		.cfi_endproc
 383              	.LFE9:
 384              		.size	CAN_SetArbiter, .-CAN_SetArbiter
 385              		.section	.text.CAN_SetTsegSample,"ax",%progbits
 386              		.align	2
 387              		.global	CAN_SetTsegSample
 388              		.code	16
 389              		.thumb_func
 390              		.type	CAN_SetTsegSample, %function
 391              	CAN_SetTsegSample:
 392              	.LFB10:
 625:Generated_Source\PSoC4/CAN.c **** 
 626:Generated_Source\PSoC4/CAN.c **** 
 627:Generated_Source\PSoC4/CAN.c **** /*******************************************************************************
 628:Generated_Source\PSoC4/CAN.c **** * FUNCTION NAME: CAN_SetTsegSample
 629:Generated_Source\PSoC4/CAN.c **** ********************************************************************************
 630:Generated_Source\PSoC4/CAN.c **** *
 631:Generated_Source\PSoC4/CAN.c **** * Summary:
 632:Generated_Source\PSoC4/CAN.c **** *  This function configures: Time segment 1, Time segment 2, Sampling Mode
 633:Generated_Source\PSoC4/CAN.c **** *  and Synchronization Jump Width.
 634:Generated_Source\PSoC4/CAN.c **** *
 635:Generated_Source\PSoC4/CAN.c **** * Parameters:
 636:Generated_Source\PSoC4/CAN.c **** *  cfgTseg1: The length of time segment 1, values between 0x2 and 0xF are valid;
 637:Generated_Source\PSoC4/CAN.c **** *  cfgTseg2: The length of time segment 2, values between 0x1 and 0x7 are valid;
 638:Generated_Source\PSoC4/CAN.c **** *  sjw: Synchronization Jump Width, value between 0x0 and 0x3 are valid;
 639:Generated_Source\PSoC4/CAN.c **** *  sm: Sampling Mode.
 640:Generated_Source\PSoC4/CAN.c **** *   Define                               Description
 641:Generated_Source\PSoC4/CAN.c **** *   CAN_ONE_SAMPLE_POINT     One sampling point is used
 642:Generated_Source\PSoC4/CAN.c **** *   CAN_THREE_SAMPLE_POINTS  Three sampling points are used
 643:Generated_Source\PSoC4/CAN.c **** *
 644:Generated_Source\PSoC4/CAN.c **** * Return:
 645:Generated_Source\PSoC4/CAN.c **** *  The indication whether the register is written and verified.
 646:Generated_Source\PSoC4/CAN.c **** *   Define                             Description
 647:Generated_Source\PSoC4/CAN.c **** *    CYRET_SUCCESS                      The function passed successfully
 648:Generated_Source\PSoC4/CAN.c **** *    CAN_FAIL              The function failed
 649:Generated_Source\PSoC4/CAN.c **** *    CAN_OUT_OF_RANGE      The function parameter is out of range
 650:Generated_Source\PSoC4/CAN.c **** *
 651:Generated_Source\PSoC4/CAN.c **** *******************************************************************************/
 652:Generated_Source\PSoC4/CAN.c **** uint8 CAN_SetTsegSample(uint8 cfgTseg1, uint8 cfgTseg2, uint8 sjw, uint8 sm)
 653:Generated_Source\PSoC4/CAN.c ****                                      
 654:Generated_Source\PSoC4/CAN.c **** {
 393              		.loc 1 654 0
 394              		.cfi_startproc
 395              		@ args = 0, pretend = 0, frame = 0
 396              		@ frame_needed = 0, uses_anonymous_args = 0
 397              	.LVL32:
 398 0000 70B5     		push	{r4, r5, r6, lr}
 399              		.cfi_def_cfa_offset 16
 400              		.cfi_offset 4, -16
 401              		.cfi_offset 5, -12
 402              		.cfi_offset 6, -8
ARM GAS  C:\Users\davis\AppData\Local\Temp\cco880hz.s 			page 20


 403              		.cfi_offset 14, -4
 404              	.LVL33:
 655:Generated_Source\PSoC4/CAN.c ****     uint8 result = CAN_OUT_OF_RANGE;
 656:Generated_Source\PSoC4/CAN.c ****     uint8 cfgTemp;
 657:Generated_Source\PSoC4/CAN.c **** 
 658:Generated_Source\PSoC4/CAN.c ****     if ((cfgTseg1 >= CAN_CFG_REG_TSEG1_LOWER_LIMIT) && (cfgTseg1 <=
 405              		.loc 1 658 0
 406 0002 841E     		subs	r4, r0, #2
 407 0004 E4B2     		uxtb	r4, r4
 408 0006 0D2C     		cmp	r4, #13
 409 0008 35D8     		bhi	.L44
 659:Generated_Source\PSoC4/CAN.c ****          CAN_CFG_REG_TSEG1_UPPER_LIMIT))
 660:Generated_Source\PSoC4/CAN.c ****     {
 661:Generated_Source\PSoC4/CAN.c ****         if (((cfgTseg2 >= CAN_CFG_REG_TSEG2_LOWER_LIMIT) &&
 410              		.loc 1 661 0
 411 000a 8C1E     		subs	r4, r1, #2
 412 000c E4B2     		uxtb	r4, r4
 413 000e 052C     		cmp	r4, #5
 414 0010 03D9     		bls	.L42
 662:Generated_Source\PSoC4/CAN.c ****              (cfgTseg2 <= CAN_CFG_REG_TSEG2_UPPER_LIMIT)) || ((sm == CAN_ONE_SAMPLE_POINT) &&
 415              		.loc 1 662 0
 416 0012 002B     		cmp	r3, #0
 417 0014 31D1     		bne	.L45
 418              		.loc 1 662 0 is_stmt 0 discriminator 1
 419 0016 0129     		cmp	r1, #1
 420 0018 31D1     		bne	.L46
 421              	.L42:
 663:Generated_Source\PSoC4/CAN.c ****              (cfgTseg2 == CAN_CFG_REG_TSEG2_EXCEPTION)))
 664:Generated_Source\PSoC4/CAN.c ****         {
 665:Generated_Source\PSoC4/CAN.c ****             if ((sjw <= CAN_CFG_REG_SJW_LOWER_LIMIT) && (sjw <= cfgTseg1) && (sjw <= cfgTseg2))
 422              		.loc 1 665 0 is_stmt 1
 423 001a 032A     		cmp	r2, #3
 424 001c 31D8     		bhi	.L47
 425              		.loc 1 665 0 is_stmt 0 discriminator 1
 426 001e 9042     		cmp	r0, r2
 427 0020 31D3     		bcc	.L48
 428              		.loc 1 665 0 discriminator 2
 429 0022 9142     		cmp	r1, r2
 430 0024 31D3     		bcc	.L49
 431              	.LVL34:
 666:Generated_Source\PSoC4/CAN.c ****             {
 667:Generated_Source\PSoC4/CAN.c ****                 result = CAN_FAIL;
 668:Generated_Source\PSoC4/CAN.c **** 
 669:Generated_Source\PSoC4/CAN.c ****                 #if (CY_PSOC3 || CY_PSOC5)
 670:Generated_Source\PSoC4/CAN.c ****                     cfgTemp = CAN_CFG_REG.byte[1];
 671:Generated_Source\PSoC4/CAN.c ****                     cfgTemp &= (uint8) (~CAN_CFG_REG_TSEG1_MASK);
 672:Generated_Source\PSoC4/CAN.c ****                     cfgTemp |= cfgTseg1;
 673:Generated_Source\PSoC4/CAN.c **** 
 674:Generated_Source\PSoC4/CAN.c ****                     /* Write register byte 1 */
 675:Generated_Source\PSoC4/CAN.c ****                     CAN_CFG_REG.byte[1u] = cfgTemp;
 676:Generated_Source\PSoC4/CAN.c **** 
 677:Generated_Source\PSoC4/CAN.c ****                     /* Verify 1st byte of CAN_CFG_REG register */
 678:Generated_Source\PSoC4/CAN.c ****                     if (CAN_CFG_REG.byte[1u] == cfgTemp)
 679:Generated_Source\PSoC4/CAN.c ****                     {
 680:Generated_Source\PSoC4/CAN.c ****                         cfgTemp = 0u;
 681:Generated_Source\PSoC4/CAN.c ****                         /* Set appropriate bits */
 682:Generated_Source\PSoC4/CAN.c ****                         if (sm != CAN_ONE_SAMPLE_POINT)
ARM GAS  C:\Users\davis\AppData\Local\Temp\cco880hz.s 			page 21


 683:Generated_Source\PSoC4/CAN.c ****                         {
 684:Generated_Source\PSoC4/CAN.c ****                             cfgTemp = CAN_SAMPLE_MODE_MASK;
 685:Generated_Source\PSoC4/CAN.c ****                         }
 686:Generated_Source\PSoC4/CAN.c ****                         cfgTemp |= ((uint8) (cfgTseg2 << CAN_CFG_REG_TSEG2_SHIFT)) |
 687:Generated_Source\PSoC4/CAN.c ****                                    ((uint8) (sjw << CAN_CFG_REG_SJW_SHIFT));
 688:Generated_Source\PSoC4/CAN.c **** 
 689:Generated_Source\PSoC4/CAN.c ****                         /* Write register byte 0 */
 690:Generated_Source\PSoC4/CAN.c ****                         CAN_CFG_REG.byte[0u] = cfgTemp;
 691:Generated_Source\PSoC4/CAN.c **** 
 692:Generated_Source\PSoC4/CAN.c ****                         /* Verify 1st byte of CAN_CFG_REG register */
 693:Generated_Source\PSoC4/CAN.c ****                         if (CAN_CFG_REG.byte[0u] == cfgTemp)
 694:Generated_Source\PSoC4/CAN.c ****                         {
 695:Generated_Source\PSoC4/CAN.c ****                             result = CYRET_SUCCESS;
 696:Generated_Source\PSoC4/CAN.c ****                         }
 697:Generated_Source\PSoC4/CAN.c ****                     }
 698:Generated_Source\PSoC4/CAN.c ****                 #else  /* CY_PSOC4 */
 699:Generated_Source\PSoC4/CAN.c ****                     cfgTemp = (uint8) (CAN_CFG_REG >> CAN_CFG_REG_TSEG1_SHIFT);
 432              		.loc 1 699 0 is_stmt 1
 433 0026 1C4D     		ldr	r5, .L53
 434 0028 2C68     		ldr	r4, [r5]
 435 002a 240A     		lsrs	r4, r4, #8
 436 002c E4B2     		uxtb	r4, r4
 437              	.LVL35:
 700:Generated_Source\PSoC4/CAN.c ****                     cfgTemp &= (uint8) (~CAN_CFG_REG_TSEG1_MASK);
 438              		.loc 1 700 0
 439 002e 0F26     		movs	r6, #15
 440 0030 B443     		bics	r4, r6
 441              	.LVL36:
 701:Generated_Source\PSoC4/CAN.c ****                     cfgTemp |= cfgTseg1;
 442              		.loc 1 701 0
 443 0032 2043     		orrs	r0, r4
 444              	.LVL37:
 702:Generated_Source\PSoC4/CAN.c **** 
 703:Generated_Source\PSoC4/CAN.c ****                     /* Write register byte 1 */
 704:Generated_Source\PSoC4/CAN.c ****                     CAN_CFG_REG =
 705:Generated_Source\PSoC4/CAN.c ****                     (CAN_CFG_REG & (uint32) (~((uint32) ((uint32) CAN_CFG_REG_TSEG1_MASK <<
 445              		.loc 1 705 0
 446 0034 2E68     		ldr	r6, [r5]
 447 0036 194C     		ldr	r4, .L53+4
 448 0038 3440     		ands	r4, r6
 706:Generated_Source\PSoC4/CAN.c ****                     CAN_CFG_REG_TSEG1_SHIFT)))) |
 707:Generated_Source\PSoC4/CAN.c ****                     (uint32) ((uint32) cfgTemp << CAN_CFG_REG_TSEG1_SHIFT);
 449              		.loc 1 707 0
 450 003a 0002     		lsls	r0, r0, #8
 451              	.LVL38:
 706:Generated_Source\PSoC4/CAN.c ****                     CAN_CFG_REG_TSEG1_SHIFT)))) |
 452              		.loc 1 706 0
 453 003c 0443     		orrs	r4, r0
 704:Generated_Source\PSoC4/CAN.c ****                     (CAN_CFG_REG & (uint32) (~((uint32) ((uint32) CAN_CFG_REG_TSEG1_MASK <<
 454              		.loc 1 704 0
 455 003e 2C60     		str	r4, [r5]
 708:Generated_Source\PSoC4/CAN.c **** 
 709:Generated_Source\PSoC4/CAN.c ****                     /* Verify 1st byte of CAN_CFG_REG register */
 710:Generated_Source\PSoC4/CAN.c ****                     if ((CAN_CFG_REG & (uint32) ((uint32) CAN_CFG_REG_TSEG1_MASK <<
 456              		.loc 1 710 0
 457 0040 2C68     		ldr	r4, [r5]
 711:Generated_Source\PSoC4/CAN.c ****                        CAN_CFG_REG_TSEG1_SHIFT)) == (uint32) ((uint32) ((uint32) cfgTemp &
ARM GAS  C:\Users\davis\AppData\Local\Temp\cco880hz.s 			page 22


 458              		.loc 1 711 0
 459 0042 6040     		eors	r0, r4
 460 0044 F024     		movs	r4, #240
 461 0046 2401     		lsls	r4, r4, #4
 710:Generated_Source\PSoC4/CAN.c ****                        CAN_CFG_REG_TSEG1_SHIFT)) == (uint32) ((uint32) ((uint32) cfgTemp &
 462              		.loc 1 710 0
 463 0048 2042     		tst	r0, r4
 464 004a 20D1     		bne	.L50
 465              	.LVL39:
 712:Generated_Source\PSoC4/CAN.c ****                        CAN_CFG_REG_TSEG1_MASK) << CAN_CFG_REG_TSEG1_SHIFT))
 713:Generated_Source\PSoC4/CAN.c ****                     {
 714:Generated_Source\PSoC4/CAN.c ****                         cfgTemp = 0u;
 715:Generated_Source\PSoC4/CAN.c ****                         /* Set appropriate bits */
 716:Generated_Source\PSoC4/CAN.c ****                         if (sm != CAN_ONE_SAMPLE_POINT)
 466              		.loc 1 716 0
 467 004c 002B     		cmp	r3, #0
 468 004e 00D0     		beq	.L43
 717:Generated_Source\PSoC4/CAN.c ****                         {
 718:Generated_Source\PSoC4/CAN.c ****                             cfgTemp = CAN_SAMPLE_MODE_MASK;
 469              		.loc 1 718 0
 470 0050 0223     		movs	r3, #2
 471              	.LVL40:
 472              	.L43:
 719:Generated_Source\PSoC4/CAN.c ****                         }
 720:Generated_Source\PSoC4/CAN.c ****                         cfgTemp |= ((uint8) (cfgTseg2 << CAN_CFG_REG_TSEG2_SHIFT)) |
 473              		.loc 1 720 0
 474 0052 4901     		lsls	r1, r1, #5
 475              	.LVL41:
 476 0054 C9B2     		uxtb	r1, r1
 721:Generated_Source\PSoC4/CAN.c ****                                    ((uint8) (sjw << CAN_CFG_REG_SJW_SHIFT));
 477              		.loc 1 721 0
 478 0056 9200     		lsls	r2, r2, #2
 479              	.LVL42:
 480 0058 D2B2     		uxtb	r2, r2
 720:Generated_Source\PSoC4/CAN.c ****                                    ((uint8) (sjw << CAN_CFG_REG_SJW_SHIFT));
 481              		.loc 1 720 0
 482 005a 1143     		orrs	r1, r2
 483 005c 1943     		orrs	r1, r3
 484              	.LVL43:
 722:Generated_Source\PSoC4/CAN.c **** 
 723:Generated_Source\PSoC4/CAN.c ****                         /* Write register byte 0 */
 724:Generated_Source\PSoC4/CAN.c ****                         CAN_CFG_REG = (CAN_CFG_REG &
 485              		.loc 1 724 0
 486 005e 0E4A     		ldr	r2, .L53
 487 0060 1368     		ldr	r3, [r2]
 488 0062 EE20     		movs	r0, #238
 489 0064 8343     		bics	r3, r0
 725:Generated_Source\PSoC4/CAN.c ****                         (uint32) (~((uint32) (CAN_CFG_REG_TSEG2_MASK | CAN_CFG_REG_SJW_MASK |
 726:Generated_Source\PSoC4/CAN.c ****                         CAN_SAMPLE_MODE_MASK)))) | cfgTemp;
 490              		.loc 1 726 0
 491 0066 0B43     		orrs	r3, r1
 724:Generated_Source\PSoC4/CAN.c ****                         (uint32) (~((uint32) (CAN_CFG_REG_TSEG2_MASK | CAN_CFG_REG_SJW_MASK |
 492              		.loc 1 724 0
 493 0068 1360     		str	r3, [r2]
 727:Generated_Source\PSoC4/CAN.c **** 
 728:Generated_Source\PSoC4/CAN.c ****                         /* Verify 1st byte of CAN_CFG_REG register */
 729:Generated_Source\PSoC4/CAN.c ****                         if ((CAN_CFG_REG & (CAN_CFG_REG_TSEG2_MASK |
ARM GAS  C:\Users\davis\AppData\Local\Temp\cco880hz.s 			page 23


 494              		.loc 1 729 0
 495 006a 1368     		ldr	r3, [r2]
 496 006c 0340     		ands	r3, r0
 497 006e 9942     		cmp	r1, r3
 498 0070 0FD0     		beq	.L52
 667:Generated_Source\PSoC4/CAN.c **** 
 499              		.loc 1 667 0
 500 0072 ED38     		subs	r0, r0, #237
 501 0074 0EE0     		b	.L41
 502              	.LVL44:
 503              	.L44:
 655:Generated_Source\PSoC4/CAN.c ****     uint8 cfgTemp;
 504              		.loc 1 655 0
 505 0076 0220     		movs	r0, #2
 506              	.LVL45:
 507 0078 0CE0     		b	.L41
 508              	.LVL46:
 509              	.L45:
 510 007a 0220     		movs	r0, #2
 511              	.LVL47:
 512 007c 0AE0     		b	.L41
 513              	.LVL48:
 514              	.L46:
 515 007e 0220     		movs	r0, #2
 516              	.LVL49:
 517 0080 08E0     		b	.L41
 518              	.LVL50:
 519              	.L47:
 520 0082 0220     		movs	r0, #2
 521              	.LVL51:
 522 0084 06E0     		b	.L41
 523              	.LVL52:
 524              	.L48:
 525 0086 0220     		movs	r0, #2
 526              	.LVL53:
 527 0088 04E0     		b	.L41
 528              	.LVL54:
 529              	.L49:
 530 008a 0220     		movs	r0, #2
 531              	.LVL55:
 532 008c 02E0     		b	.L41
 533              	.LVL56:
 534              	.L50:
 667:Generated_Source\PSoC4/CAN.c **** 
 535              		.loc 1 667 0
 536 008e 0120     		movs	r0, #1
 537 0090 00E0     		b	.L41
 538              	.LVL57:
 539              	.L52:
 730:Generated_Source\PSoC4/CAN.c ****                            CAN_CFG_REG_SJW_MASK | CAN_SAMPLE_MODE_MASK)) == cfgTemp)
 731:Generated_Source\PSoC4/CAN.c ****                         {
 732:Generated_Source\PSoC4/CAN.c ****                             result = CYRET_SUCCESS;
 540              		.loc 1 732 0
 541 0092 0020     		movs	r0, #0
 542              	.LVL58:
 543              	.L41:
 733:Generated_Source\PSoC4/CAN.c ****                         }
ARM GAS  C:\Users\davis\AppData\Local\Temp\cco880hz.s 			page 24


 734:Generated_Source\PSoC4/CAN.c ****                     }
 735:Generated_Source\PSoC4/CAN.c ****                 #endif /* CY_PSOC3 || CY_PSOC5 */
 736:Generated_Source\PSoC4/CAN.c ****             }
 737:Generated_Source\PSoC4/CAN.c ****         }
 738:Generated_Source\PSoC4/CAN.c ****     }
 739:Generated_Source\PSoC4/CAN.c **** 
 740:Generated_Source\PSoC4/CAN.c ****     return (result);
 741:Generated_Source\PSoC4/CAN.c **** }
 544              		.loc 1 741 0
 545              		@ sp needed
 546 0094 70BD     		pop	{r4, r5, r6, pc}
 547              	.L54:
 548 0096 C046     		.align	2
 549              	.L53:
 550 0098 14002F40 		.word	1076822036
 551 009c FFF0FFFF 		.word	-3841
 552              		.cfi_endproc
 553              	.LFE10:
 554              		.size	CAN_SetTsegSample, .-CAN_SetTsegSample
 555              		.section	.text.CAN_SetRestartType,"ax",%progbits
 556              		.align	2
 557              		.global	CAN_SetRestartType
 558              		.code	16
 559              		.thumb_func
 560              		.type	CAN_SetRestartType, %function
 561              	CAN_SetRestartType:
 562              	.LFB11:
 742:Generated_Source\PSoC4/CAN.c **** 
 743:Generated_Source\PSoC4/CAN.c **** 
 744:Generated_Source\PSoC4/CAN.c **** /*******************************************************************************
 745:Generated_Source\PSoC4/CAN.c **** * FUNCTION NAME:   CAN_SetRestartType
 746:Generated_Source\PSoC4/CAN.c **** ********************************************************************************
 747:Generated_Source\PSoC4/CAN.c **** *
 748:Generated_Source\PSoC4/CAN.c **** * Summary:
 749:Generated_Source\PSoC4/CAN.c **** *  This function sets the Reset type. The types of Reset are Automatic and
 750:Generated_Source\PSoC4/CAN.c **** *  Manual. Manual Reset is the recommended setting.
 751:Generated_Source\PSoC4/CAN.c **** *
 752:Generated_Source\PSoC4/CAN.c **** * Parameters:
 753:Generated_Source\PSoC4/CAN.c **** *  reset: Reset Type.
 754:Generated_Source\PSoC4/CAN.c **** *   Define                             Description
 755:Generated_Source\PSoC4/CAN.c **** *    CAN_MANUAL_RESTART    After Bus-Off, CAN must be restarted
 756:Generated_Source\PSoC4/CAN.c **** *                                       manually. This is the recommended
 757:Generated_Source\PSoC4/CAN.c **** *                                       setting.
 758:Generated_Source\PSoC4/CAN.c **** *    CAN_AUTO_RESTART      After Bus-Off, CAN restarts
 759:Generated_Source\PSoC4/CAN.c **** *                                       automatically after 128 groups of 11
 760:Generated_Source\PSoC4/CAN.c **** *                                       recessive bits.
 761:Generated_Source\PSoC4/CAN.c **** *
 762:Generated_Source\PSoC4/CAN.c **** * Return:
 763:Generated_Source\PSoC4/CAN.c **** *  The indication whether the register is written and verified.
 764:Generated_Source\PSoC4/CAN.c **** *   Define                             Description
 765:Generated_Source\PSoC4/CAN.c **** *    CYRET_SUCCESS                      The function passed successfully
 766:Generated_Source\PSoC4/CAN.c **** *    CAN_FAIL              The function failed
 767:Generated_Source\PSoC4/CAN.c **** *
 768:Generated_Source\PSoC4/CAN.c **** *******************************************************************************/
 769:Generated_Source\PSoC4/CAN.c **** uint8 CAN_SetRestartType(uint8 reset) 
 770:Generated_Source\PSoC4/CAN.c **** {
 563              		.loc 1 770 0
ARM GAS  C:\Users\davis\AppData\Local\Temp\cco880hz.s 			page 25


 564              		.cfi_startproc
 565              		@ args = 0, pretend = 0, frame = 0
 566              		@ frame_needed = 0, uses_anonymous_args = 0
 567              		@ link register save eliminated.
 568              	.LVL59:
 771:Generated_Source\PSoC4/CAN.c ****     uint8 result = CAN_FAIL;
 772:Generated_Source\PSoC4/CAN.c **** 
 773:Generated_Source\PSoC4/CAN.c ****     #if (CY_PSOC3 || CY_PSOC5)
 774:Generated_Source\PSoC4/CAN.c ****         if (reset == CAN_MANUAL_RESTART)
 775:Generated_Source\PSoC4/CAN.c ****         {
 776:Generated_Source\PSoC4/CAN.c ****             CAN_CFG_REG.byte[0u] &= (uint8) (~CAN_RESET_MASK);
 777:Generated_Source\PSoC4/CAN.c **** 
 778:Generated_Source\PSoC4/CAN.c ****             /* Verify that bit is cleared */
 779:Generated_Source\PSoC4/CAN.c ****             if ((CAN_CFG_REG.byte[0u] & CAN_RESET_MASK) == 0u)
 780:Generated_Source\PSoC4/CAN.c ****             {
 781:Generated_Source\PSoC4/CAN.c ****                 result = CYRET_SUCCESS;
 782:Generated_Source\PSoC4/CAN.c ****             }
 783:Generated_Source\PSoC4/CAN.c ****         }
 784:Generated_Source\PSoC4/CAN.c ****         else    /* Automatic restart */
 785:Generated_Source\PSoC4/CAN.c ****         {
 786:Generated_Source\PSoC4/CAN.c ****             CAN_CFG_REG.byte[0u] |= CAN_RESET_MASK;
 787:Generated_Source\PSoC4/CAN.c **** 
 788:Generated_Source\PSoC4/CAN.c ****             /* Verify that bit is set */
 789:Generated_Source\PSoC4/CAN.c ****             if ((CAN_CFG_REG.byte[0u] & CAN_RESET_MASK) != 0u)
 790:Generated_Source\PSoC4/CAN.c ****             {
 791:Generated_Source\PSoC4/CAN.c ****                 result = CYRET_SUCCESS;
 792:Generated_Source\PSoC4/CAN.c ****             }
 793:Generated_Source\PSoC4/CAN.c ****         }
 794:Generated_Source\PSoC4/CAN.c ****     #else  /* CY_PSOC4 */
 795:Generated_Source\PSoC4/CAN.c ****         if (reset == CAN_MANUAL_RESTART)
 569              		.loc 1 795 0
 570 0000 0028     		cmp	r0, #0
 571 0002 09D1     		bne	.L56
 796:Generated_Source\PSoC4/CAN.c ****         {
 797:Generated_Source\PSoC4/CAN.c ****             CAN_CFG_REG &= (uint32) (~((uint32) CAN_RESET_MASK));
 572              		.loc 1 797 0
 573 0004 0B4B     		ldr	r3, .L60
 574 0006 1A68     		ldr	r2, [r3]
 575 0008 1021     		movs	r1, #16
 576 000a 8A43     		bics	r2, r1
 577 000c 1A60     		str	r2, [r3]
 798:Generated_Source\PSoC4/CAN.c **** 
 799:Generated_Source\PSoC4/CAN.c ****             /* Verify that bit is cleared */
 800:Generated_Source\PSoC4/CAN.c ****             if ((CAN_CFG_REG & CAN_RESET_MASK) == 0u)
 578              		.loc 1 800 0
 579 000e 1B68     		ldr	r3, [r3]
 580 0010 1942     		tst	r1, r3
 581 0012 0BD0     		beq	.L58
 771:Generated_Source\PSoC4/CAN.c **** 
 582              		.loc 1 771 0
 583 0014 0130     		adds	r0, r0, #1
 584              	.LVL60:
 585 0016 0CE0     		b	.L57
 586              	.LVL61:
 587              	.L56:
 801:Generated_Source\PSoC4/CAN.c ****             {
 802:Generated_Source\PSoC4/CAN.c ****                 result = CYRET_SUCCESS;
ARM GAS  C:\Users\davis\AppData\Local\Temp\cco880hz.s 			page 26


 803:Generated_Source\PSoC4/CAN.c ****             }
 804:Generated_Source\PSoC4/CAN.c ****         }
 805:Generated_Source\PSoC4/CAN.c ****         else    /* Automatic restart */
 806:Generated_Source\PSoC4/CAN.c ****         {
 807:Generated_Source\PSoC4/CAN.c ****             CAN_CFG_REG |= CAN_RESET_MASK;
 588              		.loc 1 807 0
 589 0018 064B     		ldr	r3, .L60
 590 001a 1A68     		ldr	r2, [r3]
 591 001c 1021     		movs	r1, #16
 592 001e 0A43     		orrs	r2, r1
 593 0020 1A60     		str	r2, [r3]
 808:Generated_Source\PSoC4/CAN.c **** 
 809:Generated_Source\PSoC4/CAN.c ****             /* Verify that bit is set */
 810:Generated_Source\PSoC4/CAN.c ****             if ((CAN_CFG_REG & CAN_RESET_MASK) != 0u)
 594              		.loc 1 810 0
 595 0022 1B68     		ldr	r3, [r3]
 596 0024 1942     		tst	r1, r3
 597 0026 03D1     		bne	.L59
 771:Generated_Source\PSoC4/CAN.c **** 
 598              		.loc 1 771 0
 599 0028 0120     		movs	r0, #1
 600              	.LVL62:
 601 002a 02E0     		b	.L57
 602              	.LVL63:
 603              	.L58:
 802:Generated_Source\PSoC4/CAN.c ****             }
 604              		.loc 1 802 0
 605 002c 0020     		movs	r0, #0
 606              	.LVL64:
 607 002e 00E0     		b	.L57
 608              	.LVL65:
 609              	.L59:
 811:Generated_Source\PSoC4/CAN.c ****             {
 812:Generated_Source\PSoC4/CAN.c ****                 result = CYRET_SUCCESS;
 610              		.loc 1 812 0
 611 0030 0020     		movs	r0, #0
 612              	.LVL66:
 613              	.L57:
 813:Generated_Source\PSoC4/CAN.c ****             }
 814:Generated_Source\PSoC4/CAN.c ****         }
 815:Generated_Source\PSoC4/CAN.c ****     #endif /* CY_PSOC3 || CY_PSOC5 */
 816:Generated_Source\PSoC4/CAN.c **** 
 817:Generated_Source\PSoC4/CAN.c ****     return (result);
 818:Generated_Source\PSoC4/CAN.c **** }
 614              		.loc 1 818 0
 615              		@ sp needed
 616 0032 7047     		bx	lr
 617              	.L61:
 618              		.align	2
 619              	.L60:
 620 0034 14002F40 		.word	1076822036
 621              		.cfi_endproc
 622              	.LFE11:
 623              		.size	CAN_SetRestartType, .-CAN_SetRestartType
 624              		.section	.text.CAN_SetEdgeMode,"ax",%progbits
 625              		.align	2
 626              		.global	CAN_SetEdgeMode
ARM GAS  C:\Users\davis\AppData\Local\Temp\cco880hz.s 			page 27


 627              		.code	16
 628              		.thumb_func
 629              		.type	CAN_SetEdgeMode, %function
 630              	CAN_SetEdgeMode:
 631              	.LFB12:
 819:Generated_Source\PSoC4/CAN.c **** 
 820:Generated_Source\PSoC4/CAN.c **** 
 821:Generated_Source\PSoC4/CAN.c **** /*******************************************************************************
 822:Generated_Source\PSoC4/CAN.c **** * FUNCTION NAME:   CAN_SetEdgeMode
 823:Generated_Source\PSoC4/CAN.c **** ********************************************************************************
 824:Generated_Source\PSoC4/CAN.c **** *
 825:Generated_Source\PSoC4/CAN.c **** * Summary:
 826:Generated_Source\PSoC4/CAN.c **** *  This function sets Edge Mode. The modes are 'R' to 'D'(Recessive to Dominant)
 827:Generated_Source\PSoC4/CAN.c **** *  and Both edges are used.
 828:Generated_Source\PSoC4/CAN.c **** *
 829:Generated_Source\PSoC4/CAN.c **** * Parameters:
 830:Generated_Source\PSoC4/CAN.c **** *  edge: Edge Mode.
 831:Generated_Source\PSoC4/CAN.c **** *   Define                             Description
 832:Generated_Source\PSoC4/CAN.c **** *    CAN_EDGE_R_TO_D       The edge from R to D is used for
 833:Generated_Source\PSoC4/CAN.c **** *                                       synchronization
 834:Generated_Source\PSoC4/CAN.c **** *    CAN_BOTH_EDGES        Both edges are used
 835:Generated_Source\PSoC4/CAN.c **** *
 836:Generated_Source\PSoC4/CAN.c **** * Return:
 837:Generated_Source\PSoC4/CAN.c **** *  The indication whether the register is written and verified.
 838:Generated_Source\PSoC4/CAN.c **** *   Define                             Description
 839:Generated_Source\PSoC4/CAN.c **** *    CYRET_SUCCESS                      The function passed successfully
 840:Generated_Source\PSoC4/CAN.c **** *    CAN_FAIL              The function failed
 841:Generated_Source\PSoC4/CAN.c **** *
 842:Generated_Source\PSoC4/CAN.c **** *******************************************************************************/
 843:Generated_Source\PSoC4/CAN.c **** uint8 CAN_SetEdgeMode(uint8 edge) 
 844:Generated_Source\PSoC4/CAN.c **** {
 632              		.loc 1 844 0
 633              		.cfi_startproc
 634              		@ args = 0, pretend = 0, frame = 0
 635              		@ frame_needed = 0, uses_anonymous_args = 0
 636              		@ link register save eliminated.
 637              	.LVL67:
 845:Generated_Source\PSoC4/CAN.c ****     uint8 result = CAN_FAIL;
 846:Generated_Source\PSoC4/CAN.c **** 
 847:Generated_Source\PSoC4/CAN.c ****     #if (CY_PSOC3 || CY_PSOC5)
 848:Generated_Source\PSoC4/CAN.c ****         if (edge == CAN_EDGE_R_TO_D)
 849:Generated_Source\PSoC4/CAN.c ****         {
 850:Generated_Source\PSoC4/CAN.c ****             /* Recessive to Dominant is used for synchronization */
 851:Generated_Source\PSoC4/CAN.c ****             CAN_CFG_REG.byte[0u] &= (uint8) (~CAN_EDGE_MODE_MASK);
 852:Generated_Source\PSoC4/CAN.c **** 
 853:Generated_Source\PSoC4/CAN.c ****             /* Verify that bit is cleared */
 854:Generated_Source\PSoC4/CAN.c ****             if ((CAN_CFG_REG.byte[0u] & CAN_EDGE_MODE_MASK) == 0u)
 855:Generated_Source\PSoC4/CAN.c ****             {
 856:Generated_Source\PSoC4/CAN.c ****                 result = CYRET_SUCCESS;
 857:Generated_Source\PSoC4/CAN.c ****             }
 858:Generated_Source\PSoC4/CAN.c ****         }
 859:Generated_Source\PSoC4/CAN.c ****         else
 860:Generated_Source\PSoC4/CAN.c ****         {
 861:Generated_Source\PSoC4/CAN.c ****             /* Both edges to be used */
 862:Generated_Source\PSoC4/CAN.c ****             CAN_CFG_REG.byte[0u] |= CAN_EDGE_MODE_MASK;
 863:Generated_Source\PSoC4/CAN.c **** 
 864:Generated_Source\PSoC4/CAN.c ****             /* Verify that bit is set */
ARM GAS  C:\Users\davis\AppData\Local\Temp\cco880hz.s 			page 28


 865:Generated_Source\PSoC4/CAN.c ****             if ((CAN_CFG_REG.byte[0u] & CAN_EDGE_MODE_MASK) != 0u)
 866:Generated_Source\PSoC4/CAN.c ****             {
 867:Generated_Source\PSoC4/CAN.c ****                 result = CYRET_SUCCESS;
 868:Generated_Source\PSoC4/CAN.c ****             }
 869:Generated_Source\PSoC4/CAN.c ****         }
 870:Generated_Source\PSoC4/CAN.c ****     #else  /* CY_PSOC4 */
 871:Generated_Source\PSoC4/CAN.c ****         if (edge == CAN_EDGE_R_TO_D)
 638              		.loc 1 871 0
 639 0000 0028     		cmp	r0, #0
 640 0002 09D1     		bne	.L63
 872:Generated_Source\PSoC4/CAN.c ****         {
 873:Generated_Source\PSoC4/CAN.c ****             /* Recessive to Dominant is used for synchronization */
 874:Generated_Source\PSoC4/CAN.c ****             CAN_CFG_REG &= (uint32) (~((uint32) CAN_EDGE_MODE_MASK));
 641              		.loc 1 874 0
 642 0004 0B4B     		ldr	r3, .L67
 643 0006 1A68     		ldr	r2, [r3]
 644 0008 0121     		movs	r1, #1
 645 000a 8A43     		bics	r2, r1
 646 000c 1A60     		str	r2, [r3]
 875:Generated_Source\PSoC4/CAN.c **** 
 876:Generated_Source\PSoC4/CAN.c ****             /* Verify that bit is cleared */
 877:Generated_Source\PSoC4/CAN.c ****             if ((CAN_CFG_REG & CAN_EDGE_MODE_MASK) == 0u)
 647              		.loc 1 877 0
 648 000e 1B68     		ldr	r3, [r3]
 649 0010 1942     		tst	r1, r3
 650 0012 0BD0     		beq	.L65
 845:Generated_Source\PSoC4/CAN.c **** 
 651              		.loc 1 845 0
 652 0014 0130     		adds	r0, r0, #1
 653              	.LVL68:
 654 0016 0CE0     		b	.L64
 655              	.LVL69:
 656              	.L63:
 878:Generated_Source\PSoC4/CAN.c ****             {
 879:Generated_Source\PSoC4/CAN.c ****                 result = CYRET_SUCCESS;
 880:Generated_Source\PSoC4/CAN.c ****             }
 881:Generated_Source\PSoC4/CAN.c ****         }
 882:Generated_Source\PSoC4/CAN.c ****         else
 883:Generated_Source\PSoC4/CAN.c ****         {
 884:Generated_Source\PSoC4/CAN.c ****             /* Both edges to be used */
 885:Generated_Source\PSoC4/CAN.c ****             CAN_CFG_REG |= CAN_EDGE_MODE_MASK;
 657              		.loc 1 885 0
 658 0018 064B     		ldr	r3, .L67
 659 001a 1A68     		ldr	r2, [r3]
 660 001c 0121     		movs	r1, #1
 661 001e 0A43     		orrs	r2, r1
 662 0020 1A60     		str	r2, [r3]
 886:Generated_Source\PSoC4/CAN.c **** 
 887:Generated_Source\PSoC4/CAN.c ****             /* Verify that bit is set */
 888:Generated_Source\PSoC4/CAN.c ****             if ((CAN_CFG_REG & CAN_EDGE_MODE_MASK) != 0u)
 663              		.loc 1 888 0
 664 0022 1B68     		ldr	r3, [r3]
 665 0024 1942     		tst	r1, r3
 666 0026 03D1     		bne	.L66
 845:Generated_Source\PSoC4/CAN.c **** 
 667              		.loc 1 845 0
 668 0028 0120     		movs	r0, #1
ARM GAS  C:\Users\davis\AppData\Local\Temp\cco880hz.s 			page 29


 669              	.LVL70:
 670 002a 02E0     		b	.L64
 671              	.LVL71:
 672              	.L65:
 879:Generated_Source\PSoC4/CAN.c ****             }
 673              		.loc 1 879 0
 674 002c 0020     		movs	r0, #0
 675              	.LVL72:
 676 002e 00E0     		b	.L64
 677              	.LVL73:
 678              	.L66:
 889:Generated_Source\PSoC4/CAN.c ****             {
 890:Generated_Source\PSoC4/CAN.c ****                 result = CYRET_SUCCESS;
 679              		.loc 1 890 0
 680 0030 0020     		movs	r0, #0
 681              	.LVL74:
 682              	.L64:
 891:Generated_Source\PSoC4/CAN.c ****             }
 892:Generated_Source\PSoC4/CAN.c ****         }
 893:Generated_Source\PSoC4/CAN.c ****     #endif /* CY_PSOC3 || CY_PSOC5 */
 894:Generated_Source\PSoC4/CAN.c **** 
 895:Generated_Source\PSoC4/CAN.c ****     return (result);
 896:Generated_Source\PSoC4/CAN.c **** }
 683              		.loc 1 896 0
 684              		@ sp needed
 685 0032 7047     		bx	lr
 686              	.L68:
 687              		.align	2
 688              	.L67:
 689 0034 14002F40 		.word	1076822036
 690              		.cfi_endproc
 691              	.LFE12:
 692              		.size	CAN_SetEdgeMode, .-CAN_SetEdgeMode
 693              		.section	.text.CAN_RXRegisterInit,"ax",%progbits
 694              		.align	2
 695              		.global	CAN_RXRegisterInit
 696              		.code	16
 697              		.thumb_func
 698              		.type	CAN_RXRegisterInit, %function
 699              	CAN_RXRegisterInit:
 700              	.LFB14:
 897:Generated_Source\PSoC4/CAN.c **** 
 898:Generated_Source\PSoC4/CAN.c **** 
 899:Generated_Source\PSoC4/CAN.c **** /*******************************************************************************
 900:Generated_Source\PSoC4/CAN.c **** * FUNCTION NAME:   CAN_SetOpMode
 901:Generated_Source\PSoC4/CAN.c **** ********************************************************************************
 902:Generated_Source\PSoC4/CAN.c **** *
 903:Generated_Source\PSoC4/CAN.c **** * Summary:
 904:Generated_Source\PSoC4/CAN.c **** *  This function sets Operation Mode.
 905:Generated_Source\PSoC4/CAN.c **** *
 906:Generated_Source\PSoC4/CAN.c **** * Parameters:
 907:Generated_Source\PSoC4/CAN.c **** *  opMode: Operation Mode value.
 908:Generated_Source\PSoC4/CAN.c **** *   Define                              Description
 909:Generated_Source\PSoC4/CAN.c **** *    CAN_STOP_MODE          The CAN controller is in the Stop mode
 910:Generated_Source\PSoC4/CAN.c **** *    CAN_ACTIVE_RUN_MODE    The CAN controller is in the Active
 911:Generated_Source\PSoC4/CAN.c **** *                                        mode
 912:Generated_Source\PSoC4/CAN.c **** *    CAN_LISTEN_ONLY_MODE   The CAN controller is in the Listen
ARM GAS  C:\Users\davis\AppData\Local\Temp\cco880hz.s 			page 30


 913:Generated_Source\PSoC4/CAN.c **** *                                        Only mode: The output is held at the
 914:Generated_Source\PSoC4/CAN.c **** *                                        'R' level.
 915:Generated_Source\PSoC4/CAN.c **** *    CAN_INTERNAL_LOOP_BACK The CAN controller is in the Internal
 916:Generated_Source\PSoC4/CAN.c **** *                                        Loopback mode. This mode is used for
 917:Generated_Source\PSoC4/CAN.c **** *                                        the testing purpose and the transmitted
 918:Generated_Source\PSoC4/CAN.c **** *                                        transactions are internally routed
 919:Generated_Source\PSoC4/CAN.c **** *                                        back to the receiver logic and
 920:Generated_Source\PSoC4/CAN.c **** *                                        processed by the controller in this
 921:Generated_Source\PSoC4/CAN.c **** *                                        mode. Not available for PSoC3/5.
 922:Generated_Source\PSoC4/CAN.c **** *    CAN_EXTERNAL_LOOP_BACK This mode is used for the testing
 923:Generated_Source\PSoC4/CAN.c **** *                                        purpose by connecting Tx and Rx lines
 924:Generated_Source\PSoC4/CAN.c **** *                                        externally. The transmitted messages
 925:Generated_Source\PSoC4/CAN.c **** *                                        are received back and processed by the
 926:Generated_Source\PSoC4/CAN.c **** *                                        CAN controller in this mode.
 927:Generated_Source\PSoC4/CAN.c **** *                                        Not available for PSoC3/5.
 928:Generated_Source\PSoC4/CAN.c **** * Return:
 929:Generated_Source\PSoC4/CAN.c **** *  The indication whether the register is written and verified.
 930:Generated_Source\PSoC4/CAN.c **** *   Define                             Description
 931:Generated_Source\PSoC4/CAN.c **** *    CYRET_SUCCESS                      The function passed successfully
 932:Generated_Source\PSoC4/CAN.c **** *    CAN_FAIL              The function failed
 933:Generated_Source\PSoC4/CAN.c **** *
 934:Generated_Source\PSoC4/CAN.c **** * Side Effects:
 935:Generated_Source\PSoC4/CAN.c **** *  For PSoC 4 device family the function re-initializes the CAN registers.
 936:Generated_Source\PSoC4/CAN.c **** *
 937:Generated_Source\PSoC4/CAN.c **** *******************************************************************************/
 938:Generated_Source\PSoC4/CAN.c **** uint8 CAN_SetOpMode(uint8 opMode) 
 939:Generated_Source\PSoC4/CAN.c **** {
 940:Generated_Source\PSoC4/CAN.c ****     #if (CY_PSOC3 || CY_PSOC5)
 941:Generated_Source\PSoC4/CAN.c ****         uint32 timeout;
 942:Generated_Source\PSoC4/CAN.c ****     #endif /* CY_PSOC3 || CY_PSOC5 */
 943:Generated_Source\PSoC4/CAN.c ****     uint8 result = CAN_FAIL;
 944:Generated_Source\PSoC4/CAN.c ****     uint8 runState = CAN_STOP_MODE;
 945:Generated_Source\PSoC4/CAN.c **** 
 946:Generated_Source\PSoC4/CAN.c ****     #if (CY_PSOC3 || CY_PSOC5)
 947:Generated_Source\PSoC4/CAN.c ****         if (((CAN_CMD_REG.byte[0u] & CAN_ACTIVE_RUN_MODE) != 0u) ||
 948:Generated_Source\PSoC4/CAN.c ****             (opMode == CAN_ACTIVE_RUN_MODE))
 949:Generated_Source\PSoC4/CAN.c ****         {
 950:Generated_Source\PSoC4/CAN.c ****             runState = CAN_ACTIVE_RUN_MODE;
 951:Generated_Source\PSoC4/CAN.c ****         }
 952:Generated_Source\PSoC4/CAN.c **** 
 953:Generated_Source\PSoC4/CAN.c ****         /* Set CAN to the Stop Mode */
 954:Generated_Source\PSoC4/CAN.c ****         CAN_CMD_REG.byte[0u] = CAN_STOP_MODE;
 955:Generated_Source\PSoC4/CAN.c **** 
 956:Generated_Source\PSoC4/CAN.c ****         /* Timeout for CAN state machine to switch mode to Stop */
 957:Generated_Source\PSoC4/CAN.c ****         for (timeout = CAN_MODE_STATE_STOP_TIMEOUT;
 958:Generated_Source\PSoC4/CAN.c ****             (timeout != 0u) && ((CAN_CMD_REG.byte[0u] & CAN_ACTIVE_RUN_MODE) != 0u);
 959:Generated_Source\PSoC4/CAN.c ****              timeout--)
 960:Generated_Source\PSoC4/CAN.c ****         {
 961:Generated_Source\PSoC4/CAN.c ****         }
 962:Generated_Source\PSoC4/CAN.c **** 
 963:Generated_Source\PSoC4/CAN.c ****         if (timeout != 0u)
 964:Generated_Source\PSoC4/CAN.c ****         {
 965:Generated_Source\PSoC4/CAN.c ****             result = CYRET_SUCCESS;
 966:Generated_Source\PSoC4/CAN.c ****         }
 967:Generated_Source\PSoC4/CAN.c **** 
 968:Generated_Source\PSoC4/CAN.c ****         if ((result == CYRET_SUCCESS) && (opMode != CAN_STOP_MODE))
 969:Generated_Source\PSoC4/CAN.c ****         {
ARM GAS  C:\Users\davis\AppData\Local\Temp\cco880hz.s 			page 31


 970:Generated_Source\PSoC4/CAN.c ****             if (opMode == CAN_LISTEN_ONLY_MODE)
 971:Generated_Source\PSoC4/CAN.c ****             {
 972:Generated_Source\PSoC4/CAN.c ****                 CAN_CMD_REG.byte[0u] = CAN_LISTEN_ONLY_MODE;
 973:Generated_Source\PSoC4/CAN.c ****             }
 974:Generated_Source\PSoC4/CAN.c **** 
 975:Generated_Source\PSoC4/CAN.c ****             if (runState == CAN_ACTIVE_RUN_MODE)
 976:Generated_Source\PSoC4/CAN.c ****             {
 977:Generated_Source\PSoC4/CAN.c ****                 CAN_CMD_REG.byte[0u] |= CAN_ACTIVE_RUN_MODE;
 978:Generated_Source\PSoC4/CAN.c **** 
 979:Generated_Source\PSoC4/CAN.c ****                 /* Timeout for CAN state machine to switch mode to Run */
 980:Generated_Source\PSoC4/CAN.c ****                 for (timeout = CAN_MODE_STATE_RUN_TIMEOUT;
 981:Generated_Source\PSoC4/CAN.c ****                     (timeout != 0u) && ((CAN_CMD_REG.byte[0u] & CAN_MODE_MASK) == 0u);
 982:Generated_Source\PSoC4/CAN.c ****                      timeout--)
 983:Generated_Source\PSoC4/CAN.c ****                 {
 984:Generated_Source\PSoC4/CAN.c ****                 }
 985:Generated_Source\PSoC4/CAN.c **** 
 986:Generated_Source\PSoC4/CAN.c ****                 if (timeout == 0u)
 987:Generated_Source\PSoC4/CAN.c ****                 {
 988:Generated_Source\PSoC4/CAN.c ****                     result = CAN_FAIL;
 989:Generated_Source\PSoC4/CAN.c ****                 }
 990:Generated_Source\PSoC4/CAN.c ****             }
 991:Generated_Source\PSoC4/CAN.c ****         }
 992:Generated_Source\PSoC4/CAN.c ****     #else  /* CY_PSOC4 */
 993:Generated_Source\PSoC4/CAN.c ****         if (((CAN_CMD_REG & CAN_MODE_MASK) != 0u) ||
 994:Generated_Source\PSoC4/CAN.c ****             (opMode == CAN_ACTIVE_RUN_MODE))
 995:Generated_Source\PSoC4/CAN.c ****         {
 996:Generated_Source\PSoC4/CAN.c ****             runState = CAN_ACTIVE_RUN_MODE;
 997:Generated_Source\PSoC4/CAN.c ****         }
 998:Generated_Source\PSoC4/CAN.c **** 
 999:Generated_Source\PSoC4/CAN.c ****         /* Sets CAN Component into the Stop mode */
1000:Generated_Source\PSoC4/CAN.c ****         if (CAN_Stop() == CYRET_SUCCESS)
1001:Generated_Source\PSoC4/CAN.c ****         {
1002:Generated_Source\PSoC4/CAN.c ****             /* Disable CAN IP Block to reset configuration before sets Operation Mode */
1003:Generated_Source\PSoC4/CAN.c ****             CAN_CNTL_REG = (uint32) (~CAN_IP_ENABLE);
1004:Generated_Source\PSoC4/CAN.c **** 
1005:Generated_Source\PSoC4/CAN.c ****             /* Enable CAN IP Block */
1006:Generated_Source\PSoC4/CAN.c ****             CAN_CNTL_REG = CAN_IP_ENABLE;
1007:Generated_Source\PSoC4/CAN.c **** 
1008:Generated_Source\PSoC4/CAN.c ****             result = CAN_Init();
1009:Generated_Source\PSoC4/CAN.c **** 
1010:Generated_Source\PSoC4/CAN.c ****             if ((result == CYRET_SUCCESS) && (opMode != CAN_STOP_MODE))
1011:Generated_Source\PSoC4/CAN.c ****             {
1012:Generated_Source\PSoC4/CAN.c ****                 if (opMode != CAN_ACTIVE_RUN_MODE)
1013:Generated_Source\PSoC4/CAN.c ****                 {
1014:Generated_Source\PSoC4/CAN.c ****                     /* Set CAN Operation Mode */
1015:Generated_Source\PSoC4/CAN.c ****                     CAN_CMD_REG |= opMode;
1016:Generated_Source\PSoC4/CAN.c ****                 }
1017:Generated_Source\PSoC4/CAN.c **** 
1018:Generated_Source\PSoC4/CAN.c ****                 if (runState == CAN_ACTIVE_RUN_MODE)
1019:Generated_Source\PSoC4/CAN.c ****                 {
1020:Generated_Source\PSoC4/CAN.c ****                     /* Enable component's operation */
1021:Generated_Source\PSoC4/CAN.c ****                     result = CAN_Enable();
1022:Generated_Source\PSoC4/CAN.c ****                 }
1023:Generated_Source\PSoC4/CAN.c ****             }
1024:Generated_Source\PSoC4/CAN.c ****         }
1025:Generated_Source\PSoC4/CAN.c ****     #endif /* CY_PSOC3 || CY_PSOC5 */
1026:Generated_Source\PSoC4/CAN.c **** 
ARM GAS  C:\Users\davis\AppData\Local\Temp\cco880hz.s 			page 32


1027:Generated_Source\PSoC4/CAN.c ****     return (result);
1028:Generated_Source\PSoC4/CAN.c **** }
1029:Generated_Source\PSoC4/CAN.c **** 
1030:Generated_Source\PSoC4/CAN.c **** 
1031:Generated_Source\PSoC4/CAN.c **** /*******************************************************************************
1032:Generated_Source\PSoC4/CAN.c **** * FUNCTION NAME:   CAN_RXRegisterInit
1033:Generated_Source\PSoC4/CAN.c **** ********************************************************************************
1034:Generated_Source\PSoC4/CAN.c **** *
1035:Generated_Source\PSoC4/CAN.c **** * Summary:
1036:Generated_Source\PSoC4/CAN.c **** *  This function writes only receive CAN registers.
1037:Generated_Source\PSoC4/CAN.c **** *
1038:Generated_Source\PSoC4/CAN.c **** * Parameters:
1039:Generated_Source\PSoC4/CAN.c **** *  regAddr: The pointer to a CAN receive register;
1040:Generated_Source\PSoC4/CAN.c **** *  config:  The value that will be written in the register.
1041:Generated_Source\PSoC4/CAN.c **** *
1042:Generated_Source\PSoC4/CAN.c **** * Return:
1043:Generated_Source\PSoC4/CAN.c **** *  The indication whether the register is written and verified.
1044:Generated_Source\PSoC4/CAN.c **** *   Define                             Description
1045:Generated_Source\PSoC4/CAN.c **** *    CYRET_SUCCESS                      The function passed successfully
1046:Generated_Source\PSoC4/CAN.c **** *    CAN_FAIL              The function failed
1047:Generated_Source\PSoC4/CAN.c **** *    CAN_OUT_OF_RANGE      The function parameter is out of range
1048:Generated_Source\PSoC4/CAN.c **** *
1049:Generated_Source\PSoC4/CAN.c **** *******************************************************************************/
1050:Generated_Source\PSoC4/CAN.c **** uint8 CAN_RXRegisterInit(reg32 *regAddr, uint32 config)
1051:Generated_Source\PSoC4/CAN.c ****                                       
1052:Generated_Source\PSoC4/CAN.c **** {
 701              		.loc 1 1052 0
 702              		.cfi_startproc
 703              		@ args = 0, pretend = 0, frame = 0
 704              		@ frame_needed = 0, uses_anonymous_args = 0
 705              	.LVL75:
 706 0000 70B5     		push	{r4, r5, r6, lr}
 707              		.cfi_def_cfa_offset 16
 708              		.cfi_offset 4, -16
 709              		.cfi_offset 5, -12
 710              		.cfi_offset 6, -8
 711              		.cfi_offset 14, -4
 712 0002 0500     		movs	r5, r0
 713 0004 0C00     		movs	r4, r1
 714              	.LVL76:
1053:Generated_Source\PSoC4/CAN.c ****     uint8 result = CAN_OUT_OF_RANGE;
1054:Generated_Source\PSoC4/CAN.c **** 
1055:Generated_Source\PSoC4/CAN.c ****     if ((((uint32) regAddr & CAN_REG_ADDR_MASK) >=
 715              		.loc 1 1055 0
 716 0006 0304     		lsls	r3, r0, #16
 717 0008 1B0C     		lsrs	r3, r3, #16
1056:Generated_Source\PSoC4/CAN.c ****         ((uint32) CAN_RX_FIRST_REGISTER_PTR & CAN_REG_ADDR_MASK)) &&
 718              		.loc 1 1056 0
 719 000a A03B     		subs	r3, r3, #160
1055:Generated_Source\PSoC4/CAN.c ****         ((uint32) CAN_RX_FIRST_REGISTER_PTR & CAN_REG_ADDR_MASK)) &&
 720              		.loc 1 1055 0
 721 000c FE22     		movs	r2, #254
 722 000e 5200     		lsls	r2, r2, #1
 723 0010 9342     		cmp	r3, r2
 724 0012 1DD8     		bhi	.L72
 725              	.LVL77:
1057:Generated_Source\PSoC4/CAN.c ****         ((((uint32) regAddr & CAN_REG_ADDR_MASK)) <=
ARM GAS  C:\Users\davis\AppData\Local\Temp\cco880hz.s 			page 33


1058:Generated_Source\PSoC4/CAN.c ****         ((uint32) CAN_RX_LAST_REGISTER_PTR & CAN_REG_ADDR_MASK)))
1059:Generated_Source\PSoC4/CAN.c ****     {
1060:Generated_Source\PSoC4/CAN.c ****         result = CAN_FAIL;
1061:Generated_Source\PSoC4/CAN.c **** 
1062:Generated_Source\PSoC4/CAN.c ****         if ((((uint32) regAddr & CAN_REG_ADDR_MASK) % CAN_RX_CMD_REG_WIDTH) == 0u)
 726              		.loc 1 1062 0
 727 0014 C306     		lsls	r3, r0, #27
 728 0016 0FD1     		bne	.L71
1063:Generated_Source\PSoC4/CAN.c ****         {
1064:Generated_Source\PSoC4/CAN.c ****             config |= CAN_RX_WPN_SET;
 729              		.loc 1 1064 0
 730 0018 104B     		ldr	r3, .L75
 731 001a 1C43     		orrs	r4, r3
 732              	.LVL78:
1065:Generated_Source\PSoC4/CAN.c **** 
1066:Generated_Source\PSoC4/CAN.c ****     /* Disable isr */
1067:Generated_Source\PSoC4/CAN.c ****     CyIntDisable(CAN_ISR_NUMBER);
 733              		.loc 1 1067 0
 734 001c 1D20     		movs	r0, #29
 735              	.LVL79:
 736 001e FFF7FEFF 		bl	CyIntDisable
 737              	.LVL80:
1068:Generated_Source\PSoC4/CAN.c **** 
1069:Generated_Source\PSoC4/CAN.c ****             /* Write defined RX CMD registers */
1070:Generated_Source\PSoC4/CAN.c ****             CY_SET_REG32(regAddr, config);
 738              		.loc 1 1070 0
 739 0022 2C60     		str	r4, [r5]
1071:Generated_Source\PSoC4/CAN.c **** 
1072:Generated_Source\PSoC4/CAN.c ****     /* Enable isr */
1073:Generated_Source\PSoC4/CAN.c ****     CyIntEnable(CAN_ISR_NUMBER);
 740              		.loc 1 1073 0
 741 0024 1D20     		movs	r0, #29
 742 0026 FFF7FEFF 		bl	CyIntEnable
 743              	.LVL81:
1074:Generated_Source\PSoC4/CAN.c **** 
1075:Generated_Source\PSoC4/CAN.c ****             /* Verify register */
1076:Generated_Source\PSoC4/CAN.c ****             if ((CY_GET_REG32(regAddr) & CAN_RX_READ_BACK_MASK) ==
 744              		.loc 1 1076 0
 745 002a 2B68     		ldr	r3, [r5]
 746 002c 5C40     		eors	r4, r3
 747              	.LVL82:
 748 002e 0C4B     		ldr	r3, .L75+4
 749 0030 1C42     		tst	r4, r3
 750 0032 0FD0     		beq	.L73
1060:Generated_Source\PSoC4/CAN.c **** 
 751              		.loc 1 1060 0
 752 0034 0120     		movs	r0, #1
 753 0036 10E0     		b	.L70
 754              	.LVL83:
 755              	.L71:
1077:Generated_Source\PSoC4/CAN.c ****                 (config & CAN_RX_READ_BACK_MASK))
1078:Generated_Source\PSoC4/CAN.c ****             {
1079:Generated_Source\PSoC4/CAN.c ****                 result = CYRET_SUCCESS;
1080:Generated_Source\PSoC4/CAN.c ****             }
1081:Generated_Source\PSoC4/CAN.c ****         }
1082:Generated_Source\PSoC4/CAN.c ****         /* All registers except RX CMD*/
1083:Generated_Source\PSoC4/CAN.c ****         else
ARM GAS  C:\Users\davis\AppData\Local\Temp\cco880hz.s 			page 34


1084:Generated_Source\PSoC4/CAN.c ****         {
1085:Generated_Source\PSoC4/CAN.c ****     /* Disable isr */
1086:Generated_Source\PSoC4/CAN.c ****     CyIntDisable(CAN_ISR_NUMBER);
 756              		.loc 1 1086 0
 757 0038 1D20     		movs	r0, #29
 758              	.LVL84:
 759 003a FFF7FEFF 		bl	CyIntDisable
 760              	.LVL85:
1087:Generated_Source\PSoC4/CAN.c **** 
1088:Generated_Source\PSoC4/CAN.c ****             /* Write defined CAN receive register */
1089:Generated_Source\PSoC4/CAN.c ****             CY_SET_REG32(regAddr, config);
 761              		.loc 1 1089 0
 762 003e 2C60     		str	r4, [r5]
1090:Generated_Source\PSoC4/CAN.c **** 
1091:Generated_Source\PSoC4/CAN.c ****     /* Enable isr */
1092:Generated_Source\PSoC4/CAN.c ****     CyIntEnable(CAN_ISR_NUMBER);
 763              		.loc 1 1092 0
 764 0040 1D20     		movs	r0, #29
 765 0042 FFF7FEFF 		bl	CyIntEnable
 766              	.LVL86:
1093:Generated_Source\PSoC4/CAN.c **** 
1094:Generated_Source\PSoC4/CAN.c ****             /* Verify register */
1095:Generated_Source\PSoC4/CAN.c ****             if (CY_GET_REG32(regAddr) == config)
 767              		.loc 1 1095 0
 768 0046 2B68     		ldr	r3, [r5]
 769 0048 9C42     		cmp	r4, r3
 770 004a 05D0     		beq	.L74
1060:Generated_Source\PSoC4/CAN.c **** 
 771              		.loc 1 1060 0
 772 004c 0120     		movs	r0, #1
 773 004e 04E0     		b	.L70
 774              	.LVL87:
 775              	.L72:
1053:Generated_Source\PSoC4/CAN.c **** 
 776              		.loc 1 1053 0
 777 0050 0220     		movs	r0, #2
 778              	.LVL88:
 779 0052 02E0     		b	.L70
 780              	.LVL89:
 781              	.L73:
1079:Generated_Source\PSoC4/CAN.c ****             }
 782              		.loc 1 1079 0
 783 0054 0020     		movs	r0, #0
 784 0056 00E0     		b	.L70
 785              	.LVL90:
 786              	.L74:
1096:Generated_Source\PSoC4/CAN.c ****             {
1097:Generated_Source\PSoC4/CAN.c ****                 result = CYRET_SUCCESS;
 787              		.loc 1 1097 0
 788 0058 0020     		movs	r0, #0
 789              	.LVL91:
 790              	.L70:
1098:Generated_Source\PSoC4/CAN.c ****             }
1099:Generated_Source\PSoC4/CAN.c ****         }
1100:Generated_Source\PSoC4/CAN.c ****     }
1101:Generated_Source\PSoC4/CAN.c **** 
1102:Generated_Source\PSoC4/CAN.c ****     return (result);
ARM GAS  C:\Users\davis\AppData\Local\Temp\cco880hz.s 			page 35


1103:Generated_Source\PSoC4/CAN.c **** }
 791              		.loc 1 1103 0
 792              		@ sp needed
 793              	.LVL92:
 794 005a 70BD     		pop	{r4, r5, r6, pc}
 795              	.L76:
 796              		.align	2
 797              	.L75:
 798 005c 80008000 		.word	8388736
 799 0060 7F007F00 		.word	8323199
 800              		.cfi_endproc
 801              	.LFE14:
 802              		.size	CAN_RXRegisterInit, .-CAN_RXRegisterInit
 803              		.section	.text.CAN_SetIrqMask,"ax",%progbits
 804              		.align	2
 805              		.global	CAN_SetIrqMask
 806              		.code	16
 807              		.thumb_func
 808              		.type	CAN_SetIrqMask, %function
 809              	CAN_SetIrqMask:
 810              	.LFB15:
1104:Generated_Source\PSoC4/CAN.c **** 
1105:Generated_Source\PSoC4/CAN.c **** 
1106:Generated_Source\PSoC4/CAN.c **** /*******************************************************************************
1107:Generated_Source\PSoC4/CAN.c **** * FUNCTION NAME:   CAN_SetIrqMask
1108:Generated_Source\PSoC4/CAN.c **** ********************************************************************************
1109:Generated_Source\PSoC4/CAN.c **** *
1110:Generated_Source\PSoC4/CAN.c **** * Summary:
1111:Generated_Source\PSoC4/CAN.c **** *  This function sets to enable/disable particular interrupt sources. Interrupt
1112:Generated_Source\PSoC4/CAN.c **** *  Mask directly write to the CAN Interrupt Enable register. A particular
1113:Generated_Source\PSoC4/CAN.c **** *  interrupt source is enabled by setting its respective flag to 1.
1114:Generated_Source\PSoC4/CAN.c **** *
1115:Generated_Source\PSoC4/CAN.c **** * Parameters:
1116:Generated_Source\PSoC4/CAN.c **** *  mask: Interrupt enable/disable request. 1 bit per interrupt source.
1117:Generated_Source\PSoC4/CAN.c **** *   Define                                    Description
1118:Generated_Source\PSoC4/CAN.c **** *    CAN_GLOBAL_INT_ENABLE        Global Interrupt Enable Flag
1119:Generated_Source\PSoC4/CAN.c **** *    CAN_ARBITRATION_LOST_ENABLE  Arbitration Loss Interrupt Enable
1120:Generated_Source\PSoC4/CAN.c **** *    CAN_OVERLOAD_ERROR_ENABLE    Overload Interrupt Enable
1121:Generated_Source\PSoC4/CAN.c **** *    CAN_BIT_ERROR_ENABLE         Bit Error Interrupt Enable
1122:Generated_Source\PSoC4/CAN.c **** *    CAN_STUFF_ERROR_ENABLE       Stuff Error Interrupt Enable
1123:Generated_Source\PSoC4/CAN.c **** *    CAN_ACK_ERROR_ENABLE         Ack Error Interrupt Enable
1124:Generated_Source\PSoC4/CAN.c **** *    CAN_FORM_ERROR_ENABLE        Form Error Interrupt Enable
1125:Generated_Source\PSoC4/CAN.c **** *    CAN_CRC_ERROR_ENABLE         CRC Error Interrupt Enable
1126:Generated_Source\PSoC4/CAN.c **** *    CAN_BUS_OFF_ENABLE           Bus-Off State Interrupt Enable
1127:Generated_Source\PSoC4/CAN.c **** *    CAN_RX_MSG_LOST_ENABLE       Rx Msg Loss Interrupt Enable
1128:Generated_Source\PSoC4/CAN.c **** *    CAN_TX_MESSAGE_ENABLE        Tx Msg Sent Interrupt Enable
1129:Generated_Source\PSoC4/CAN.c **** *    CAN_RX_MESSAGE_ENABLE        Msg Received Interrupt Enable
1130:Generated_Source\PSoC4/CAN.c **** *    CAN_RTR_MESSAGE_ENABLE       RTR Auto-reply Interrupt Enable
1131:Generated_Source\PSoC4/CAN.c **** *    CAN_STUCK_AT_ZERO_ENABLE     Stuck at dominant error Interrupt
1132:Generated_Source\PSoC4/CAN.c **** *                                              Enable
1133:Generated_Source\PSoC4/CAN.c **** *    CAN_SST_FAILURE_ENABLE       SST failure Interrupt Enable
1134:Generated_Source\PSoC4/CAN.c **** *
1135:Generated_Source\PSoC4/CAN.c **** * Return:
1136:Generated_Source\PSoC4/CAN.c **** *  The indication whether the register is written and verified.
1137:Generated_Source\PSoC4/CAN.c **** *   Define                             Description
1138:Generated_Source\PSoC4/CAN.c **** *    CYRET_SUCCESS                      The function passed successfully
1139:Generated_Source\PSoC4/CAN.c **** *    CAN_FAIL              The function failed
ARM GAS  C:\Users\davis\AppData\Local\Temp\cco880hz.s 			page 36


1140:Generated_Source\PSoC4/CAN.c **** *
1141:Generated_Source\PSoC4/CAN.c **** *******************************************************************************/
1142:Generated_Source\PSoC4/CAN.c **** uint8 CAN_SetIrqMask(uint16 mask) 
1143:Generated_Source\PSoC4/CAN.c **** {
 811              		.loc 1 1143 0
 812              		.cfi_startproc
 813              		@ args = 0, pretend = 0, frame = 0
 814              		@ frame_needed = 0, uses_anonymous_args = 0
 815              		@ link register save eliminated.
 816              	.LVL93:
1144:Generated_Source\PSoC4/CAN.c ****     uint8 result = CAN_FAIL;
1145:Generated_Source\PSoC4/CAN.c **** 
1146:Generated_Source\PSoC4/CAN.c ****     #if (CY_PSOC3 || CY_PSOC5)
1147:Generated_Source\PSoC4/CAN.c ****         /* Write byte 0 and 1 of CAN_INT_EN_REG register */
1148:Generated_Source\PSoC4/CAN.c ****         CY_SET_REG16((reg16 *) (&CAN_INT_EN_REG), mask);
1149:Generated_Source\PSoC4/CAN.c **** 
1150:Generated_Source\PSoC4/CAN.c ****         /* Verify CAN_INT_EN_REG register */
1151:Generated_Source\PSoC4/CAN.c ****         if (CY_GET_REG16((reg16 *) (&CAN_INT_EN_REG)) == mask)
1152:Generated_Source\PSoC4/CAN.c ****         {
1153:Generated_Source\PSoC4/CAN.c ****             result = CYRET_SUCCESS;
1154:Generated_Source\PSoC4/CAN.c ****         }
1155:Generated_Source\PSoC4/CAN.c ****     #else  /* CY_PSOC4 */
1156:Generated_Source\PSoC4/CAN.c ****         /* Write byte 0 and 1 of CAN_INT_EN_REG register */
1157:Generated_Source\PSoC4/CAN.c ****         CAN_INT_EN_REG = mask;
 817              		.loc 1 1157 0
 818 0000 054B     		ldr	r3, .L80
 819 0002 1860     		str	r0, [r3]
1158:Generated_Source\PSoC4/CAN.c **** 
1159:Generated_Source\PSoC4/CAN.c ****         /* Verify CAN_INT_EN_REG register */
1160:Generated_Source\PSoC4/CAN.c ****         if ((CAN_INT_EN_REG & CAN_REG_ADDR_MASK) == mask)
 820              		.loc 1 1160 0
 821 0004 1B68     		ldr	r3, [r3]
 822 0006 1B04     		lsls	r3, r3, #16
 823 0008 1B0C     		lsrs	r3, r3, #16
 824 000a 9842     		cmp	r0, r3
 825 000c 01D0     		beq	.L79
1144:Generated_Source\PSoC4/CAN.c ****     uint8 result = CAN_FAIL;
 826              		.loc 1 1144 0
 827 000e 0120     		movs	r0, #1
 828              	.LVL94:
 829 0010 00E0     		b	.L78
 830              	.LVL95:
 831              	.L79:
1161:Generated_Source\PSoC4/CAN.c ****         {
1162:Generated_Source\PSoC4/CAN.c ****             result = CYRET_SUCCESS;
 832              		.loc 1 1162 0
 833 0012 0020     		movs	r0, #0
 834              	.LVL96:
 835              	.L78:
1163:Generated_Source\PSoC4/CAN.c ****         }
1164:Generated_Source\PSoC4/CAN.c ****     #endif /* CY_PSOC3 || CY_PSOC5 */
1165:Generated_Source\PSoC4/CAN.c **** 
1166:Generated_Source\PSoC4/CAN.c ****     return (result);
1167:Generated_Source\PSoC4/CAN.c **** }
 836              		.loc 1 1167 0
 837              		@ sp needed
 838 0014 7047     		bx	lr
ARM GAS  C:\Users\davis\AppData\Local\Temp\cco880hz.s 			page 37


 839              	.L81:
 840 0016 C046     		.align	2
 841              	.L80:
 842 0018 04002F40 		.word	1076822020
 843              		.cfi_endproc
 844              	.LFE15:
 845              		.size	CAN_SetIrqMask, .-CAN_SetIrqMask
 846              		.section	.text.CAN_GetTXErrorFlag,"ax",%progbits
 847              		.align	2
 848              		.global	CAN_GetTXErrorFlag
 849              		.code	16
 850              		.thumb_func
 851              		.type	CAN_GetTXErrorFlag, %function
 852              	CAN_GetTXErrorFlag:
 853              	.LFB16:
1168:Generated_Source\PSoC4/CAN.c **** 
1169:Generated_Source\PSoC4/CAN.c **** 
1170:Generated_Source\PSoC4/CAN.c **** /*******************************************************************************
1171:Generated_Source\PSoC4/CAN.c **** * FUNCTION NAME:   CAN_GetTXErrorFlag
1172:Generated_Source\PSoC4/CAN.c **** ********************************************************************************
1173:Generated_Source\PSoC4/CAN.c **** *
1174:Generated_Source\PSoC4/CAN.c **** * Summary:
1175:Generated_Source\PSoC4/CAN.c **** *  This function returns the bit that indicates if the number of TX errors
1176:Generated_Source\PSoC4/CAN.c **** *  exceeds 0x60.
1177:Generated_Source\PSoC4/CAN.c **** *
1178:Generated_Source\PSoC4/CAN.c **** * Parameters:
1179:Generated_Source\PSoC4/CAN.c **** *  None.
1180:Generated_Source\PSoC4/CAN.c **** *
1181:Generated_Source\PSoC4/CAN.c **** * Return:
1182:Generated_Source\PSoC4/CAN.c **** *  The indication whether the number of TX errors exceeds 0x60.
1183:Generated_Source\PSoC4/CAN.c **** *
1184:Generated_Source\PSoC4/CAN.c **** *******************************************************************************/
1185:Generated_Source\PSoC4/CAN.c **** uint8 CAN_GetTXErrorFlag(void) 
1186:Generated_Source\PSoC4/CAN.c **** {
 854              		.loc 1 1186 0
 855              		.cfi_startproc
 856              		@ args = 0, pretend = 0, frame = 0
 857              		@ frame_needed = 0, uses_anonymous_args = 0
 858              		@ link register save eliminated.
1187:Generated_Source\PSoC4/CAN.c ****     #if (CY_PSOC3 || CY_PSOC5)
1188:Generated_Source\PSoC4/CAN.c ****         /* Get state of transmit error flag */
1189:Generated_Source\PSoC4/CAN.c ****         return (((CAN_ERR_SR_REG.byte[2u] & CAN_TX_ERROR_FLAG_MASK) ==
1190:Generated_Source\PSoC4/CAN.c ****                   CAN_TX_ERROR_FLAG_MASK) ? 1u : 0u);
1191:Generated_Source\PSoC4/CAN.c ****     #else  /* CY_PSOC4 */
1192:Generated_Source\PSoC4/CAN.c ****         /* Get state of transmit error flag */
1193:Generated_Source\PSoC4/CAN.c ****         return (((CAN_ERR_SR_REG & CAN_TX_ERROR_FLAG_MASK) ==
 859              		.loc 1 1193 0
 860 0000 034B     		ldr	r3, .L85
 861 0002 1B68     		ldr	r3, [r3]
 862 0004 5B03     		lsls	r3, r3, #13
 863 0006 01D5     		bpl	.L84
 864 0008 0120     		movs	r0, #1
 865 000a 00E0     		b	.L83
 866              	.L84:
 867 000c 0020     		movs	r0, #0
 868              	.L83:
1194:Generated_Source\PSoC4/CAN.c ****                   CAN_TX_ERROR_FLAG_MASK) ? 1u : 0u);
ARM GAS  C:\Users\davis\AppData\Local\Temp\cco880hz.s 			page 38


1195:Generated_Source\PSoC4/CAN.c ****     #endif /* CY_PSOC3 || CY_PSOC5 */
1196:Generated_Source\PSoC4/CAN.c **** 
1197:Generated_Source\PSoC4/CAN.c **** }
 869              		.loc 1 1197 0 discriminator 4
 870              		@ sp needed
 871 000e 7047     		bx	lr
 872              	.L86:
 873              		.align	2
 874              	.L85:
 875 0010 0C002F40 		.word	1076822028
 876              		.cfi_endproc
 877              	.LFE16:
 878              		.size	CAN_GetTXErrorFlag, .-CAN_GetTXErrorFlag
 879              		.section	.text.CAN_GetRXErrorFlag,"ax",%progbits
 880              		.align	2
 881              		.global	CAN_GetRXErrorFlag
 882              		.code	16
 883              		.thumb_func
 884              		.type	CAN_GetRXErrorFlag, %function
 885              	CAN_GetRXErrorFlag:
 886              	.LFB17:
1198:Generated_Source\PSoC4/CAN.c **** 
1199:Generated_Source\PSoC4/CAN.c **** 
1200:Generated_Source\PSoC4/CAN.c **** /*******************************************************************************
1201:Generated_Source\PSoC4/CAN.c **** * FUNCTION NAME:   CAN_GetRXErrorFlag
1202:Generated_Source\PSoC4/CAN.c **** ********************************************************************************
1203:Generated_Source\PSoC4/CAN.c **** *
1204:Generated_Source\PSoC4/CAN.c **** * Summary:
1205:Generated_Source\PSoC4/CAN.c **** *  This function returns the bit that indicates if the number of RX errors
1206:Generated_Source\PSoC4/CAN.c **** *  exceeds 0x60.
1207:Generated_Source\PSoC4/CAN.c **** *
1208:Generated_Source\PSoC4/CAN.c **** * Parameters:
1209:Generated_Source\PSoC4/CAN.c **** *  None.
1210:Generated_Source\PSoC4/CAN.c **** *
1211:Generated_Source\PSoC4/CAN.c **** * Return:
1212:Generated_Source\PSoC4/CAN.c **** *  The indication whether the number of TX errors exceeds 0x60.
1213:Generated_Source\PSoC4/CAN.c **** *
1214:Generated_Source\PSoC4/CAN.c **** *******************************************************************************/
1215:Generated_Source\PSoC4/CAN.c **** uint8 CAN_GetRXErrorFlag(void) 
1216:Generated_Source\PSoC4/CAN.c **** {
 887              		.loc 1 1216 0
 888              		.cfi_startproc
 889              		@ args = 0, pretend = 0, frame = 0
 890              		@ frame_needed = 0, uses_anonymous_args = 0
 891              		@ link register save eliminated.
1217:Generated_Source\PSoC4/CAN.c ****     #if (CY_PSOC3 || CY_PSOC5)
1218:Generated_Source\PSoC4/CAN.c ****         /* Get state of receive error flag */
1219:Generated_Source\PSoC4/CAN.c ****         return (((CAN_ERR_SR_REG.byte[2u] & CAN_RX_ERROR_FLAG_MASK) ==
1220:Generated_Source\PSoC4/CAN.c ****                   CAN_RX_ERROR_FLAG_MASK) ? 1u : 0u);
1221:Generated_Source\PSoC4/CAN.c ****     #else  /* CY_PSOC4 */
1222:Generated_Source\PSoC4/CAN.c ****         /* Get state of receive error flag */
1223:Generated_Source\PSoC4/CAN.c ****         return (((CAN_ERR_SR_REG & CAN_RX_ERROR_FLAG_MASK) ==
 892              		.loc 1 1223 0
 893 0000 034B     		ldr	r3, .L90
 894 0002 1B68     		ldr	r3, [r3]
 895 0004 1B03     		lsls	r3, r3, #12
 896 0006 01D5     		bpl	.L89
ARM GAS  C:\Users\davis\AppData\Local\Temp\cco880hz.s 			page 39


 897 0008 0120     		movs	r0, #1
 898 000a 00E0     		b	.L88
 899              	.L89:
 900 000c 0020     		movs	r0, #0
 901              	.L88:
1224:Generated_Source\PSoC4/CAN.c ****                   CAN_RX_ERROR_FLAG_MASK) ? 1u : 0u);
1225:Generated_Source\PSoC4/CAN.c ****     #endif /* CY_PSOC3 || CY_PSOC5 */
1226:Generated_Source\PSoC4/CAN.c **** 
1227:Generated_Source\PSoC4/CAN.c **** }
 902              		.loc 1 1227 0 discriminator 4
 903              		@ sp needed
 904 000e 7047     		bx	lr
 905              	.L91:
 906              		.align	2
 907              	.L90:
 908 0010 0C002F40 		.word	1076822028
 909              		.cfi_endproc
 910              	.LFE17:
 911              		.size	CAN_GetRXErrorFlag, .-CAN_GetRXErrorFlag
 912              		.section	.text.CAN_GetTXErrorCount,"ax",%progbits
 913              		.align	2
 914              		.global	CAN_GetTXErrorCount
 915              		.code	16
 916              		.thumb_func
 917              		.type	CAN_GetTXErrorCount, %function
 918              	CAN_GetTXErrorCount:
 919              	.LFB18:
1228:Generated_Source\PSoC4/CAN.c **** 
1229:Generated_Source\PSoC4/CAN.c **** 
1230:Generated_Source\PSoC4/CAN.c **** /*******************************************************************************
1231:Generated_Source\PSoC4/CAN.c **** * FUNCTION NAME:   CAN_GetTXErrorCount
1232:Generated_Source\PSoC4/CAN.c **** ********************************************************************************
1233:Generated_Source\PSoC4/CAN.c **** *
1234:Generated_Source\PSoC4/CAN.c **** * Summary:
1235:Generated_Source\PSoC4/CAN.c **** *  This function returns the number of Transmit Errors.
1236:Generated_Source\PSoC4/CAN.c **** *
1237:Generated_Source\PSoC4/CAN.c **** * Parameters:
1238:Generated_Source\PSoC4/CAN.c **** *  None.
1239:Generated_Source\PSoC4/CAN.c **** *
1240:Generated_Source\PSoC4/CAN.c **** * Return:
1241:Generated_Source\PSoC4/CAN.c **** *  The number of Transmit Errors.
1242:Generated_Source\PSoC4/CAN.c **** *
1243:Generated_Source\PSoC4/CAN.c **** *******************************************************************************/
1244:Generated_Source\PSoC4/CAN.c **** uint8 CAN_GetTXErrorCount(void) 
1245:Generated_Source\PSoC4/CAN.c **** {
 920              		.loc 1 1245 0
 921              		.cfi_startproc
 922              		@ args = 0, pretend = 0, frame = 0
 923              		@ frame_needed = 0, uses_anonymous_args = 0
 924              		@ link register save eliminated.
1246:Generated_Source\PSoC4/CAN.c ****     #if (CY_PSOC3 || CY_PSOC5)
1247:Generated_Source\PSoC4/CAN.c ****         /* Get state of transmit error count */
1248:Generated_Source\PSoC4/CAN.c ****         return (CAN_ERR_SR_REG.byte[0u]);    /* bits 7-0 */
1249:Generated_Source\PSoC4/CAN.c ****     #else  /* CY_PSOC4 */
1250:Generated_Source\PSoC4/CAN.c ****         /* Get state of transmit error count */
1251:Generated_Source\PSoC4/CAN.c ****         return ((uint8) CAN_ERR_SR_REG);    /* bits 7-0 */
 925              		.loc 1 1251 0
ARM GAS  C:\Users\davis\AppData\Local\Temp\cco880hz.s 			page 40


 926 0000 014B     		ldr	r3, .L93
 927 0002 1868     		ldr	r0, [r3]
 928 0004 C0B2     		uxtb	r0, r0
1252:Generated_Source\PSoC4/CAN.c ****     #endif /* CY_PSOC3 || CY_PSOC5 */
1253:Generated_Source\PSoC4/CAN.c **** }
 929              		.loc 1 1253 0
 930              		@ sp needed
 931 0006 7047     		bx	lr
 932              	.L94:
 933              		.align	2
 934              	.L93:
 935 0008 0C002F40 		.word	1076822028
 936              		.cfi_endproc
 937              	.LFE18:
 938              		.size	CAN_GetTXErrorCount, .-CAN_GetTXErrorCount
 939              		.section	.text.CAN_GetRXErrorCount,"ax",%progbits
 940              		.align	2
 941              		.global	CAN_GetRXErrorCount
 942              		.code	16
 943              		.thumb_func
 944              		.type	CAN_GetRXErrorCount, %function
 945              	CAN_GetRXErrorCount:
 946              	.LFB19:
1254:Generated_Source\PSoC4/CAN.c **** 
1255:Generated_Source\PSoC4/CAN.c **** 
1256:Generated_Source\PSoC4/CAN.c **** /*******************************************************************************
1257:Generated_Source\PSoC4/CAN.c **** * FUNCTION NAME:   CAN_GetRXErrorCount
1258:Generated_Source\PSoC4/CAN.c **** ********************************************************************************
1259:Generated_Source\PSoC4/CAN.c **** *
1260:Generated_Source\PSoC4/CAN.c **** * Summary:
1261:Generated_Source\PSoC4/CAN.c **** *  This function returns the number of Receive Errors.
1262:Generated_Source\PSoC4/CAN.c **** *
1263:Generated_Source\PSoC4/CAN.c **** * Parameters:
1264:Generated_Source\PSoC4/CAN.c **** *  None.
1265:Generated_Source\PSoC4/CAN.c **** *
1266:Generated_Source\PSoC4/CAN.c **** * Return:
1267:Generated_Source\PSoC4/CAN.c **** *  The number of Receive Errors.
1268:Generated_Source\PSoC4/CAN.c **** *
1269:Generated_Source\PSoC4/CAN.c **** *******************************************************************************/
1270:Generated_Source\PSoC4/CAN.c **** uint8 CAN_GetRXErrorCount(void) 
1271:Generated_Source\PSoC4/CAN.c **** {
 947              		.loc 1 1271 0
 948              		.cfi_startproc
 949              		@ args = 0, pretend = 0, frame = 0
 950              		@ frame_needed = 0, uses_anonymous_args = 0
 951              		@ link register save eliminated.
1272:Generated_Source\PSoC4/CAN.c ****     #if (CY_PSOC3 || CY_PSOC5)
1273:Generated_Source\PSoC4/CAN.c ****         /* Get state of receive error count */
1274:Generated_Source\PSoC4/CAN.c ****         return (CAN_ERR_SR_REG.byte[1u]);    /* bits 15-8 */
1275:Generated_Source\PSoC4/CAN.c ****     #else  /* CY_PSOC4 */
1276:Generated_Source\PSoC4/CAN.c ****         /* Get state of receive error count (bits 15-8) */
1277:Generated_Source\PSoC4/CAN.c ****         return ((uint8) (CAN_ERR_SR_REG >> CAN_ONE_BYTE_OFFSET));
 952              		.loc 1 1277 0
 953 0000 024B     		ldr	r3, .L96
 954 0002 1868     		ldr	r0, [r3]
 955 0004 000A     		lsrs	r0, r0, #8
 956 0006 C0B2     		uxtb	r0, r0
ARM GAS  C:\Users\davis\AppData\Local\Temp\cco880hz.s 			page 41


1278:Generated_Source\PSoC4/CAN.c ****     #endif /* CY_PSOC3 || CY_PSOC5 */
1279:Generated_Source\PSoC4/CAN.c **** 
1280:Generated_Source\PSoC4/CAN.c **** }
 957              		.loc 1 1280 0
 958              		@ sp needed
 959 0008 7047     		bx	lr
 960              	.L97:
 961 000a C046     		.align	2
 962              	.L96:
 963 000c 0C002F40 		.word	1076822028
 964              		.cfi_endproc
 965              	.LFE19:
 966              		.size	CAN_GetRXErrorCount, .-CAN_GetRXErrorCount
 967              		.section	.text.CAN_GetErrorState,"ax",%progbits
 968              		.align	2
 969              		.global	CAN_GetErrorState
 970              		.code	16
 971              		.thumb_func
 972              		.type	CAN_GetErrorState, %function
 973              	CAN_GetErrorState:
 974              	.LFB20:
1281:Generated_Source\PSoC4/CAN.c **** 
1282:Generated_Source\PSoC4/CAN.c **** 
1283:Generated_Source\PSoC4/CAN.c **** /*******************************************************************************
1284:Generated_Source\PSoC4/CAN.c **** * FUNCTION NAME:   CAN_GetErrorState
1285:Generated_Source\PSoC4/CAN.c **** ********************************************************************************
1286:Generated_Source\PSoC4/CAN.c **** *
1287:Generated_Source\PSoC4/CAN.c **** * Summary:
1288:Generated_Source\PSoC4/CAN.c **** *  This function returns the error status of CAN Component.
1289:Generated_Source\PSoC4/CAN.c **** *
1290:Generated_Source\PSoC4/CAN.c **** * Parameters:
1291:Generated_Source\PSoC4/CAN.c **** *  None.
1292:Generated_Source\PSoC4/CAN.c **** *
1293:Generated_Source\PSoC4/CAN.c **** * Return:
1294:Generated_Source\PSoC4/CAN.c **** *  The error status.
1295:Generated_Source\PSoC4/CAN.c **** *
1296:Generated_Source\PSoC4/CAN.c **** *******************************************************************************/
1297:Generated_Source\PSoC4/CAN.c **** uint8 CAN_GetErrorState(void) 
1298:Generated_Source\PSoC4/CAN.c **** {
 975              		.loc 1 1298 0
 976              		.cfi_startproc
 977              		@ args = 0, pretend = 0, frame = 0
 978              		@ frame_needed = 0, uses_anonymous_args = 0
 979              		@ link register save eliminated.
1299:Generated_Source\PSoC4/CAN.c ****     #if (CY_PSOC3 || CY_PSOC5)
1300:Generated_Source\PSoC4/CAN.c ****         /* Get error state of receiver */
1301:Generated_Source\PSoC4/CAN.c ****         return (CAN_ERR_SR_REG.byte[2u] & CAN_ERROR_STATE_MASK);
1302:Generated_Source\PSoC4/CAN.c ****     #else  /* CY_PSOC4 */
1303:Generated_Source\PSoC4/CAN.c ****         /* Get error state of receiver */
1304:Generated_Source\PSoC4/CAN.c ****         return ((uint8) ((CAN_ERR_SR_REG >> CAN_TWO_BYTE_OFFSET) &
 980              		.loc 1 1304 0
 981 0000 024B     		ldr	r3, .L99
 982 0002 1868     		ldr	r0, [r3]
 983 0004 000C     		lsrs	r0, r0, #16
 984 0006 0323     		movs	r3, #3
 985 0008 1840     		ands	r0, r3
1305:Generated_Source\PSoC4/CAN.c ****                 CAN_ERROR_STATE_MASK));
ARM GAS  C:\Users\davis\AppData\Local\Temp\cco880hz.s 			page 42


1306:Generated_Source\PSoC4/CAN.c ****     #endif /* CY_PSOC3 || CY_PSOC5 */
1307:Generated_Source\PSoC4/CAN.c **** }
 986              		.loc 1 1307 0
 987              		@ sp needed
 988 000a 7047     		bx	lr
 989              	.L100:
 990              		.align	2
 991              	.L99:
 992 000c 0C002F40 		.word	1076822028
 993              		.cfi_endproc
 994              	.LFE20:
 995              		.size	CAN_GetErrorState, .-CAN_GetErrorState
 996              		.section	.text.CAN_RxBufConfig,"ax",%progbits
 997              		.align	2
 998              		.global	CAN_RxBufConfig
 999              		.code	16
 1000              		.thumb_func
 1001              		.type	CAN_RxBufConfig, %function
 1002              	CAN_RxBufConfig:
 1003              	.LFB21:
1308:Generated_Source\PSoC4/CAN.c **** 
1309:Generated_Source\PSoC4/CAN.c **** 
1310:Generated_Source\PSoC4/CAN.c **** /*******************************************************************************
1311:Generated_Source\PSoC4/CAN.c **** * FUNCTION NAME:   CAN_RxBufConfig
1312:Generated_Source\PSoC4/CAN.c **** ********************************************************************************
1313:Generated_Source\PSoC4/CAN.c **** *
1314:Generated_Source\PSoC4/CAN.c **** * Summary:
1315:Generated_Source\PSoC4/CAN.c **** *  This function configures all receive registers for a particular mailbox.
1316:Generated_Source\PSoC4/CAN.c **** *
1317:Generated_Source\PSoC4/CAN.c **** * Parameters:
1318:Generated_Source\PSoC4/CAN.c **** *  rxConfig: The pointer to a structure that contain all required values to
1319:Generated_Source\PSoC4/CAN.c **** *  configure all receive registers for a particular mailbox.
1320:Generated_Source\PSoC4/CAN.c **** *
1321:Generated_Source\PSoC4/CAN.c **** * Return:
1322:Generated_Source\PSoC4/CAN.c **** *  The indication if particular configuration has been accepted or rejected.
1323:Generated_Source\PSoC4/CAN.c **** *   Define                             Description
1324:Generated_Source\PSoC4/CAN.c **** *    CYRET_SUCCESS                      The function passed successfully
1325:Generated_Source\PSoC4/CAN.c **** *    CAN_FAIL              The function failed
1326:Generated_Source\PSoC4/CAN.c **** *
1327:Generated_Source\PSoC4/CAN.c **** *******************************************************************************/
1328:Generated_Source\PSoC4/CAN.c **** uint8 CAN_RxBufConfig(const CAN_RX_CFG *rxConfig)
1329:Generated_Source\PSoC4/CAN.c ****                                    
1330:Generated_Source\PSoC4/CAN.c **** {
 1004              		.loc 1 1330 0
 1005              		.cfi_startproc
 1006              		@ args = 0, pretend = 0, frame = 0
 1007              		@ frame_needed = 0, uses_anonymous_args = 0
 1008              	.LVL97:
 1009 0000 10B5     		push	{r4, lr}
 1010              		.cfi_def_cfa_offset 8
 1011              		.cfi_offset 4, -8
 1012              		.cfi_offset 14, -4
 1013              	.LVL98:
1331:Generated_Source\PSoC4/CAN.c ****     uint8 result = CAN_FAIL;
1332:Generated_Source\PSoC4/CAN.c **** 
1333:Generated_Source\PSoC4/CAN.c ****     /* Write RX CMD Register */
1334:Generated_Source\PSoC4/CAN.c ****     CY_SET_REG32((reg32 *) (&CAN_RX[rxConfig->rxmailbox].rxcmd), (rxConfig->rxcmd |
ARM GAS  C:\Users\davis\AppData\Local\Temp\cco880hz.s 			page 43


 1014              		.loc 1 1334 0
 1015 0002 0378     		ldrb	r3, [r0]
 1016 0004 5B01     		lsls	r3, r3, #5
 1017 0006 204A     		ldr	r2, .L108
 1018 0008 9446     		mov	ip, r2
 1019 000a 6344     		add	r3, r3, ip
 1020 000c 1F4A     		ldr	r2, .L108+4
 1021 000e 4168     		ldr	r1, [r0, #4]
 1022 0010 0A43     		orrs	r2, r1
 1023 0012 1A60     		str	r2, [r3]
1335:Generated_Source\PSoC4/CAN.c ****                  CAN_RX_WPN_SET));
1336:Generated_Source\PSoC4/CAN.c ****     if ((CY_GET_REG32((reg32 *) (&CAN_RX[rxConfig->rxmailbox].rxcmd)) &
 1024              		.loc 1 1336 0
 1025 0014 0378     		ldrb	r3, [r0]
 1026 0016 5B01     		lsls	r3, r3, #5
 1027 0018 6344     		add	r3, r3, ip
 1028 001a 1968     		ldr	r1, [r3]
 1029 001c 1C4A     		ldr	r2, .L108+8
 1030 001e 1140     		ands	r1, r2
1337:Generated_Source\PSoC4/CAN.c ****          CAN_RX_READ_BACK_MASK) == (rxConfig->rxcmd & CAN_RX_WPN_CLEAR))
 1031              		.loc 1 1337 0
 1032 0020 1C4A     		ldr	r2, .L108+12
 1033 0022 4468     		ldr	r4, [r0, #4]
 1034 0024 2240     		ands	r2, r4
1336:Generated_Source\PSoC4/CAN.c ****          CAN_RX_READ_BACK_MASK) == (rxConfig->rxcmd & CAN_RX_WPN_CLEAR))
 1035              		.loc 1 1336 0
 1036 0026 9142     		cmp	r1, r2
 1037 0028 24D1     		bne	.L103
1338:Generated_Source\PSoC4/CAN.c ****     {
1339:Generated_Source\PSoC4/CAN.c ****         /* Write RX AMR Register */
1340:Generated_Source\PSoC4/CAN.c ****         CY_SET_REG32((reg32 *) (&CAN_RX[rxConfig->rxmailbox].rxamr), rxConfig->rxamr);
 1038              		.loc 1 1340 0
 1039 002a 8268     		ldr	r2, [r0, #8]
 1040 002c 1A61     		str	r2, [r3, #16]
1341:Generated_Source\PSoC4/CAN.c ****         if (CY_GET_REG32((reg32 *) (&CAN_RX[rxConfig->rxmailbox].rxamr)) == rxConfig->rxamr)
 1041              		.loc 1 1341 0
 1042 002e 0378     		ldrb	r3, [r0]
 1043 0030 5B01     		lsls	r3, r3, #5
 1044 0032 6344     		add	r3, r3, ip
 1045 0034 1A69     		ldr	r2, [r3, #16]
 1046 0036 8168     		ldr	r1, [r0, #8]
 1047 0038 8A42     		cmp	r2, r1
 1048 003a 1DD1     		bne	.L104
1342:Generated_Source\PSoC4/CAN.c ****         {
1343:Generated_Source\PSoC4/CAN.c ****             /* Write RX ACR Register */
1344:Generated_Source\PSoC4/CAN.c ****             CY_SET_REG32((reg32 *) (&CAN_RX[rxConfig->rxmailbox].rxacr), rxConfig->rxacr);
 1049              		.loc 1 1344 0
 1050 003c C268     		ldr	r2, [r0, #12]
 1051 003e 5A61     		str	r2, [r3, #20]
1345:Generated_Source\PSoC4/CAN.c ****             if (CY_GET_REG32((reg32 *) (&CAN_RX[rxConfig->rxmailbox].rxacr)) == rxConfig->rxacr)
 1052              		.loc 1 1345 0
 1053 0040 0378     		ldrb	r3, [r0]
 1054 0042 5B01     		lsls	r3, r3, #5
 1055 0044 6344     		add	r3, r3, ip
 1056 0046 5A69     		ldr	r2, [r3, #20]
 1057 0048 C168     		ldr	r1, [r0, #12]
 1058 004a 8A42     		cmp	r2, r1
ARM GAS  C:\Users\davis\AppData\Local\Temp\cco880hz.s 			page 44


 1059 004c 16D1     		bne	.L105
1346:Generated_Source\PSoC4/CAN.c ****             {
1347:Generated_Source\PSoC4/CAN.c ****                 /* Write RX AMRD Register */
1348:Generated_Source\PSoC4/CAN.c ****                 CY_SET_REG32((reg32 *) (&CAN_RX[rxConfig->rxmailbox].rxamrd), 0xFFFFFFFFu);
 1060              		.loc 1 1348 0
 1061 004e 0122     		movs	r2, #1
 1062 0050 5242     		rsbs	r2, r2, #0
 1063 0052 9A61     		str	r2, [r3, #24]
1349:Generated_Source\PSoC4/CAN.c ****                 if (CY_GET_REG32((reg32 *) (&CAN_RX[rxConfig->rxmailbox].rxamrd)) == 0xFFFFFFFFu)
 1064              		.loc 1 1349 0
 1065 0054 0378     		ldrb	r3, [r0]
 1066 0056 5B01     		lsls	r3, r3, #5
 1067 0058 6344     		add	r3, r3, ip
 1068 005a 9A69     		ldr	r2, [r3, #24]
 1069 005c 0132     		adds	r2, r2, #1
 1070 005e 0FD1     		bne	.L106
1350:Generated_Source\PSoC4/CAN.c ****                 {
1351:Generated_Source\PSoC4/CAN.c ****                     /* Write RX ACRD Register */
1352:Generated_Source\PSoC4/CAN.c ****                     CY_SET_REG32((reg32 *) (&CAN_RX[rxConfig->rxmailbox].rxacrd), 0x00000000u);
 1071              		.loc 1 1352 0
 1072 0060 0022     		movs	r2, #0
 1073 0062 DA61     		str	r2, [r3, #28]
1353:Generated_Source\PSoC4/CAN.c ****                     if (CY_GET_REG32((reg32 *) (&CAN_RX[rxConfig->rxmailbox].rxacrd)) == 0x00000000
 1074              		.loc 1 1353 0
 1075 0064 0378     		ldrb	r3, [r0]
 1076 0066 5B01     		lsls	r3, r3, #5
 1077 0068 6344     		add	r3, r3, ip
 1078 006a DB69     		ldr	r3, [r3, #28]
 1079 006c 002B     		cmp	r3, #0
 1080 006e 09D0     		beq	.L107
1331:Generated_Source\PSoC4/CAN.c **** 
 1081              		.loc 1 1331 0
 1082 0070 0120     		movs	r0, #1
 1083              	.LVL99:
 1084 0072 08E0     		b	.L102
 1085              	.LVL100:
 1086              	.L103:
 1087 0074 0120     		movs	r0, #1
 1088              	.LVL101:
 1089 0076 06E0     		b	.L102
 1090              	.LVL102:
 1091              	.L104:
 1092 0078 0120     		movs	r0, #1
 1093              	.LVL103:
 1094 007a 04E0     		b	.L102
 1095              	.LVL104:
 1096              	.L105:
 1097 007c 0120     		movs	r0, #1
 1098              	.LVL105:
 1099 007e 02E0     		b	.L102
 1100              	.LVL106:
 1101              	.L106:
 1102 0080 0120     		movs	r0, #1
 1103              	.LVL107:
 1104 0082 00E0     		b	.L102
 1105              	.LVL108:
 1106              	.L107:
ARM GAS  C:\Users\davis\AppData\Local\Temp\cco880hz.s 			page 45


1354:Generated_Source\PSoC4/CAN.c ****                     {
1355:Generated_Source\PSoC4/CAN.c ****                         result = CYRET_SUCCESS;
 1107              		.loc 1 1355 0
 1108 0084 0020     		movs	r0, #0
 1109              	.LVL109:
 1110              	.L102:
1356:Generated_Source\PSoC4/CAN.c ****                     }
1357:Generated_Source\PSoC4/CAN.c ****                 }
1358:Generated_Source\PSoC4/CAN.c ****             }
1359:Generated_Source\PSoC4/CAN.c ****         }
1360:Generated_Source\PSoC4/CAN.c ****     }
1361:Generated_Source\PSoC4/CAN.c **** 
1362:Generated_Source\PSoC4/CAN.c ****     return (result);
1363:Generated_Source\PSoC4/CAN.c **** }
 1111              		.loc 1 1363 0
 1112              		@ sp needed
 1113 0086 10BD     		pop	{r4, pc}
 1114              	.L109:
 1115              		.align	2
 1116              	.L108:
 1117 0088 A0002F40 		.word	1076822176
 1118 008c 80008000 		.word	8388736
 1119 0090 7F007F00 		.word	8323199
 1120 0094 7FFF7FFF 		.word	-8388737
 1121              		.cfi_endproc
 1122              	.LFE21:
 1123              		.size	CAN_RxBufConfig, .-CAN_RxBufConfig
 1124              		.section	.text.CAN_TxBufConfig,"ax",%progbits
 1125              		.align	2
 1126              		.global	CAN_TxBufConfig
 1127              		.code	16
 1128              		.thumb_func
 1129              		.type	CAN_TxBufConfig, %function
 1130              	CAN_TxBufConfig:
 1131              	.LFB22:
1364:Generated_Source\PSoC4/CAN.c **** 
1365:Generated_Source\PSoC4/CAN.c **** 
1366:Generated_Source\PSoC4/CAN.c **** /*******************************************************************************
1367:Generated_Source\PSoC4/CAN.c **** * FUNCTION NAME:   CAN_TxBufConfig
1368:Generated_Source\PSoC4/CAN.c **** ********************************************************************************
1369:Generated_Source\PSoC4/CAN.c **** *
1370:Generated_Source\PSoC4/CAN.c **** * Summary:
1371:Generated_Source\PSoC4/CAN.c **** *  This function configures all transmit registers for a particular mailbox.
1372:Generated_Source\PSoC4/CAN.c **** *  Mailbox number contains CAN_TX_CFG structure.
1373:Generated_Source\PSoC4/CAN.c **** *
1374:Generated_Source\PSoC4/CAN.c **** * Parameters:
1375:Generated_Source\PSoC4/CAN.c **** *  txConfig: The pointer to structure that contain all required values to
1376:Generated_Source\PSoC4/CAN.c **** *  configure all transmit registers for a particular mailbox.
1377:Generated_Source\PSoC4/CAN.c **** *
1378:Generated_Source\PSoC4/CAN.c **** * Return:
1379:Generated_Source\PSoC4/CAN.c **** *  The indication if particular configuration has been accepted or rejected.
1380:Generated_Source\PSoC4/CAN.c **** *   Define                             Description
1381:Generated_Source\PSoC4/CAN.c **** *    CYRET_SUCCESS                      The function passed successfully
1382:Generated_Source\PSoC4/CAN.c **** *    CAN_FAIL              The function failed
1383:Generated_Source\PSoC4/CAN.c **** *
1384:Generated_Source\PSoC4/CAN.c **** *******************************************************************************/
1385:Generated_Source\PSoC4/CAN.c **** uint8 CAN_TxBufConfig(const CAN_TX_CFG *txConfig)
ARM GAS  C:\Users\davis\AppData\Local\Temp\cco880hz.s 			page 46


1386:Generated_Source\PSoC4/CAN.c ****                                    
1387:Generated_Source\PSoC4/CAN.c **** {
 1132              		.loc 1 1387 0
 1133              		.cfi_startproc
 1134              		@ args = 0, pretend = 0, frame = 0
 1135              		@ frame_needed = 0, uses_anonymous_args = 0
 1136              	.LVL110:
 1137 0000 10B5     		push	{r4, lr}
 1138              		.cfi_def_cfa_offset 8
 1139              		.cfi_offset 4, -8
 1140              		.cfi_offset 14, -4
 1141              	.LVL111:
1388:Generated_Source\PSoC4/CAN.c ****     uint8 result = CAN_FAIL;
1389:Generated_Source\PSoC4/CAN.c **** 
1390:Generated_Source\PSoC4/CAN.c ****     /* Write TX CMD Register */
1391:Generated_Source\PSoC4/CAN.c ****     CY_SET_REG32(CAN_TX_CMD_PTR(txConfig->txmailbox), (txConfig->txcmd | CAN_TX_WPN_SET));
 1142              		.loc 1 1391 0
 1143 0002 0378     		ldrb	r3, [r0]
 1144 0004 1B01     		lsls	r3, r3, #4
 1145 0006 104A     		ldr	r2, .L114
 1146 0008 9446     		mov	ip, r2
 1147 000a 6344     		add	r3, r3, ip
 1148 000c 0F4A     		ldr	r2, .L114+4
 1149 000e 4168     		ldr	r1, [r0, #4]
 1150 0010 0A43     		orrs	r2, r1
 1151 0012 1A60     		str	r2, [r3]
1392:Generated_Source\PSoC4/CAN.c ****     if ((CY_GET_REG32(CAN_TX_CMD_PTR(txConfig->txmailbox)) &
 1152              		.loc 1 1392 0
 1153 0014 0378     		ldrb	r3, [r0]
 1154 0016 1B01     		lsls	r3, r3, #4
 1155 0018 6344     		add	r3, r3, ip
 1156 001a 1968     		ldr	r1, [r3]
 1157 001c 0C4A     		ldr	r2, .L114+8
 1158 001e 1140     		ands	r1, r2
1393:Generated_Source\PSoC4/CAN.c ****         CAN_TX_READ_BACK_MASK) == (txConfig->txcmd & CAN_TX_WPN_CLEAR))
 1159              		.loc 1 1393 0
 1160 0020 0C4A     		ldr	r2, .L114+12
 1161 0022 4468     		ldr	r4, [r0, #4]
 1162 0024 2240     		ands	r2, r4
1392:Generated_Source\PSoC4/CAN.c ****     if ((CY_GET_REG32(CAN_TX_CMD_PTR(txConfig->txmailbox)) &
 1163              		.loc 1 1392 0
 1164 0026 9142     		cmp	r1, r2
 1165 0028 0AD1     		bne	.L112
1394:Generated_Source\PSoC4/CAN.c ****     {
1395:Generated_Source\PSoC4/CAN.c ****         /* Write TX ID Register */
1396:Generated_Source\PSoC4/CAN.c ****         CY_SET_REG32(CAN_TX_ID_PTR(txConfig->txmailbox), txConfig->txid);
 1166              		.loc 1 1396 0
 1167 002a 8268     		ldr	r2, [r0, #8]
 1168 002c 5A60     		str	r2, [r3, #4]
1397:Generated_Source\PSoC4/CAN.c ****         if (CY_GET_REG32(CAN_TX_ID_PTR(txConfig->txmailbox)) == txConfig->txid)
 1169              		.loc 1 1397 0
 1170 002e 0378     		ldrb	r3, [r0]
 1171 0030 1B01     		lsls	r3, r3, #4
 1172 0032 6344     		add	r3, r3, ip
 1173 0034 5A68     		ldr	r2, [r3, #4]
 1174 0036 8368     		ldr	r3, [r0, #8]
 1175 0038 9A42     		cmp	r2, r3
ARM GAS  C:\Users\davis\AppData\Local\Temp\cco880hz.s 			page 47


 1176 003a 03D0     		beq	.L113
1388:Generated_Source\PSoC4/CAN.c **** 
 1177              		.loc 1 1388 0
 1178 003c 0120     		movs	r0, #1
 1179              	.LVL112:
 1180 003e 02E0     		b	.L111
 1181              	.LVL113:
 1182              	.L112:
 1183 0040 0120     		movs	r0, #1
 1184              	.LVL114:
 1185 0042 00E0     		b	.L111
 1186              	.LVL115:
 1187              	.L113:
1398:Generated_Source\PSoC4/CAN.c ****         {
1399:Generated_Source\PSoC4/CAN.c ****             result = CYRET_SUCCESS;
 1188              		.loc 1 1399 0
 1189 0044 0020     		movs	r0, #0
 1190              	.LVL116:
 1191              	.L111:
1400:Generated_Source\PSoC4/CAN.c ****         }
1401:Generated_Source\PSoC4/CAN.c ****     }
1402:Generated_Source\PSoC4/CAN.c **** 
1403:Generated_Source\PSoC4/CAN.c ****     return (result);
1404:Generated_Source\PSoC4/CAN.c **** }
 1192              		.loc 1 1404 0
 1193              		@ sp needed
 1194 0046 10BD     		pop	{r4, pc}
 1195              	.L115:
 1196              		.align	2
 1197              	.L114:
 1198 0048 20002F40 		.word	1076822048
 1199 004c 08008000 		.word	8388616
 1200 0050 F7007F00 		.word	8323319
 1201 0054 F7FF7FFF 		.word	-8388617
 1202              		.cfi_endproc
 1203              	.LFE22:
 1204              		.size	CAN_TxBufConfig, .-CAN_TxBufConfig
 1205              		.section	.text.CAN_RxTxBuffersConfig,"ax",%progbits
 1206              		.align	2
 1207              		.global	CAN_RxTxBuffersConfig
 1208              		.code	16
 1209              		.thumb_func
 1210              		.type	CAN_RxTxBuffersConfig, %function
 1211              	CAN_RxTxBuffersConfig:
 1212              	.LFB1:
  48:Generated_Source\PSoC4/CAN.c ****     /* Initial values of CAN RX and TX registers */
 1213              		.loc 1 48 0
 1214              		.cfi_startproc
 1215              		@ args = 0, pretend = 0, frame = 0
 1216              		@ frame_needed = 0, uses_anonymous_args = 0
 1217 0000 70B5     		push	{r4, r5, r6, lr}
 1218              		.cfi_def_cfa_offset 16
 1219              		.cfi_offset 4, -16
 1220              		.cfi_offset 5, -12
 1221              		.cfi_offset 6, -8
 1222              		.cfi_offset 14, -4
 1223              	.LVL117:
ARM GAS  C:\Users\davis\AppData\Local\Temp\cco880hz.s 			page 48


  86:Generated_Source\PSoC4/CAN.c ****     {
 1224              		.loc 1 86 0
 1225 0002 0024     		movs	r4, #0
 1226 0004 0AE0     		b	.L117
 1227              	.LVL118:
 1228              	.L119:
  88:Generated_Source\PSoC4/CAN.c ****             (&CAN_TXConfigStruct[i])) != CYRET_SUCCESS)
 1229              		.loc 1 88 0
 1230 0006 6300     		lsls	r3, r4, #1
 1231 0008 1B19     		adds	r3, r3, r4
 1232 000a 9800     		lsls	r0, r3, #2
 1233 000c 104B     		ldr	r3, .L126
 1234 000e 1818     		adds	r0, r3, r0
 1235 0010 FFF7FEFF 		bl	CAN_TxBufConfig
 1236              	.LVL119:
 1237 0014 0028     		cmp	r0, #0
 1238 0016 05D1     		bne	.L123
  86:Generated_Source\PSoC4/CAN.c ****     {
 1239              		.loc 1 86 0 discriminator 2
 1240 0018 0134     		adds	r4, r4, #1
 1241              	.LVL120:
 1242 001a E4B2     		uxtb	r4, r4
 1243              	.LVL121:
 1244              	.L117:
  86:Generated_Source\PSoC4/CAN.c ****     {
 1245              		.loc 1 86 0 is_stmt 0 discriminator 1
 1246 001c 072C     		cmp	r4, #7
 1247 001e F2D9     		bls	.L119
  82:Generated_Source\PSoC4/CAN.c ****     uint8 i;
 1248              		.loc 1 82 0 is_stmt 1
 1249 0020 0025     		movs	r5, #0
 1250 0022 00E0     		b	.L118
 1251              	.L123:
  91:Generated_Source\PSoC4/CAN.c ****             break;
 1252              		.loc 1 91 0
 1253 0024 0125     		movs	r5, #1
 1254              	.L118:
 1255              	.LVL122:
  96:Generated_Source\PSoC4/CAN.c ****     {
 1256              		.loc 1 96 0
 1257 0026 002D     		cmp	r5, #0
 1258 0028 0BD0     		beq	.L124
 1259 002a 0FE0     		b	.L121
 1260              	.L122:
 101:Generated_Source\PSoC4/CAN.c ****                 (&CAN_RXConfigStruct[i])) != CYRET_SUCCESS)
 1261              		.loc 1 101 0
 1262 002c 2301     		lsls	r3, r4, #4
 1263 002e 0848     		ldr	r0, .L126
 1264 0030 6030     		adds	r0, r0, #96
 1265 0032 C018     		adds	r0, r0, r3
 1266 0034 FFF7FEFF 		bl	CAN_RxBufConfig
 1267              	.LVL123:
 1268 0038 0028     		cmp	r0, #0
 1269 003a 06D1     		bne	.L125
  99:Generated_Source\PSoC4/CAN.c ****         {
 1270              		.loc 1 99 0 discriminator 2
 1271 003c 0134     		adds	r4, r4, #1
ARM GAS  C:\Users\davis\AppData\Local\Temp\cco880hz.s 			page 49


 1272              	.LVL124:
 1273 003e E4B2     		uxtb	r4, r4
 1274              	.LVL125:
 1275 0040 00E0     		b	.L120
 1276              	.L124:
 1277 0042 0024     		movs	r4, #0
 1278              	.LVL126:
 1279              	.L120:
  99:Generated_Source\PSoC4/CAN.c ****         {
 1280              		.loc 1 99 0 is_stmt 0 discriminator 1
 1281 0044 0F2C     		cmp	r4, #15
 1282 0046 F1D9     		bls	.L122
 1283 0048 00E0     		b	.L121
 1284              	.L125:
 104:Generated_Source\PSoC4/CAN.c ****                 break;
 1285              		.loc 1 104 0 is_stmt 1
 1286 004a 0125     		movs	r5, #1
 1287              	.LVL127:
 1288              	.L121:
 111:Generated_Source\PSoC4/CAN.c **** 
 1289              		.loc 1 111 0
 1290 004c 2800     		movs	r0, r5
 1291              		@ sp needed
 1292              	.LVL128:
 1293              	.LVL129:
 1294 004e 70BD     		pop	{r4, r5, r6, pc}
 1295              	.L127:
 1296              		.align	2
 1297              	.L126:
 1298 0050 00000000 		.word	.LANCHOR0
 1299              		.cfi_endproc
 1300              	.LFE1:
 1301              		.size	CAN_RxTxBuffersConfig, .-CAN_RxTxBuffersConfig
 1302              		.section	.text.CAN_SetSwapDataEndianness,"ax",%progbits
 1303              		.align	2
 1304              		.global	CAN_SetSwapDataEndianness
 1305              		.code	16
 1306              		.thumb_func
 1307              		.type	CAN_SetSwapDataEndianness, %function
 1308              	CAN_SetSwapDataEndianness:
 1309              	.LFB23:
1405:Generated_Source\PSoC4/CAN.c **** 
1406:Generated_Source\PSoC4/CAN.c **** 
1407:Generated_Source\PSoC4/CAN.c **** #if (!(CY_PSOC3 || CY_PSOC5))
1408:Generated_Source\PSoC4/CAN.c **** 
1409:Generated_Source\PSoC4/CAN.c **** /*******************************************************************************
1410:Generated_Source\PSoC4/CAN.c **** * FUNCTION NAME:   CAN_SetSwapDataEndianness
1411:Generated_Source\PSoC4/CAN.c **** ********************************************************************************
1412:Generated_Source\PSoC4/CAN.c **** *
1413:Generated_Source\PSoC4/CAN.c **** * Summary:
1414:Generated_Source\PSoC4/CAN.c **** *  This function selects whether the data byte endianness of the CAN receive and
1415:Generated_Source\PSoC4/CAN.c **** *  transmit data fields has to be swapped or not swapped. This is useful to
1416:Generated_Source\PSoC4/CAN.c **** *  match the data byte endianness to the endian setting of the processor or the
1417:Generated_Source\PSoC4/CAN.c **** *  used CAN protocol.
1418:Generated_Source\PSoC4/CAN.c **** *
1419:Generated_Source\PSoC4/CAN.c **** * Parameters:
1420:Generated_Source\PSoC4/CAN.c **** *  swap: Swap Enable/Disable setting.
ARM GAS  C:\Users\davis\AppData\Local\Temp\cco880hz.s 			page 50


1421:Generated_Source\PSoC4/CAN.c **** *   Define                                   Description
1422:Generated_Source\PSoC4/CAN.c **** *   CAN_SWAP_ENDIANNESS_ENABLE   The endianness of transmitted/
1423:Generated_Source\PSoC4/CAN.c **** *                                             received data byte fields (Big
1424:Generated_Source\PSoC4/CAN.c **** *                                             endian) is not swapped during
1425:Generated_Source\PSoC4/CAN.c **** *                                             multibyte data transmission.
1426:Generated_Source\PSoC4/CAN.c **** *   CAN_SWAP_ENDIANNESS_DISABLE  The endianness of transmitted/
1427:Generated_Source\PSoC4/CAN.c **** *                                             received data byte fields is
1428:Generated_Source\PSoC4/CAN.c **** *                                             swapped (Little endian) during
1429:Generated_Source\PSoC4/CAN.c **** *                                             multi byte data transmission.
1430:Generated_Source\PSoC4/CAN.c **** *
1431:Generated_Source\PSoC4/CAN.c **** * Return:
1432:Generated_Source\PSoC4/CAN.c **** *  The indication whether the register is written and verified.
1433:Generated_Source\PSoC4/CAN.c **** *   Define                             Description
1434:Generated_Source\PSoC4/CAN.c **** *    CYRET_SUCCESS                      The function passed successfully
1435:Generated_Source\PSoC4/CAN.c **** *    CAN_FAIL              The function failed
1436:Generated_Source\PSoC4/CAN.c **** *
1437:Generated_Source\PSoC4/CAN.c **** *******************************************************************************/
1438:Generated_Source\PSoC4/CAN.c **** uint8 CAN_SetSwapDataEndianness(uint8 swap)
1439:Generated_Source\PSoC4/CAN.c **** {
 1310              		.loc 1 1439 0
 1311              		.cfi_startproc
 1312              		@ args = 0, pretend = 0, frame = 0
 1313              		@ frame_needed = 0, uses_anonymous_args = 0
 1314              		@ link register save eliminated.
 1315              	.LVL130:
1440:Generated_Source\PSoC4/CAN.c ****     uint8 result = CAN_FAIL;
1441:Generated_Source\PSoC4/CAN.c **** 
1442:Generated_Source\PSoC4/CAN.c ****     if (swap == CAN_SWAP_ENDIANNESS_DISABLE)    /* Big endian */
 1316              		.loc 1 1442 0
 1317 0000 0028     		cmp	r0, #0
 1318 0002 09D1     		bne	.L129
1443:Generated_Source\PSoC4/CAN.c ****     {
1444:Generated_Source\PSoC4/CAN.c ****         CAN_CFG_REG &= (uint32) (~CAN_ENDIANNESS_MASK);
 1319              		.loc 1 1444 0
 1320 0004 0C4B     		ldr	r3, .L133
 1321 0006 1968     		ldr	r1, [r3]
 1322 0008 0C4A     		ldr	r2, .L133+4
 1323 000a 0A40     		ands	r2, r1
 1324 000c 1A60     		str	r2, [r3]
1445:Generated_Source\PSoC4/CAN.c **** 
1446:Generated_Source\PSoC4/CAN.c ****         /* Verify that bit is cleared */
1447:Generated_Source\PSoC4/CAN.c ****         if ((CAN_CFG_REG & CAN_ENDIANNESS_MASK) == 0u)
 1325              		.loc 1 1447 0
 1326 000e 1B68     		ldr	r3, [r3]
 1327 0010 9B04     		lsls	r3, r3, #18
 1328 0012 0CD5     		bpl	.L131
1440:Generated_Source\PSoC4/CAN.c **** 
 1329              		.loc 1 1440 0
 1330 0014 0130     		adds	r0, r0, #1
 1331              	.LVL131:
 1332 0016 0DE0     		b	.L130
 1333              	.LVL132:
 1334              	.L129:
1448:Generated_Source\PSoC4/CAN.c ****         {
1449:Generated_Source\PSoC4/CAN.c ****             result = CYRET_SUCCESS;
1450:Generated_Source\PSoC4/CAN.c ****         }
1451:Generated_Source\PSoC4/CAN.c ****     }
ARM GAS  C:\Users\davis\AppData\Local\Temp\cco880hz.s 			page 51


1452:Generated_Source\PSoC4/CAN.c ****     else    /* Little endian */
1453:Generated_Source\PSoC4/CAN.c ****     {
1454:Generated_Source\PSoC4/CAN.c ****         CAN_CFG_REG |= CAN_ENDIANNESS_MASK;
 1335              		.loc 1 1454 0
 1336 0018 074B     		ldr	r3, .L133
 1337 001a 1A68     		ldr	r2, [r3]
 1338 001c 8021     		movs	r1, #128
 1339 001e 8901     		lsls	r1, r1, #6
 1340 0020 0A43     		orrs	r2, r1
 1341 0022 1A60     		str	r2, [r3]
1455:Generated_Source\PSoC4/CAN.c **** 
1456:Generated_Source\PSoC4/CAN.c ****         /* Verify that bit is set */
1457:Generated_Source\PSoC4/CAN.c ****         if ((CAN_CFG_REG & CAN_ENDIANNESS_MASK) != 0u)
 1342              		.loc 1 1457 0
 1343 0024 1B68     		ldr	r3, [r3]
 1344 0026 0B42     		tst	r3, r1
 1345 0028 03D1     		bne	.L132
1440:Generated_Source\PSoC4/CAN.c **** 
 1346              		.loc 1 1440 0
 1347 002a 0120     		movs	r0, #1
 1348              	.LVL133:
 1349 002c 02E0     		b	.L130
 1350              	.LVL134:
 1351              	.L131:
1449:Generated_Source\PSoC4/CAN.c ****         }
 1352              		.loc 1 1449 0
 1353 002e 0020     		movs	r0, #0
 1354              	.LVL135:
 1355 0030 00E0     		b	.L130
 1356              	.LVL136:
 1357              	.L132:
1458:Generated_Source\PSoC4/CAN.c ****         {
1459:Generated_Source\PSoC4/CAN.c ****             result = CYRET_SUCCESS;
 1358              		.loc 1 1459 0
 1359 0032 0020     		movs	r0, #0
 1360              	.LVL137:
 1361              	.L130:
1460:Generated_Source\PSoC4/CAN.c ****         }
1461:Generated_Source\PSoC4/CAN.c ****     }
1462:Generated_Source\PSoC4/CAN.c **** 
1463:Generated_Source\PSoC4/CAN.c ****     return (result);
1464:Generated_Source\PSoC4/CAN.c **** }
 1362              		.loc 1 1464 0
 1363              		@ sp needed
 1364 0034 7047     		bx	lr
 1365              	.L134:
 1366 0036 C046     		.align	2
 1367              	.L133:
 1368 0038 14002F40 		.word	1076822036
 1369 003c FFDFFFFF 		.word	-8193
 1370              		.cfi_endproc
 1371              	.LFE23:
 1372              		.size	CAN_SetSwapDataEndianness, .-CAN_SetSwapDataEndianness
 1373              		.section	.text.CAN_Init,"ax",%progbits
 1374              		.align	2
 1375              		.global	CAN_Init
 1376              		.code	16
ARM GAS  C:\Users\davis\AppData\Local\Temp\cco880hz.s 			page 52


 1377              		.thumb_func
 1378              		.type	CAN_Init, %function
 1379              	CAN_Init:
 1380              	.LFB2:
 138:Generated_Source\PSoC4/CAN.c ****     uint32 timeout = CAN_MODE_STATE_STOP_TIMEOUT;
 1381              		.loc 1 138 0
 1382              		.cfi_startproc
 1383              		@ args = 0, pretend = 0, frame = 0
 1384              		@ frame_needed = 0, uses_anonymous_args = 0
 1385 0000 10B5     		push	{r4, lr}
 1386              		.cfi_def_cfa_offset 8
 1387              		.cfi_offset 4, -8
 1388              		.cfi_offset 14, -4
 1389              	.LVL138:
 163:Generated_Source\PSoC4/CAN.c **** 
 1390              		.loc 1 163 0
 1391 0002 8022     		movs	r2, #128
 1392 0004 1206     		lsls	r2, r2, #24
 1393 0006 334B     		ldr	r3, .L152
 1394 0008 1A60     		str	r2, [r3]
 166:Generated_Source\PSoC4/CAN.c **** 
 1395              		.loc 1 166 0
 1396 000a 334A     		ldr	r2, .L152+4
 1397 000c 1368     		ldr	r3, [r2]
 1398 000e 0121     		movs	r1, #1
 1399 0010 8B43     		bics	r3, r1
 1400 0012 1360     		str	r3, [r2]
 139:Generated_Source\PSoC4/CAN.c ****     uint8 result = CAN_FAIL;
 1401              		.loc 1 139 0
 1402 0014 F023     		movs	r3, #240
 1403 0016 1B02     		lsls	r3, r3, #8
 169:Generated_Source\PSoC4/CAN.c ****         {
 1404              		.loc 1 169 0
 1405 0018 00E0     		b	.L136
 1406              	.LVL139:
 1407              	.L138:
 171:Generated_Source\PSoC4/CAN.c ****         }
 1408              		.loc 1 171 0
 1409 001a 013B     		subs	r3, r3, #1
 1410              	.LVL140:
 1411              	.L136:
 169:Generated_Source\PSoC4/CAN.c ****         {
 1412              		.loc 1 169 0
 1413 001c 002B     		cmp	r3, #0
 1414 001e 03D0     		beq	.L137
 169:Generated_Source\PSoC4/CAN.c ****         {
 1415              		.loc 1 169 0 is_stmt 0 discriminator 1
 1416 0020 2D4A     		ldr	r2, .L152+4
 1417 0022 1268     		ldr	r2, [r2]
 1418 0024 D207     		lsls	r2, r2, #31
 1419 0026 F8D4     		bmi	.L138
 1420              	.L137:
 174:Generated_Source\PSoC4/CAN.c ****         {
 1421              		.loc 1 174 0 is_stmt 1
 1422 0028 002B     		cmp	r3, #0
 1423 002a 49D0     		beq	.L141
 177:Generated_Source\PSoC4/CAN.c **** 
ARM GAS  C:\Users\davis\AppData\Local\Temp\cco880hz.s 			page 53


 1424              		.loc 1 177 0
 1425 002c 1D20     		movs	r0, #29
 1426 002e FFF7FEFF 		bl	CyIntDisable
 1427              	.LVL141:
 180:Generated_Source\PSoC4/CAN.c **** 
 1428              		.loc 1 180 0
 1429 0032 2A49     		ldr	r1, .L152+8
 1430 0034 1D20     		movs	r0, #29
 1431 0036 FFF7FEFF 		bl	CyIntSetVector
 1432              	.LVL142:
 183:Generated_Source\PSoC4/CAN.c **** 
 1433              		.loc 1 183 0
 1434 003a 0321     		movs	r1, #3
 1435 003c 1D20     		movs	r0, #29
 1436 003e FFF7FEFF 		bl	CyIntSetPriority
 1437              	.LVL143:
 185:Generated_Source\PSoC4/CAN.c ****             {
 1438              		.loc 1 185 0
 1439 0042 1720     		movs	r0, #23
 1440 0044 FFF7FEFF 		bl	CAN_SetPreScaler
 1441              	.LVL144:
 1442 0048 0028     		cmp	r0, #0
 1443 004a 19D1     		bne	.L142
 187:Generated_Source\PSoC4/CAN.c ****                 {
 1444              		.loc 1 187 0
 1445 004c FFF7FEFF 		bl	CAN_SetArbiter
 1446              	.LVL145:
 1447 0050 0028     		cmp	r0, #0
 1448 0052 17D1     		bne	.L143
 190:Generated_Source\PSoC4/CAN.c ****                     #endif /* (!(CY_PSOC3 || CY_PSOC5)) */
 1449              		.loc 1 190 0
 1450 0054 FFF7FEFF 		bl	CAN_SetSwapDataEndianness
 1451              	.LVL146:
 1452 0058 0028     		cmp	r0, #0
 1453 005a 15D1     		bne	.L144
 193:Generated_Source\PSoC4/CAN.c ****                                 CAN_CFG_REG_TSEG2, CAN_CFG_REG_SJW,
 1454              		.loc 1 193 0
 1455 005c 0023     		movs	r3, #0
 1456 005e 0122     		movs	r2, #1
 1457 0060 0121     		movs	r1, #1
 1458 0062 0C30     		adds	r0, r0, #12
 1459 0064 FFF7FEFF 		bl	CAN_SetTsegSample
 1460              	.LVL147:
 1461 0068 0028     		cmp	r0, #0
 1462 006a 0FD1     		bne	.L145
 197:Generated_Source\PSoC4/CAN.c ****                                 {
 1463              		.loc 1 197 0
 1464 006c FFF7FEFF 		bl	CAN_SetRestartType
 1465              	.LVL148:
 1466 0070 0028     		cmp	r0, #0
 1467 0072 0DD1     		bne	.L146
 199:Generated_Source\PSoC4/CAN.c ****                                     {
 1468              		.loc 1 199 0
 1469 0074 FFF7FEFF 		bl	CAN_SetEdgeMode
 1470              	.LVL149:
 1471 0078 0028     		cmp	r0, #0
 1472 007a 0BD0     		beq	.L147
ARM GAS  C:\Users\davis\AppData\Local\Temp\cco880hz.s 			page 54


 141:Generated_Source\PSoC4/CAN.c **** 
 1473              		.loc 1 141 0
 1474 007c 0123     		movs	r3, #1
 1475 007e 0AE0     		b	.L140
 1476              	.L142:
 1477 0080 0123     		movs	r3, #1
 1478 0082 08E0     		b	.L140
 1479              	.L143:
 1480 0084 0123     		movs	r3, #1
 1481 0086 06E0     		b	.L140
 1482              	.L144:
 1483 0088 0123     		movs	r3, #1
 1484 008a 04E0     		b	.L140
 1485              	.L145:
 1486 008c 0123     		movs	r3, #1
 1487 008e 02E0     		b	.L140
 1488              	.L146:
 1489 0090 0123     		movs	r3, #1
 1490 0092 00E0     		b	.L140
 1491              	.L147:
 201:Generated_Source\PSoC4/CAN.c ****                                     }
 1492              		.loc 1 201 0
 1493 0094 0023     		movs	r3, #0
 1494              	.L140:
 1495              	.LVL150:
 209:Generated_Source\PSoC4/CAN.c ****             {
 1496              		.loc 1 209 0
 1497 0096 002B     		cmp	r3, #0
 1498 0098 14D1     		bne	.L148
 211:Generated_Source\PSoC4/CAN.c ****                 {
 1499              		.loc 1 211 0
 1500 009a FFF7FEFF 		bl	CAN_RxTxBuffersConfig
 1501              	.LVL151:
 1502 009e 0028     		cmp	r0, #0
 1503 00a0 12D1     		bne	.L149
 214:Generated_Source\PSoC4/CAN.c ****                         CYRET_SUCCESS)
 1504              		.loc 1 214 0
 1505 00a2 0F48     		ldr	r0, .L152+12
 1506 00a4 FFF7FEFF 		bl	CAN_SetIrqMask
 1507              	.LVL152:
 1508 00a8 0028     		cmp	r0, #0
 1509 00aa 0FD1     		bne	.L150
 222:Generated_Source\PSoC4/CAN.c ****                             if ((CAN_CMD_REG & CAN_OPMODE_FIELD_MASK) == 0u)
 1510              		.loc 1 222 0
 1511 00ac 0A4B     		ldr	r3, .L152+4
 1512 00ae 1A68     		ldr	r2, [r3]
 1513 00b0 0721     		movs	r1, #7
 1514 00b2 8A43     		bics	r2, r1
 1515 00b4 1A60     		str	r2, [r3]
 223:Generated_Source\PSoC4/CAN.c ****                         #endif /* CY_PSOC3 || CY_PSOC5 */
 1516              		.loc 1 223 0
 1517 00b6 1B68     		ldr	r3, [r3]
 1518 00b8 1942     		tst	r1, r3
 1519 00ba 09D0     		beq	.L151
 140:Generated_Source\PSoC4/CAN.c ****     uint8 localResult = CAN_FAIL;
 1520              		.loc 1 140 0
 1521 00bc 0130     		adds	r0, r0, #1
ARM GAS  C:\Users\davis\AppData\Local\Temp\cco880hz.s 			page 55


 1522 00be 08E0     		b	.L139
 1523              	.LVL153:
 1524              	.L141:
 1525 00c0 0120     		movs	r0, #1
 1526 00c2 06E0     		b	.L139
 1527              	.LVL154:
 1528              	.L148:
 1529 00c4 0120     		movs	r0, #1
 1530 00c6 04E0     		b	.L139
 1531              	.LVL155:
 1532              	.L149:
 1533 00c8 0120     		movs	r0, #1
 1534 00ca 02E0     		b	.L139
 1535              	.L150:
 1536 00cc 0120     		movs	r0, #1
 1537 00ce 00E0     		b	.L139
 1538              	.L151:
 226:Generated_Source\PSoC4/CAN.c ****                             }
 1539              		.loc 1 226 0
 1540 00d0 0020     		movs	r0, #0
 1541              	.L139:
 1542              	.LVL156:
 234:Generated_Source\PSoC4/CAN.c **** 
 1543              		.loc 1 234 0
 1544              		@ sp needed
 1545 00d2 10BD     		pop	{r4, pc}
 1546              	.L153:
 1547              		.align	2
 1548              	.L152:
 1549 00d4 00042F40 		.word	1076823040
 1550 00d8 10002F40 		.word	1076822032
 1551 00dc 00000000 		.word	CAN_ISR
 1552 00e0 01100000 		.word	4097
 1553              		.cfi_endproc
 1554              	.LFE2:
 1555              		.size	CAN_Init, .-CAN_Init
 1556              		.section	.text.CAN_Start,"ax",%progbits
 1557              		.align	2
 1558              		.global	CAN_Start
 1559              		.code	16
 1560              		.thumb_func
 1561              		.type	CAN_Start, %function
 1562              	CAN_Start:
 1563              	.LFB4:
 324:Generated_Source\PSoC4/CAN.c ****     uint8 result = CYRET_SUCCESS;
 1564              		.loc 1 324 0
 1565              		.cfi_startproc
 1566              		@ args = 0, pretend = 0, frame = 0
 1567              		@ frame_needed = 0, uses_anonymous_args = 0
 1568 0000 10B5     		push	{r4, lr}
 1569              		.cfi_def_cfa_offset 8
 1570              		.cfi_offset 4, -8
 1571              		.cfi_offset 14, -4
 1572              	.LVL157:
 327:Generated_Source\PSoC4/CAN.c ****     {
 1573              		.loc 1 327 0
 1574 0002 084B     		ldr	r3, .L158
ARM GAS  C:\Users\davis\AppData\Local\Temp\cco880hz.s 			page 56


 1575 0004 1B78     		ldrb	r3, [r3]
 1576 0006 002B     		cmp	r3, #0
 1577 0008 02D1     		bne	.L157
 329:Generated_Source\PSoC4/CAN.c ****     }
 1578              		.loc 1 329 0
 1579 000a FFF7FEFF 		bl	CAN_Init
 1580              	.LVL158:
 1581 000e 00E0     		b	.L155
 1582              	.LVL159:
 1583              	.L157:
 325:Generated_Source\PSoC4/CAN.c **** 
 1584              		.loc 1 325 0
 1585 0010 0020     		movs	r0, #0
 1586              	.LVL160:
 1587              	.L155:
 332:Generated_Source\PSoC4/CAN.c ****     {
 1588              		.loc 1 332 0
 1589 0012 0028     		cmp	r0, #0
 1590 0014 04D1     		bne	.L156
 334:Generated_Source\PSoC4/CAN.c ****         result = CAN_Enable();
 1591              		.loc 1 334 0
 1592 0016 0122     		movs	r2, #1
 1593 0018 024B     		ldr	r3, .L158
 1594 001a 1A70     		strb	r2, [r3]
 335:Generated_Source\PSoC4/CAN.c ****     }
 1595              		.loc 1 335 0
 1596 001c FFF7FEFF 		bl	CAN_Enable
 1597              	.LVL161:
 1598              	.L156:
 339:Generated_Source\PSoC4/CAN.c **** 
 1599              		.loc 1 339 0
 1600              		@ sp needed
 1601 0020 10BD     		pop	{r4, pc}
 1602              	.L159:
 1603 0022 C046     		.align	2
 1604              	.L158:
 1605 0024 00000000 		.word	.LANCHOR1
 1606              		.cfi_endproc
 1607              	.LFE4:
 1608              		.size	CAN_Start, .-CAN_Start
 1609              		.section	.text.CAN_SetOpMode,"ax",%progbits
 1610              		.align	2
 1611              		.global	CAN_SetOpMode
 1612              		.code	16
 1613              		.thumb_func
 1614              		.type	CAN_SetOpMode, %function
 1615              	CAN_SetOpMode:
 1616              	.LFB13:
 939:Generated_Source\PSoC4/CAN.c ****     #if (CY_PSOC3 || CY_PSOC5)
 1617              		.loc 1 939 0
 1618              		.cfi_startproc
 1619              		@ args = 0, pretend = 0, frame = 0
 1620              		@ frame_needed = 0, uses_anonymous_args = 0
 1621              	.LVL162:
 1622 0000 70B5     		push	{r4, r5, r6, lr}
 1623              		.cfi_def_cfa_offset 16
 1624              		.cfi_offset 4, -16
ARM GAS  C:\Users\davis\AppData\Local\Temp\cco880hz.s 			page 57


 1625              		.cfi_offset 5, -12
 1626              		.cfi_offset 6, -8
 1627              		.cfi_offset 14, -4
 1628 0002 0400     		movs	r4, r0
 1629              	.LVL163:
 993:Generated_Source\PSoC4/CAN.c ****             (opMode == CAN_ACTIVE_RUN_MODE))
 1630              		.loc 1 993 0
 1631 0004 134B     		ldr	r3, .L167
 1632 0006 1B68     		ldr	r3, [r3]
 1633 0008 DB07     		lsls	r3, r3, #31
 1634 000a 03D4     		bmi	.L164
 993:Generated_Source\PSoC4/CAN.c ****             (opMode == CAN_ACTIVE_RUN_MODE))
 1635              		.loc 1 993 0 is_stmt 0 discriminator 1
 1636 000c 0128     		cmp	r0, #1
 1637 000e 03D0     		beq	.L165
 944:Generated_Source\PSoC4/CAN.c **** 
 1638              		.loc 1 944 0 is_stmt 1
 1639 0010 0025     		movs	r5, #0
 1640 0012 02E0     		b	.L161
 1641              	.L164:
 996:Generated_Source\PSoC4/CAN.c ****         }
 1642              		.loc 1 996 0
 1643 0014 0125     		movs	r5, #1
 1644 0016 00E0     		b	.L161
 1645              	.L165:
 1646 0018 0125     		movs	r5, #1
 1647              	.L161:
 1648              	.LVL164:
1000:Generated_Source\PSoC4/CAN.c ****         {
 1649              		.loc 1 1000 0
 1650 001a FFF7FEFF 		bl	CAN_Stop
 1651              	.LVL165:
 1652 001e 0028     		cmp	r0, #0
 1653 0020 15D1     		bne	.L166
1003:Generated_Source\PSoC4/CAN.c **** 
 1654              		.loc 1 1003 0
 1655 0022 0D4B     		ldr	r3, .L167+4
 1656 0024 0D4A     		ldr	r2, .L167+8
 1657 0026 1A60     		str	r2, [r3]
1006:Generated_Source\PSoC4/CAN.c **** 
 1658              		.loc 1 1006 0
 1659 0028 0132     		adds	r2, r2, #1
 1660 002a 1A60     		str	r2, [r3]
1008:Generated_Source\PSoC4/CAN.c **** 
 1661              		.loc 1 1008 0
 1662 002c FFF7FEFF 		bl	CAN_Init
 1663              	.LVL166:
1010:Generated_Source\PSoC4/CAN.c ****             {
 1664              		.loc 1 1010 0
 1665 0030 0028     		cmp	r0, #0
 1666 0032 0DD1     		bne	.L162
1010:Generated_Source\PSoC4/CAN.c ****             {
 1667              		.loc 1 1010 0 is_stmt 0 discriminator 1
 1668 0034 002C     		cmp	r4, #0
 1669 0036 0BD0     		beq	.L162
1012:Generated_Source\PSoC4/CAN.c ****                 {
 1670              		.loc 1 1012 0 is_stmt 1
ARM GAS  C:\Users\davis\AppData\Local\Temp\cco880hz.s 			page 58


 1671 0038 012C     		cmp	r4, #1
 1672 003a 03D0     		beq	.L163
1015:Generated_Source\PSoC4/CAN.c ****                 }
 1673              		.loc 1 1015 0
 1674 003c 054A     		ldr	r2, .L167
 1675 003e 1368     		ldr	r3, [r2]
 1676 0040 1C43     		orrs	r4, r3
 1677 0042 1460     		str	r4, [r2]
 1678              	.L163:
1018:Generated_Source\PSoC4/CAN.c ****                 {
 1679              		.loc 1 1018 0
 1680 0044 012D     		cmp	r5, #1
 1681 0046 03D1     		bne	.L162
1021:Generated_Source\PSoC4/CAN.c ****                 }
 1682              		.loc 1 1021 0
 1683 0048 FFF7FEFF 		bl	CAN_Enable
 1684              	.LVL167:
 1685 004c 00E0     		b	.L162
 1686              	.LVL168:
 1687              	.L166:
 943:Generated_Source\PSoC4/CAN.c ****     uint8 runState = CAN_STOP_MODE;
 1688              		.loc 1 943 0
 1689 004e 0120     		movs	r0, #1
 1690              	.LVL169:
 1691              	.L162:
1028:Generated_Source\PSoC4/CAN.c **** 
 1692              		.loc 1 1028 0
 1693              		@ sp needed
 1694              	.LVL170:
 1695 0050 70BD     		pop	{r4, r5, r6, pc}
 1696              	.L168:
 1697 0052 C046     		.align	2
 1698              	.L167:
 1699 0054 10002F40 		.word	1076822032
 1700 0058 00042F40 		.word	1076823040
 1701 005c FFFFFF7F 		.word	2147483647
 1702              		.cfi_endproc
 1703              	.LFE13:
 1704              		.size	CAN_SetOpMode, .-CAN_SetOpMode
 1705              		.section	.text.CAN_SetErrorCaptureRegisterMode,"ax",%progbits
 1706              		.align	2
 1707              		.global	CAN_SetErrorCaptureRegisterMode
 1708              		.code	16
 1709              		.thumb_func
 1710              		.type	CAN_SetErrorCaptureRegisterMode, %function
 1711              	CAN_SetErrorCaptureRegisterMode:
 1712              	.LFB24:
1465:Generated_Source\PSoC4/CAN.c **** 
1466:Generated_Source\PSoC4/CAN.c **** 
1467:Generated_Source\PSoC4/CAN.c **** /*******************************************************************************
1468:Generated_Source\PSoC4/CAN.c **** * FUNCTION NAME:   CAN_SetErrorCaptureRegisterMode
1469:Generated_Source\PSoC4/CAN.c **** ********************************************************************************
1470:Generated_Source\PSoC4/CAN.c **** *
1471:Generated_Source\PSoC4/CAN.c **** * Summary:
1472:Generated_Source\PSoC4/CAN.c **** *  This function sets the Error Capture register mode. The two modes are
1473:Generated_Source\PSoC4/CAN.c **** *  possible: Free Running and Error Capture.
1474:Generated_Source\PSoC4/CAN.c **** *
ARM GAS  C:\Users\davis\AppData\Local\Temp\cco880hz.s 			page 59


1475:Generated_Source\PSoC4/CAN.c **** * Parameters:
1476:Generated_Source\PSoC4/CAN.c **** *  ecrMode: The Error Capture register mode setting.
1477:Generated_Source\PSoC4/CAN.c **** *   Define                               Description
1478:Generated_Source\PSoC4/CAN.c **** *   CAN_ECR_FREE_RUNNING     The ECR captures the field and bit
1479:Generated_Source\PSoC4/CAN.c **** *                                         position within the current CAN frame.
1480:Generated_Source\PSoC4/CAN.c **** *   CAN_ECR_ERROR_CAPTURE    In this mode the ECR register only
1481:Generated_Source\PSoC4/CAN.c **** *                                         captures an error event. For
1482:Generated_Source\PSoC4/CAN.c **** *                                         successive error captures, the ECR
1483:Generated_Source\PSoC4/CAN.c **** *                                         needs to be armed again by writing
1484:Generated_Source\PSoC4/CAN.c **** *                                         to the ECR register.
1485:Generated_Source\PSoC4/CAN.c **** *
1486:Generated_Source\PSoC4/CAN.c **** * Return:
1487:Generated_Source\PSoC4/CAN.c **** *  The indication whether the register is written and verified.
1488:Generated_Source\PSoC4/CAN.c **** *   Define                             Description
1489:Generated_Source\PSoC4/CAN.c **** *    CYRET_SUCCESS                      The function passed successfully
1490:Generated_Source\PSoC4/CAN.c **** *    CAN_FAIL              The function failed
1491:Generated_Source\PSoC4/CAN.c **** *
1492:Generated_Source\PSoC4/CAN.c **** *******************************************************************************/
1493:Generated_Source\PSoC4/CAN.c **** uint8 CAN_SetErrorCaptureRegisterMode(uint8 ecrMode)
1494:Generated_Source\PSoC4/CAN.c **** {
 1713              		.loc 1 1494 0
 1714              		.cfi_startproc
 1715              		@ args = 0, pretend = 0, frame = 0
 1716              		@ frame_needed = 0, uses_anonymous_args = 0
 1717              		@ link register save eliminated.
 1718              	.LVL171:
1495:Generated_Source\PSoC4/CAN.c ****     uint8 result = CAN_FAIL;
1496:Generated_Source\PSoC4/CAN.c **** 
1497:Generated_Source\PSoC4/CAN.c ****     if (ecrMode == CAN_ECR_FREE_RUNNING)
 1719              		.loc 1 1497 0
 1720 0000 0028     		cmp	r0, #0
 1721 0002 09D1     		bne	.L170
1498:Generated_Source\PSoC4/CAN.c ****     {
1499:Generated_Source\PSoC4/CAN.c ****         CAN_CFG_REG &= (uint32) (~CAN_ECR_MODE_MASK);
 1722              		.loc 1 1499 0
 1723 0004 0C4B     		ldr	r3, .L174
 1724 0006 1968     		ldr	r1, [r3]
 1725 0008 0C4A     		ldr	r2, .L174+4
 1726 000a 0A40     		ands	r2, r1
 1727 000c 1A60     		str	r2, [r3]
1500:Generated_Source\PSoC4/CAN.c **** 
1501:Generated_Source\PSoC4/CAN.c ****         /* Verify that bit is cleared */
1502:Generated_Source\PSoC4/CAN.c ****         if ((CAN_CFG_REG & CAN_ECR_MODE_MASK) == 0u)
 1728              		.loc 1 1502 0
 1729 000e 1B68     		ldr	r3, [r3]
 1730 0010 5B04     		lsls	r3, r3, #17
 1731 0012 0CD5     		bpl	.L172
1495:Generated_Source\PSoC4/CAN.c **** 
 1732              		.loc 1 1495 0
 1733 0014 0130     		adds	r0, r0, #1
 1734              	.LVL172:
 1735 0016 0DE0     		b	.L171
 1736              	.LVL173:
 1737              	.L170:
1503:Generated_Source\PSoC4/CAN.c ****         {
1504:Generated_Source\PSoC4/CAN.c ****             result = CYRET_SUCCESS;
1505:Generated_Source\PSoC4/CAN.c ****         }
ARM GAS  C:\Users\davis\AppData\Local\Temp\cco880hz.s 			page 60


1506:Generated_Source\PSoC4/CAN.c ****     }
1507:Generated_Source\PSoC4/CAN.c ****     else    /* Capture mode */
1508:Generated_Source\PSoC4/CAN.c ****     {
1509:Generated_Source\PSoC4/CAN.c ****         CAN_CFG_REG |= CAN_ECR_MODE_MASK;
 1738              		.loc 1 1509 0
 1739 0018 074B     		ldr	r3, .L174
 1740 001a 1A68     		ldr	r2, [r3]
 1741 001c 8021     		movs	r1, #128
 1742 001e C901     		lsls	r1, r1, #7
 1743 0020 0A43     		orrs	r2, r1
 1744 0022 1A60     		str	r2, [r3]
1510:Generated_Source\PSoC4/CAN.c **** 
1511:Generated_Source\PSoC4/CAN.c ****         /* Verify that bit is set */
1512:Generated_Source\PSoC4/CAN.c ****         if ((CAN_CFG_REG & CAN_ECR_MODE_MASK) != 0u)
 1745              		.loc 1 1512 0
 1746 0024 1B68     		ldr	r3, [r3]
 1747 0026 0B42     		tst	r3, r1
 1748 0028 03D1     		bne	.L173
1495:Generated_Source\PSoC4/CAN.c **** 
 1749              		.loc 1 1495 0
 1750 002a 0120     		movs	r0, #1
 1751              	.LVL174:
 1752 002c 02E0     		b	.L171
 1753              	.LVL175:
 1754              	.L172:
1504:Generated_Source\PSoC4/CAN.c ****         }
 1755              		.loc 1 1504 0
 1756 002e 0020     		movs	r0, #0
 1757              	.LVL176:
 1758 0030 00E0     		b	.L171
 1759              	.LVL177:
 1760              	.L173:
1513:Generated_Source\PSoC4/CAN.c ****         {
1514:Generated_Source\PSoC4/CAN.c ****             result = CYRET_SUCCESS;
 1761              		.loc 1 1514 0
 1762 0032 0020     		movs	r0, #0
 1763              	.LVL178:
 1764              	.L171:
1515:Generated_Source\PSoC4/CAN.c ****         }
1516:Generated_Source\PSoC4/CAN.c ****     }
1517:Generated_Source\PSoC4/CAN.c **** 
1518:Generated_Source\PSoC4/CAN.c ****     return (result);
1519:Generated_Source\PSoC4/CAN.c **** }
 1765              		.loc 1 1519 0
 1766              		@ sp needed
 1767 0034 7047     		bx	lr
 1768              	.L175:
 1769 0036 C046     		.align	2
 1770              	.L174:
 1771 0038 14002F40 		.word	1076822036
 1772 003c FFBFFFFF 		.word	-16385
 1773              		.cfi_endproc
 1774              	.LFE24:
 1775              		.size	CAN_SetErrorCaptureRegisterMode, .-CAN_SetErrorCaptureRegisterMode
 1776              		.section	.text.CAN_ReadErrorCaptureRegister,"ax",%progbits
 1777              		.align	2
 1778              		.global	CAN_ReadErrorCaptureRegister
ARM GAS  C:\Users\davis\AppData\Local\Temp\cco880hz.s 			page 61


 1779              		.code	16
 1780              		.thumb_func
 1781              		.type	CAN_ReadErrorCaptureRegister, %function
 1782              	CAN_ReadErrorCaptureRegister:
 1783              	.LFB25:
1520:Generated_Source\PSoC4/CAN.c **** 
1521:Generated_Source\PSoC4/CAN.c **** 
1522:Generated_Source\PSoC4/CAN.c **** /*******************************************************************************
1523:Generated_Source\PSoC4/CAN.c **** * FUNCTION NAME:   CAN_ReadErrorCaptureRegister
1524:Generated_Source\PSoC4/CAN.c **** ********************************************************************************
1525:Generated_Source\PSoC4/CAN.c **** *
1526:Generated_Source\PSoC4/CAN.c **** * Summary:
1527:Generated_Source\PSoC4/CAN.c **** *  This function returns the value of the Error Capture register.
1528:Generated_Source\PSoC4/CAN.c **** *
1529:Generated_Source\PSoC4/CAN.c **** * Parameters:
1530:Generated_Source\PSoC4/CAN.c **** *  None.
1531:Generated_Source\PSoC4/CAN.c **** *
1532:Generated_Source\PSoC4/CAN.c **** * Return:
1533:Generated_Source\PSoC4/CAN.c **** *  The value of the Error Capture register.
1534:Generated_Source\PSoC4/CAN.c **** *   Bit  Name          Values
1535:Generated_Source\PSoC4/CAN.c **** *    0    ECR_STATUS    0: The ECR register captured an error or it is a free
1536:Generated_Source\PSoC4/CAN.c **** *                          running mode
1537:Generated_Source\PSoC4/CAN.c **** *                       1: The ECR register is armed
1538:Generated_Source\PSoC4/CAN.c **** *   3:1   ERROR_TYPE    000 : Arbitration loss
1539:Generated_Source\PSoC4/CAN.c **** *                       001 : Bit Error
1540:Generated_Source\PSoC4/CAN.c **** *                       010 : Bit Stuffing Error
1541:Generated_Source\PSoC4/CAN.c **** *                       011 : Acknowledge Error
1542:Generated_Source\PSoC4/CAN.c **** *                       100 : Form Error
1543:Generated_Source\PSoC4/CAN.c **** *                       101 : CRC Error
1544:Generated_Source\PSoC4/CAN.c **** *                       Others : N/A
1545:Generated_Source\PSoC4/CAN.c **** *    4    TX_MODE       0: No status
1546:Generated_Source\PSoC4/CAN.c **** *                       1: CAN Controller is the transmitter
1547:Generated_Source\PSoC4/CAN.c **** *    5    RX_MODE       0: No status
1548:Generated_Source\PSoC4/CAN.c **** *                       1: CAN Controller is the receiver
1549:Generated_Source\PSoC4/CAN.c **** *  11:6   BIT           Bit number inside of Field
1550:Generated_Source\PSoC4/CAN.c **** *  12:16  Field         0x00 : Stopped
1551:Generated_Source\PSoC4/CAN.c **** *                       0x01 : Synchronize
1552:Generated_Source\PSoC4/CAN.c **** *                       0x05 : Interframe
1553:Generated_Source\PSoC4/CAN.c **** *                       0x06 : Bus Idle
1554:Generated_Source\PSoC4/CAN.c **** *                       0x07 : Start of Frame
1555:Generated_Source\PSoC4/CAN.c **** *                       0x08 : Arbitration
1556:Generated_Source\PSoC4/CAN.c **** *                       0x09 : Control
1557:Generated_Source\PSoC4/CAN.c **** *                       0x0A : Data
1558:Generated_Source\PSoC4/CAN.c **** *                       0x0B : CRC
1559:Generated_Source\PSoC4/CAN.c **** *                       0x0C : ACK
1560:Generated_Source\PSoC4/CAN.c **** *                       0x0D : End of frame
1561:Generated_Source\PSoC4/CAN.c **** *                       0x10 : Error flag
1562:Generated_Source\PSoC4/CAN.c **** *                       0x11 : Error echo
1563:Generated_Source\PSoC4/CAN.c **** *                       0x12 : Error delimiter
1564:Generated_Source\PSoC4/CAN.c **** *                       0x18 : Overload flag
1565:Generated_Source\PSoC4/CAN.c **** *                       0x19 : Overload echo
1566:Generated_Source\PSoC4/CAN.c **** *                       0x1A : Overload delimiter
1567:Generated_Source\PSoC4/CAN.c **** *                       Others : N/A
1568:Generated_Source\PSoC4/CAN.c **** *
1569:Generated_Source\PSoC4/CAN.c **** *******************************************************************************/
1570:Generated_Source\PSoC4/CAN.c **** uint32 CAN_ReadErrorCaptureRegister(void)
1571:Generated_Source\PSoC4/CAN.c **** {
ARM GAS  C:\Users\davis\AppData\Local\Temp\cco880hz.s 			page 62


 1784              		.loc 1 1571 0
 1785              		.cfi_startproc
 1786              		@ args = 0, pretend = 0, frame = 0
 1787              		@ frame_needed = 0, uses_anonymous_args = 0
 1788              		@ link register save eliminated.
1572:Generated_Source\PSoC4/CAN.c ****     return (CAN_ECR_REG);
 1789              		.loc 1 1572 0
 1790 0000 014B     		ldr	r3, .L177
 1791 0002 1868     		ldr	r0, [r3]
1573:Generated_Source\PSoC4/CAN.c **** }
 1792              		.loc 1 1573 0
 1793              		@ sp needed
 1794 0004 7047     		bx	lr
 1795              	.L178:
 1796 0006 C046     		.align	2
 1797              	.L177:
 1798 0008 18002F40 		.word	1076822040
 1799              		.cfi_endproc
 1800              	.LFE25:
 1801              		.size	CAN_ReadErrorCaptureRegister, .-CAN_ReadErrorCaptureRegister
 1802              		.section	.text.CAN_ArmErrorCaptureRegister,"ax",%progbits
 1803              		.align	2
 1804              		.global	CAN_ArmErrorCaptureRegister
 1805              		.code	16
 1806              		.thumb_func
 1807              		.type	CAN_ArmErrorCaptureRegister, %function
 1808              	CAN_ArmErrorCaptureRegister:
 1809              	.LFB26:
1574:Generated_Source\PSoC4/CAN.c **** 
1575:Generated_Source\PSoC4/CAN.c **** 
1576:Generated_Source\PSoC4/CAN.c **** /*******************************************************************************
1577:Generated_Source\PSoC4/CAN.c **** * FUNCTION NAME:   CAN_ArmErrorCaptureRegister
1578:Generated_Source\PSoC4/CAN.c **** ********************************************************************************
1579:Generated_Source\PSoC4/CAN.c **** *
1580:Generated_Source\PSoC4/CAN.c **** * Summary:
1581:Generated_Source\PSoC4/CAN.c **** *  This function arms the Error Capture register when the ECR is in the Error
1582:Generated_Source\PSoC4/CAN.c **** *  Capture mode, by setting the ECR_STATUS bit in the ECR register.
1583:Generated_Source\PSoC4/CAN.c **** *
1584:Generated_Source\PSoC4/CAN.c **** * Parameters:
1585:Generated_Source\PSoC4/CAN.c **** *  None.
1586:Generated_Source\PSoC4/CAN.c **** *
1587:Generated_Source\PSoC4/CAN.c **** * Return:
1588:Generated_Source\PSoC4/CAN.c **** *  The indication whether the register is written and verified.
1589:Generated_Source\PSoC4/CAN.c **** *   Define                             Description
1590:Generated_Source\PSoC4/CAN.c **** *    CYRET_SUCCESS                      The function passed successfully
1591:Generated_Source\PSoC4/CAN.c **** *    CAN_FAIL              The function failed
1592:Generated_Source\PSoC4/CAN.c **** *
1593:Generated_Source\PSoC4/CAN.c **** *******************************************************************************/
1594:Generated_Source\PSoC4/CAN.c **** uint8 CAN_ArmErrorCaptureRegister(void)
1595:Generated_Source\PSoC4/CAN.c **** {
 1810              		.loc 1 1595 0
 1811              		.cfi_startproc
 1812              		@ args = 0, pretend = 0, frame = 0
 1813              		@ frame_needed = 0, uses_anonymous_args = 0
 1814              		@ link register save eliminated.
 1815              	.LVL179:
1596:Generated_Source\PSoC4/CAN.c ****     uint8 result = CAN_FAIL;
ARM GAS  C:\Users\davis\AppData\Local\Temp\cco880hz.s 			page 63


1597:Generated_Source\PSoC4/CAN.c **** 
1598:Generated_Source\PSoC4/CAN.c ****     CAN_ECR_REG |= CAN_ECR_STATUS_ARM;
 1816              		.loc 1 1598 0
 1817 0000 054B     		ldr	r3, .L182
 1818 0002 1A68     		ldr	r2, [r3]
 1819 0004 0121     		movs	r1, #1
 1820 0006 0A43     		orrs	r2, r1
 1821 0008 1A60     		str	r2, [r3]
1599:Generated_Source\PSoC4/CAN.c **** 
1600:Generated_Source\PSoC4/CAN.c ****     /* Verify that bit is set */
1601:Generated_Source\PSoC4/CAN.c ****     if ((CAN_ECR_REG & CAN_ECR_STATUS_ARM) != 0u)
 1822              		.loc 1 1601 0
 1823 000a 1B68     		ldr	r3, [r3]
 1824 000c 1942     		tst	r1, r3
 1825 000e 01D1     		bne	.L181
1596:Generated_Source\PSoC4/CAN.c ****     uint8 result = CAN_FAIL;
 1826              		.loc 1 1596 0
 1827 0010 0120     		movs	r0, #1
 1828 0012 00E0     		b	.L180
 1829              	.L181:
1602:Generated_Source\PSoC4/CAN.c ****     {
1603:Generated_Source\PSoC4/CAN.c ****         result = CYRET_SUCCESS;
 1830              		.loc 1 1603 0
 1831 0014 0020     		movs	r0, #0
 1832              	.L180:
 1833              	.LVL180:
1604:Generated_Source\PSoC4/CAN.c ****     }
1605:Generated_Source\PSoC4/CAN.c **** 
1606:Generated_Source\PSoC4/CAN.c ****     return (result);
1607:Generated_Source\PSoC4/CAN.c **** }
 1834              		.loc 1 1607 0
 1835              		@ sp needed
 1836 0016 7047     		bx	lr
 1837              	.L183:
 1838              		.align	2
 1839              	.L182:
 1840 0018 18002F40 		.word	1076822040
 1841              		.cfi_endproc
 1842              	.LFE26:
 1843              		.size	CAN_ArmErrorCaptureRegister, .-CAN_ArmErrorCaptureRegister
 1844              		.global	CAN_initVar
 1845              		.section	.rodata
 1846              		.align	2
 1847              		.set	.LANCHOR0,. + 0
 1848              		.type	CAN_TXConfigStruct.5030, %object
 1849              		.size	CAN_TXConfigStruct.5030, 96
 1850              	CAN_TXConfigStruct.5030:
 1851 0000 00       		.byte	0
 1852 0001 000000   		.space	3
 1853 0004 08008800 		.word	8912904
 1854 0008 00000000 		.word	0
 1855 000c 01       		.byte	1
 1856 000d 000000   		.space	3
 1857 0010 08008800 		.word	8912904
 1858 0014 00000000 		.word	0
 1859 0018 02       		.byte	2
 1860 0019 000000   		.space	3
ARM GAS  C:\Users\davis\AppData\Local\Temp\cco880hz.s 			page 64


 1861 001c 08008800 		.word	8912904
 1862 0020 00000000 		.word	0
 1863 0024 03       		.byte	3
 1864 0025 000000   		.space	3
 1865 0028 08008800 		.word	8912904
 1866 002c 00000000 		.word	0
 1867 0030 04       		.byte	4
 1868 0031 000000   		.space	3
 1869 0034 08008800 		.word	8912904
 1870 0038 00000000 		.word	0
 1871 003c 05       		.byte	5
 1872 003d 000000   		.space	3
 1873 0040 08008800 		.word	8912904
 1874 0044 00000000 		.word	0
 1875 0048 06       		.byte	6
 1876 0049 000000   		.space	3
 1877 004c 08008800 		.word	8912904
 1878 0050 00000000 		.word	0
 1879 0054 07       		.byte	7
 1880 0055 000000   		.space	3
 1881 0058 08008800 		.word	8912904
 1882 005c 00000000 		.word	0
 1883              		.type	CAN_RXConfigStruct.5029, %object
 1884              		.size	CAN_RXConfigStruct.5029, 256
 1885              	CAN_RXConfigStruct.5029:
 1886 0060 00       		.byte	0
 1887 0061 000000   		.space	3
 1888 0064 A8008000 		.word	8388776
 1889 0068 FFFFFFFF 		.word	-1
 1890 006c 00000000 		.word	0
 1891 0070 01       		.byte	1
 1892 0071 000000   		.space	3
 1893 0074 A8008000 		.word	8388776
 1894 0078 FFFFFFFF 		.word	-1
 1895 007c 00000000 		.word	0
 1896 0080 02       		.byte	2
 1897 0081 000000   		.space	3
 1898 0084 A8008000 		.word	8388776
 1899 0088 FFFFFFFF 		.word	-1
 1900 008c 00000000 		.word	0
 1901 0090 03       		.byte	3
 1902 0091 000000   		.space	3
 1903 0094 A8008000 		.word	8388776
 1904 0098 FFFFFFFF 		.word	-1
 1905 009c 00000000 		.word	0
 1906 00a0 04       		.byte	4
 1907 00a1 000000   		.space	3
 1908 00a4 00000000 		.word	0
 1909 00a8 00000000 		.word	0
 1910 00ac 00000000 		.word	0
 1911 00b0 05       		.byte	5
 1912 00b1 000000   		.space	3
 1913 00b4 00000000 		.word	0
 1914 00b8 00000000 		.word	0
 1915 00bc 00000000 		.word	0
 1916 00c0 06       		.byte	6
 1917 00c1 000000   		.space	3
ARM GAS  C:\Users\davis\AppData\Local\Temp\cco880hz.s 			page 65


 1918 00c4 00000000 		.word	0
 1919 00c8 00000000 		.word	0
 1920 00cc 00000000 		.word	0
 1921 00d0 07       		.byte	7
 1922 00d1 000000   		.space	3
 1923 00d4 00000000 		.word	0
 1924 00d8 00000000 		.word	0
 1925 00dc 00000000 		.word	0
 1926 00e0 08       		.byte	8
 1927 00e1 000000   		.space	3
 1928 00e4 00000000 		.word	0
 1929 00e8 00000000 		.word	0
 1930 00ec 00000000 		.word	0
 1931 00f0 09       		.byte	9
 1932 00f1 000000   		.space	3
 1933 00f4 00000000 		.word	0
 1934 00f8 00000000 		.word	0
 1935 00fc 00000000 		.word	0
 1936 0100 0A       		.byte	10
 1937 0101 000000   		.space	3
 1938 0104 00000000 		.word	0
 1939 0108 00000000 		.word	0
 1940 010c 00000000 		.word	0
 1941 0110 0B       		.byte	11
 1942 0111 000000   		.space	3
 1943 0114 00000000 		.word	0
 1944 0118 00000000 		.word	0
 1945 011c 00000000 		.word	0
 1946 0120 0C       		.byte	12
 1947 0121 000000   		.space	3
 1948 0124 00000000 		.word	0
 1949 0128 00000000 		.word	0
 1950 012c 00000000 		.word	0
 1951 0130 0D       		.byte	13
 1952 0131 000000   		.space	3
 1953 0134 00000000 		.word	0
 1954 0138 00000000 		.word	0
 1955 013c 00000000 		.word	0
 1956 0140 0E       		.byte	14
 1957 0141 000000   		.space	3
 1958 0144 00000000 		.word	0
 1959 0148 00000000 		.word	0
 1960 014c 00000000 		.word	0
 1961 0150 0F       		.byte	15
 1962 0151 000000   		.space	3
 1963 0154 00000000 		.word	0
 1964 0158 00000000 		.word	0
 1965 015c 00000000 		.word	0
 1966              		.bss
 1967              		.set	.LANCHOR1,. + 0
 1968              		.type	CAN_initVar, %object
 1969              		.size	CAN_initVar, 1
 1970              	CAN_initVar:
 1971 0000 00       		.space	1
 1972              		.text
 1973              	.Letext0:
 1974              		.file 2 "Generated_Source\\PSoC4\\cytypes.h"
ARM GAS  C:\Users\davis\AppData\Local\Temp\cco880hz.s 			page 66


 1975              		.file 3 "Generated_Source\\PSoC4\\CAN.h"
 1976              		.file 4 "Generated_Source\\PSoC4\\CyLib.h"
 1977              		.section	.debug_info,"",%progbits
 1978              	.Ldebug_info0:
 1979 0000 C2090000 		.4byte	0x9c2
 1980 0004 0400     		.2byte	0x4
 1981 0006 00000000 		.4byte	.Ldebug_abbrev0
 1982 000a 04       		.byte	0x4
 1983 000b 01       		.uleb128 0x1
 1984 000c 4F000000 		.4byte	.LASF89
 1985 0010 0C       		.byte	0xc
 1986 0011 4D010000 		.4byte	.LASF90
 1987 0015 1B030000 		.4byte	.LASF91
 1988 0019 00000000 		.4byte	.Ldebug_ranges0+0
 1989 001d 00000000 		.4byte	0
 1990 0021 00000000 		.4byte	.Ldebug_line0
 1991 0025 02       		.uleb128 0x2
 1992 0026 01       		.byte	0x1
 1993 0027 06       		.byte	0x6
 1994 0028 23010000 		.4byte	.LASF0
 1995 002c 02       		.uleb128 0x2
 1996 002d 01       		.byte	0x1
 1997 002e 08       		.byte	0x8
 1998 002f E1030000 		.4byte	.LASF1
 1999 0033 02       		.uleb128 0x2
 2000 0034 02       		.byte	0x2
 2001 0035 05       		.byte	0x5
 2002 0036 EF030000 		.4byte	.LASF2
 2003 003a 02       		.uleb128 0x2
 2004 003b 02       		.byte	0x2
 2005 003c 07       		.byte	0x7
 2006 003d 1C020000 		.4byte	.LASF3
 2007 0041 02       		.uleb128 0x2
 2008 0042 04       		.byte	0x4
 2009 0043 05       		.byte	0x5
 2010 0044 6A010000 		.4byte	.LASF4
 2011 0048 02       		.uleb128 0x2
 2012 0049 04       		.byte	0x4
 2013 004a 07       		.byte	0x7
 2014 004b F4010000 		.4byte	.LASF5
 2015 004f 02       		.uleb128 0x2
 2016 0050 08       		.byte	0x8
 2017 0051 05       		.byte	0x5
 2018 0052 15010000 		.4byte	.LASF6
 2019 0056 02       		.uleb128 0x2
 2020 0057 08       		.byte	0x8
 2021 0058 07       		.byte	0x7
 2022 0059 DD000000 		.4byte	.LASF7
 2023 005d 03       		.uleb128 0x3
 2024 005e 04       		.byte	0x4
 2025 005f 05       		.byte	0x5
 2026 0060 696E7400 		.ascii	"int\000"
 2027 0064 02       		.uleb128 0x2
 2028 0065 04       		.byte	0x4
 2029 0066 07       		.byte	0x7
 2030 0067 E7010000 		.4byte	.LASF8
 2031 006b 04       		.uleb128 0x4
ARM GAS  C:\Users\davis\AppData\Local\Temp\cco880hz.s 			page 67


 2032 006c 87010000 		.4byte	.LASF9
 2033 0070 02       		.byte	0x2
 2034 0071 FB01     		.2byte	0x1fb
 2035 0073 2C000000 		.4byte	0x2c
 2036 0077 04       		.uleb128 0x4
 2037 0078 14000000 		.4byte	.LASF10
 2038 007c 02       		.byte	0x2
 2039 007d FC01     		.2byte	0x1fc
 2040 007f 3A000000 		.4byte	0x3a
 2041 0083 04       		.uleb128 0x4
 2042 0084 9A010000 		.4byte	.LASF11
 2043 0088 02       		.byte	0x2
 2044 0089 FD01     		.2byte	0x1fd
 2045 008b 48000000 		.4byte	0x48
 2046 008f 02       		.uleb128 0x2
 2047 0090 04       		.byte	0x4
 2048 0091 04       		.byte	0x4
 2049 0092 B9030000 		.4byte	.LASF12
 2050 0096 02       		.uleb128 0x2
 2051 0097 08       		.byte	0x8
 2052 0098 04       		.byte	0x4
 2053 0099 93010000 		.4byte	.LASF13
 2054 009d 02       		.uleb128 0x2
 2055 009e 01       		.byte	0x1
 2056 009f 08       		.byte	0x8
 2057 00a0 62040000 		.4byte	.LASF14
 2058 00a4 04       		.uleb128 0x4
 2059 00a5 DC030000 		.4byte	.LASF15
 2060 00a9 02       		.byte	0x2
 2061 00aa A502     		.2byte	0x2a5
 2062 00ac B0000000 		.4byte	0xb0
 2063 00b0 05       		.uleb128 0x5
 2064 00b1 6B000000 		.4byte	0x6b
 2065 00b5 04       		.uleb128 0x4
 2066 00b6 B8020000 		.4byte	.LASF16
 2067 00ba 02       		.byte	0x2
 2068 00bb A702     		.2byte	0x2a7
 2069 00bd C1000000 		.4byte	0xc1
 2070 00c1 05       		.uleb128 0x5
 2071 00c2 83000000 		.4byte	0x83
 2072 00c6 02       		.uleb128 0x2
 2073 00c7 08       		.byte	0x8
 2074 00c8 04       		.byte	0x4
 2075 00c9 F5020000 		.4byte	.LASF17
 2076 00cd 02       		.uleb128 0x2
 2077 00ce 04       		.byte	0x4
 2078 00cf 07       		.byte	0x7
 2079 00d0 EC020000 		.4byte	.LASF18
 2080 00d4 06       		.uleb128 0x6
 2081 00d5 08       		.byte	0x8
 2082 00d6 03       		.byte	0x3
 2083 00d7 75       		.byte	0x75
 2084 00d8 E9000000 		.4byte	0xe9
 2085 00dc 07       		.uleb128 0x7
 2086 00dd A1010000 		.4byte	.LASF20
 2087 00e1 03       		.byte	0x3
 2088 00e2 77       		.byte	0x77
ARM GAS  C:\Users\davis\AppData\Local\Temp\cco880hz.s 			page 68


 2089 00e3 F9000000 		.4byte	0xf9
 2090 00e7 00       		.byte	0
 2091 00e8 00       		.byte	0
 2092 00e9 08       		.uleb128 0x8
 2093 00ea A4000000 		.4byte	0xa4
 2094 00ee F9000000 		.4byte	0xf9
 2095 00f2 09       		.uleb128 0x9
 2096 00f3 CD000000 		.4byte	0xcd
 2097 00f7 07       		.byte	0x7
 2098 00f8 00       		.byte	0
 2099 00f9 05       		.uleb128 0x5
 2100 00fa E9000000 		.4byte	0xe9
 2101 00fe 0A       		.uleb128 0xa
 2102 00ff AD040000 		.4byte	.LASF19
 2103 0103 03       		.byte	0x3
 2104 0104 78       		.byte	0x78
 2105 0105 D4000000 		.4byte	0xd4
 2106 0109 06       		.uleb128 0x6
 2107 010a 04       		.byte	0x4
 2108 010b 03       		.byte	0x3
 2109 010c 7B       		.byte	0x7b
 2110 010d 1E010000 		.4byte	0x11e
 2111 0111 07       		.uleb128 0x7
 2112 0112 A1010000 		.4byte	.LASF20
 2113 0116 03       		.byte	0x3
 2114 0117 7D       		.byte	0x7d
 2115 0118 2E010000 		.4byte	0x12e
 2116 011c 00       		.byte	0
 2117 011d 00       		.byte	0
 2118 011e 08       		.uleb128 0x8
 2119 011f A4000000 		.4byte	0xa4
 2120 0123 2E010000 		.4byte	0x12e
 2121 0127 09       		.uleb128 0x9
 2122 0128 CD000000 		.4byte	0xcd
 2123 012c 03       		.byte	0x3
 2124 012d 00       		.byte	0
 2125 012e 05       		.uleb128 0x5
 2126 012f 1E010000 		.4byte	0x11e
 2127 0133 0A       		.uleb128 0xa
 2128 0134 E1020000 		.4byte	.LASF21
 2129 0138 03       		.byte	0x3
 2130 0139 7E       		.byte	0x7e
 2131 013a 09010000 		.4byte	0x109
 2132 013e 06       		.uleb128 0x6
 2133 013f 10       		.byte	0x10
 2134 0140 03       		.byte	0x3
 2135 0141 8F       		.byte	0x8f
 2136 0142 77010000 		.4byte	0x177
 2137 0146 07       		.uleb128 0x7
 2138 0147 D7020000 		.4byte	.LASF22
 2139 014b 03       		.byte	0x3
 2140 014c 91       		.byte	0x91
 2141 014d 6B000000 		.4byte	0x6b
 2142 0151 00       		.byte	0
 2143 0152 07       		.uleb128 0x7
 2144 0153 EA040000 		.4byte	.LASF23
 2145 0157 03       		.byte	0x3
ARM GAS  C:\Users\davis\AppData\Local\Temp\cco880hz.s 			page 69


 2146 0158 92       		.byte	0x92
 2147 0159 83000000 		.4byte	0x83
 2148 015d 04       		.byte	0x4
 2149 015e 07       		.uleb128 0x7
 2150 015f 8D010000 		.4byte	.LASF24
 2151 0163 03       		.byte	0x3
 2152 0164 93       		.byte	0x93
 2153 0165 83000000 		.4byte	0x83
 2154 0169 08       		.byte	0x8
 2155 016a 07       		.uleb128 0x7
 2156 016b 0E050000 		.4byte	.LASF25
 2157 016f 03       		.byte	0x3
 2158 0170 94       		.byte	0x94
 2159 0171 83000000 		.4byte	0x83
 2160 0175 0C       		.byte	0xc
 2161 0176 00       		.byte	0
 2162 0177 0A       		.uleb128 0xa
 2163 0178 73020000 		.4byte	.LASF26
 2164 017c 03       		.byte	0x3
 2165 017d 95       		.byte	0x95
 2166 017e 3E010000 		.4byte	0x13e
 2167 0182 06       		.uleb128 0x6
 2168 0183 0C       		.byte	0xc
 2169 0184 03       		.byte	0x3
 2170 0185 98       		.byte	0x98
 2171 0186 AF010000 		.4byte	0x1af
 2172 018a 07       		.uleb128 0x7
 2173 018b BC040000 		.4byte	.LASF27
 2174 018f 03       		.byte	0x3
 2175 0190 9A       		.byte	0x9a
 2176 0191 6B000000 		.4byte	0x6b
 2177 0195 00       		.byte	0
 2178 0196 07       		.uleb128 0x7
 2179 0197 F4000000 		.4byte	.LASF28
 2180 019b 03       		.byte	0x3
 2181 019c 9B       		.byte	0x9b
 2182 019d 83000000 		.4byte	0x83
 2183 01a1 04       		.byte	0x4
 2184 01a2 07       		.uleb128 0x7
 2185 01a3 09050000 		.4byte	.LASF29
 2186 01a7 03       		.byte	0x3
 2187 01a8 9C       		.byte	0x9c
 2188 01a9 83000000 		.4byte	0x83
 2189 01ad 08       		.byte	0x8
 2190 01ae 00       		.byte	0
 2191 01af 0A       		.uleb128 0xa
 2192 01b0 23050000 		.4byte	.LASF30
 2193 01b4 03       		.byte	0x3
 2194 01b5 9D       		.byte	0x9d
 2195 01b6 82010000 		.4byte	0x182
 2196 01ba 06       		.uleb128 0x6
 2197 01bb 20       		.byte	0x20
 2198 01bc 03       		.byte	0x3
 2199 01bd A0       		.byte	0xa0
 2200 01be 17020000 		.4byte	0x217
 2201 01c2 07       		.uleb128 0x7
 2202 01c3 EA040000 		.4byte	.LASF23
ARM GAS  C:\Users\davis\AppData\Local\Temp\cco880hz.s 			page 70


 2203 01c7 03       		.byte	0x3
 2204 01c8 A2       		.byte	0xa2
 2205 01c9 33010000 		.4byte	0x133
 2206 01cd 00       		.byte	0
 2207 01ce 07       		.uleb128 0x7
 2208 01cf 6F030000 		.4byte	.LASF31
 2209 01d3 03       		.byte	0x3
 2210 01d4 A3       		.byte	0xa3
 2211 01d5 33010000 		.4byte	0x133
 2212 01d9 04       		.byte	0x4
 2213 01da 07       		.uleb128 0x7
 2214 01db 80010000 		.4byte	.LASF32
 2215 01df 03       		.byte	0x3
 2216 01e0 A4       		.byte	0xa4
 2217 01e1 FE000000 		.4byte	0xfe
 2218 01e5 08       		.byte	0x8
 2219 01e6 07       		.uleb128 0x7
 2220 01e7 8D010000 		.4byte	.LASF24
 2221 01eb 03       		.byte	0x3
 2222 01ec A5       		.byte	0xa5
 2223 01ed 33010000 		.4byte	0x133
 2224 01f1 10       		.byte	0x10
 2225 01f2 07       		.uleb128 0x7
 2226 01f3 0E050000 		.4byte	.LASF25
 2227 01f7 03       		.byte	0x3
 2228 01f8 A6       		.byte	0xa6
 2229 01f9 33010000 		.4byte	0x133
 2230 01fd 14       		.byte	0x14
 2231 01fe 07       		.uleb128 0x7
 2232 01ff FA000000 		.4byte	.LASF33
 2233 0203 03       		.byte	0x3
 2234 0204 A7       		.byte	0xa7
 2235 0205 33010000 		.4byte	0x133
 2236 0209 18       		.byte	0x18
 2237 020a 07       		.uleb128 0x7
 2238 020b 1C050000 		.4byte	.LASF34
 2239 020f 03       		.byte	0x3
 2240 0210 A8       		.byte	0xa8
 2241 0211 33010000 		.4byte	0x133
 2242 0215 1C       		.byte	0x1c
 2243 0216 00       		.byte	0
 2244 0217 0A       		.uleb128 0xa
 2245 0218 2F020000 		.4byte	.LASF35
 2246 021c 03       		.byte	0x3
 2247 021d A9       		.byte	0xa9
 2248 021e BA010000 		.4byte	0x1ba
 2249 0222 06       		.uleb128 0x6
 2250 0223 10       		.byte	0x10
 2251 0224 03       		.byte	0x3
 2252 0225 AC       		.byte	0xac
 2253 0226 4F020000 		.4byte	0x24f
 2254 022a 07       		.uleb128 0x7
 2255 022b F4000000 		.4byte	.LASF28
 2256 022f 03       		.byte	0x3
 2257 0230 AE       		.byte	0xae
 2258 0231 33010000 		.4byte	0x133
 2259 0235 00       		.byte	0
ARM GAS  C:\Users\davis\AppData\Local\Temp\cco880hz.s 			page 71


 2260 0236 07       		.uleb128 0x7
 2261 0237 09050000 		.4byte	.LASF29
 2262 023b 03       		.byte	0x3
 2263 023c AF       		.byte	0xaf
 2264 023d 33010000 		.4byte	0x133
 2265 0241 04       		.byte	0x4
 2266 0242 07       		.uleb128 0x7
 2267 0243 B1020000 		.4byte	.LASF36
 2268 0247 03       		.byte	0x3
 2269 0248 B0       		.byte	0xb0
 2270 0249 FE000000 		.4byte	0xfe
 2271 024d 08       		.byte	0x8
 2272 024e 00       		.byte	0
 2273 024f 0A       		.uleb128 0xa
 2274 0250 23040000 		.4byte	.LASF37
 2275 0254 03       		.byte	0x3
 2276 0255 B1       		.byte	0xb1
 2277 0256 22020000 		.4byte	0x222
 2278 025a 0B       		.uleb128 0xb
 2279 025b 46000000 		.4byte	.LASF40
 2280 025f 01       		.byte	0x1
 2281 0260 6E01     		.2byte	0x16e
 2282 0262 6B000000 		.4byte	0x6b
 2283 0266 00000000 		.4byte	.LFB5
 2284 026a 38000000 		.4byte	.LFE5-.LFB5
 2285 026e 01       		.uleb128 0x1
 2286 026f 9C       		.byte	0x9c
 2287 0270 A4020000 		.4byte	0x2a4
 2288 0274 0C       		.uleb128 0xc
 2289 0275 06020000 		.4byte	.LASF38
 2290 0279 01       		.byte	0x1
 2291 027a 7001     		.2byte	0x170
 2292 027c 83000000 		.4byte	0x83
 2293 0280 00000000 		.4byte	.LLST0
 2294 0284 0C       		.uleb128 0xc
 2295 0285 2E050000 		.4byte	.LASF39
 2296 0289 01       		.byte	0x1
 2297 028a 7101     		.2byte	0x171
 2298 028c 6B000000 		.4byte	0x6b
 2299 0290 2C000000 		.4byte	.LLST1
 2300 0294 0D       		.uleb128 0xd
 2301 0295 2A000000 		.4byte	.LVL4
 2302 0299 99090000 		.4byte	0x999
 2303 029d 0E       		.uleb128 0xe
 2304 029e 01       		.uleb128 0x1
 2305 029f 50       		.byte	0x50
 2306 02a0 01       		.uleb128 0x1
 2307 02a1 4D       		.byte	0x4d
 2308 02a2 00       		.byte	0
 2309 02a3 00       		.byte	0
 2310 02a4 0B       		.uleb128 0xb
 2311 02a5 50020000 		.4byte	.LASF41
 2312 02a9 01       		.byte	0x1
 2313 02aa AB01     		.2byte	0x1ab
 2314 02ac 6B000000 		.4byte	0x6b
 2315 02b0 00000000 		.4byte	.LFB6
 2316 02b4 1C000000 		.4byte	.LFE6-.LFB6
ARM GAS  C:\Users\davis\AppData\Local\Temp\cco880hz.s 			page 72


 2317 02b8 01       		.uleb128 0x1
 2318 02b9 9C       		.byte	0x9c
 2319 02ba CF020000 		.4byte	0x2cf
 2320 02be 0C       		.uleb128 0xc
 2321 02bf 2E050000 		.4byte	.LASF39
 2322 02c3 01       		.byte	0x1
 2323 02c4 AD01     		.2byte	0x1ad
 2324 02c6 6B000000 		.4byte	0x6b
 2325 02ca 63000000 		.4byte	.LLST2
 2326 02ce 00       		.byte	0
 2327 02cf 0F       		.uleb128 0xf
 2328 02d0 18040000 		.4byte	.LASF42
 2329 02d4 01       		.byte	0x1
 2330 02d5 FE       		.byte	0xfe
 2331 02d6 6B000000 		.4byte	0x6b
 2332 02da 00000000 		.4byte	.LFB3
 2333 02de 48000000 		.4byte	.LFE3-.LFB3
 2334 02e2 01       		.uleb128 0x1
 2335 02e3 9C       		.byte	0x9c
 2336 02e4 21030000 		.4byte	0x321
 2337 02e8 0C       		.uleb128 0xc
 2338 02e9 06020000 		.4byte	.LASF38
 2339 02ed 01       		.byte	0x1
 2340 02ee 0001     		.2byte	0x100
 2341 02f0 83000000 		.4byte	0x83
 2342 02f4 82000000 		.4byte	.LLST3
 2343 02f8 0C       		.uleb128 0xc
 2344 02f9 2E050000 		.4byte	.LASF39
 2345 02fd 01       		.byte	0x1
 2346 02fe 0101     		.2byte	0x101
 2347 0300 6B000000 		.4byte	0x6b
 2348 0304 A3000000 		.4byte	.LLST4
 2349 0308 10       		.uleb128 0x10
 2350 0309 0C000000 		.4byte	.LVL10
 2351 030d A4020000 		.4byte	0x2a4
 2352 0311 0D       		.uleb128 0xd
 2353 0312 12000000 		.4byte	.LVL11
 2354 0316 A4090000 		.4byte	0x9a4
 2355 031a 0E       		.uleb128 0xe
 2356 031b 01       		.uleb128 0x1
 2357 031c 50       		.byte	0x50
 2358 031d 01       		.uleb128 0x1
 2359 031e 4D       		.byte	0x4d
 2360 031f 00       		.byte	0
 2361 0320 00       		.byte	0
 2362 0321 0B       		.uleb128 0xb
 2363 0322 2F010000 		.4byte	.LASF43
 2364 0326 01       		.byte	0x1
 2365 0327 D501     		.2byte	0x1d5
 2366 0329 6B000000 		.4byte	0x6b
 2367 032d 00000000 		.4byte	.LFB7
 2368 0331 1C000000 		.4byte	.LFE7-.LFB7
 2369 0335 01       		.uleb128 0x1
 2370 0336 9C       		.byte	0x9c
 2371 0337 4C030000 		.4byte	0x34c
 2372 033b 0C       		.uleb128 0xc
 2373 033c 2E050000 		.4byte	.LASF39
ARM GAS  C:\Users\davis\AppData\Local\Temp\cco880hz.s 			page 73


 2374 0340 01       		.byte	0x1
 2375 0341 D701     		.2byte	0x1d7
 2376 0343 6B000000 		.4byte	0x6b
 2377 0347 C2000000 		.4byte	.LLST5
 2378 034b 00       		.byte	0
 2379 034c 0B       		.uleb128 0xb
 2380 034d 51040000 		.4byte	.LASF44
 2381 0351 01       		.byte	0x1
 2382 0352 0702     		.2byte	0x207
 2383 0354 6B000000 		.4byte	0x6b
 2384 0358 00000000 		.4byte	.LFB8
 2385 035c 38000000 		.4byte	.LFE8-.LFB8
 2386 0360 01       		.uleb128 0x1
 2387 0361 9C       		.byte	0x9c
 2388 0362 87030000 		.4byte	0x387
 2389 0366 11       		.uleb128 0x11
 2390 0367 0D010000 		.4byte	.LASF46
 2391 036b 01       		.byte	0x1
 2392 036c 0702     		.2byte	0x207
 2393 036e 77000000 		.4byte	0x77
 2394 0372 E1000000 		.4byte	.LLST6
 2395 0376 0C       		.uleb128 0xc
 2396 0377 2E050000 		.4byte	.LASF39
 2397 037b 01       		.byte	0x1
 2398 037c 0902     		.2byte	0x209
 2399 037e 6B000000 		.4byte	0x6b
 2400 0382 26010000 		.4byte	.LLST7
 2401 0386 00       		.byte	0
 2402 0387 0B       		.uleb128 0xb
 2403 0388 85020000 		.4byte	.LASF45
 2404 038c 01       		.byte	0x1
 2405 038d 3F02     		.2byte	0x23f
 2406 038f 6B000000 		.4byte	0x6b
 2407 0393 00000000 		.4byte	.LFB9
 2408 0397 40000000 		.4byte	.LFE9-.LFB9
 2409 039b 01       		.uleb128 0x1
 2410 039c 9C       		.byte	0x9c
 2411 039d C2030000 		.4byte	0x3c2
 2412 03a1 11       		.uleb128 0x11
 2413 03a2 14050000 		.4byte	.LASF47
 2414 03a6 01       		.byte	0x1
 2415 03a7 3F02     		.2byte	0x23f
 2416 03a9 6B000000 		.4byte	0x6b
 2417 03ad 69010000 		.4byte	.LLST8
 2418 03b1 0C       		.uleb128 0xc
 2419 03b2 2E050000 		.4byte	.LASF39
 2420 03b6 01       		.byte	0x1
 2421 03b7 4102     		.2byte	0x241
 2422 03b9 6B000000 		.4byte	0x6b
 2423 03bd D5010000 		.4byte	.LLST9
 2424 03c1 00       		.byte	0
 2425 03c2 0B       		.uleb128 0xb
 2426 03c3 D8040000 		.4byte	.LASF48
 2427 03c7 01       		.byte	0x1
 2428 03c8 8C02     		.2byte	0x28c
 2429 03ca 6B000000 		.4byte	0x6b
 2430 03ce 00000000 		.4byte	.LFB10
ARM GAS  C:\Users\davis\AppData\Local\Temp\cco880hz.s 			page 74


 2431 03d2 A0000000 		.4byte	.LFE10-.LFB10
 2432 03d6 01       		.uleb128 0x1
 2433 03d7 9C       		.byte	0x9c
 2434 03d8 3C040000 		.4byte	0x43c
 2435 03dc 11       		.uleb128 0x11
 2436 03dd C6040000 		.4byte	.LASF49
 2437 03e1 01       		.byte	0x1
 2438 03e2 8C02     		.2byte	0x28c
 2439 03e4 6B000000 		.4byte	0x6b
 2440 03e8 F4010000 		.4byte	.LLST10
 2441 03ec 11       		.uleb128 0x11
 2442 03ed CF040000 		.4byte	.LASF50
 2443 03f1 01       		.byte	0x1
 2444 03f2 8C02     		.2byte	0x28c
 2445 03f4 6B000000 		.4byte	0x6b
 2446 03f8 AB020000 		.4byte	.LLST11
 2447 03fc 12       		.uleb128 0x12
 2448 03fd 736A7700 		.ascii	"sjw\000"
 2449 0401 01       		.byte	0x1
 2450 0402 8C02     		.2byte	0x28c
 2451 0404 6B000000 		.4byte	0x6b
 2452 0408 E5020000 		.4byte	.LLST12
 2453 040c 12       		.uleb128 0x12
 2454 040d 736D00   		.ascii	"sm\000"
 2455 0410 01       		.byte	0x1
 2456 0411 8C02     		.2byte	0x28c
 2457 0413 6B000000 		.4byte	0x6b
 2458 0417 1F030000 		.4byte	.LLST13
 2459 041b 0C       		.uleb128 0xc
 2460 041c 2E050000 		.4byte	.LASF39
 2461 0420 01       		.byte	0x1
 2462 0421 8F02     		.2byte	0x28f
 2463 0423 6B000000 		.4byte	0x6b
 2464 0427 59030000 		.4byte	.LLST14
 2465 042b 0C       		.uleb128 0xc
 2466 042c CF020000 		.4byte	.LASF51
 2467 0430 01       		.byte	0x1
 2468 0431 9002     		.2byte	0x290
 2469 0433 6B000000 		.4byte	0x6b
 2470 0437 9C030000 		.4byte	.LLST15
 2471 043b 00       		.byte	0
 2472 043c 0B       		.uleb128 0xb
 2473 043d 35050000 		.4byte	.LASF52
 2474 0441 01       		.byte	0x1
 2475 0442 0103     		.2byte	0x301
 2476 0444 6B000000 		.4byte	0x6b
 2477 0448 00000000 		.4byte	.LFB11
 2478 044c 38000000 		.4byte	.LFE11-.LFB11
 2479 0450 01       		.uleb128 0x1
 2480 0451 9C       		.byte	0x9c
 2481 0452 77040000 		.4byte	0x477
 2482 0456 11       		.uleb128 0x11
 2483 0457 1B000000 		.4byte	.LASF53
 2484 045b 01       		.byte	0x1
 2485 045c 0103     		.2byte	0x301
 2486 045e 6B000000 		.4byte	0x6b
 2487 0462 E7030000 		.4byte	.LLST16
ARM GAS  C:\Users\davis\AppData\Local\Temp\cco880hz.s 			page 75


 2488 0466 0C       		.uleb128 0xc
 2489 0467 2E050000 		.4byte	.LASF39
 2490 046b 01       		.byte	0x1
 2491 046c 0303     		.2byte	0x303
 2492 046e 6B000000 		.4byte	0x6b
 2493 0472 53040000 		.4byte	.LLST17
 2494 0476 00       		.byte	0
 2495 0477 0B       		.uleb128 0xb
 2496 0478 67040000 		.4byte	.LASF54
 2497 047c 01       		.byte	0x1
 2498 047d 4B03     		.2byte	0x34b
 2499 047f 6B000000 		.4byte	0x6b
 2500 0483 00000000 		.4byte	.LFB12
 2501 0487 38000000 		.4byte	.LFE12-.LFB12
 2502 048b 01       		.uleb128 0x1
 2503 048c 9C       		.byte	0x9c
 2504 048d B2040000 		.4byte	0x4b2
 2505 0491 11       		.uleb128 0x11
 2506 0492 21000000 		.4byte	.LASF55
 2507 0496 01       		.byte	0x1
 2508 0497 4B03     		.2byte	0x34b
 2509 0499 6B000000 		.4byte	0x6b
 2510 049d 72040000 		.4byte	.LLST18
 2511 04a1 0C       		.uleb128 0xc
 2512 04a2 2E050000 		.4byte	.LASF39
 2513 04a6 01       		.byte	0x1
 2514 04a7 4D03     		.2byte	0x34d
 2515 04a9 6B000000 		.4byte	0x6b
 2516 04ad DE040000 		.4byte	.LLST19
 2517 04b1 00       		.byte	0
 2518 04b2 0B       		.uleb128 0xb
 2519 04b3 A6030000 		.4byte	.LASF56
 2520 04b7 01       		.byte	0x1
 2521 04b8 1A04     		.2byte	0x41a
 2522 04ba 6B000000 		.4byte	0x6b
 2523 04be 00000000 		.4byte	.LFB14
 2524 04c2 64000000 		.4byte	.LFE14-.LFB14
 2525 04c6 01       		.uleb128 0x1
 2526 04c7 9C       		.byte	0x9c
 2527 04c8 45050000 		.4byte	0x545
 2528 04cc 11       		.uleb128 0x11
 2529 04cd C7020000 		.4byte	.LASF57
 2530 04d1 01       		.byte	0x1
 2531 04d2 1A04     		.2byte	0x41a
 2532 04d4 45050000 		.4byte	0x545
 2533 04d8 FD040000 		.4byte	.LLST20
 2534 04dc 11       		.uleb128 0x11
 2535 04dd 77040000 		.4byte	.LASF58
 2536 04e1 01       		.byte	0x1
 2537 04e2 1A04     		.2byte	0x41a
 2538 04e4 83000000 		.4byte	0x83
 2539 04e8 55050000 		.4byte	.LLST21
 2540 04ec 0C       		.uleb128 0xc
 2541 04ed 2E050000 		.4byte	.LASF39
 2542 04f1 01       		.byte	0x1
 2543 04f2 1D04     		.2byte	0x41d
 2544 04f4 6B000000 		.4byte	0x6b
ARM GAS  C:\Users\davis\AppData\Local\Temp\cco880hz.s 			page 76


 2545 04f8 C7050000 		.4byte	.LLST22
 2546 04fc 13       		.uleb128 0x13
 2547 04fd 22000000 		.4byte	.LVL80
 2548 0501 99090000 		.4byte	0x999
 2549 0505 0F050000 		.4byte	0x50f
 2550 0509 0E       		.uleb128 0xe
 2551 050a 01       		.uleb128 0x1
 2552 050b 50       		.byte	0x50
 2553 050c 01       		.uleb128 0x1
 2554 050d 4D       		.byte	0x4d
 2555 050e 00       		.byte	0
 2556 050f 13       		.uleb128 0x13
 2557 0510 2A000000 		.4byte	.LVL81
 2558 0514 A4090000 		.4byte	0x9a4
 2559 0518 22050000 		.4byte	0x522
 2560 051c 0E       		.uleb128 0xe
 2561 051d 01       		.uleb128 0x1
 2562 051e 50       		.byte	0x50
 2563 051f 01       		.uleb128 0x1
 2564 0520 4D       		.byte	0x4d
 2565 0521 00       		.byte	0
 2566 0522 13       		.uleb128 0x13
 2567 0523 3E000000 		.4byte	.LVL85
 2568 0527 99090000 		.4byte	0x999
 2569 052b 35050000 		.4byte	0x535
 2570 052f 0E       		.uleb128 0xe
 2571 0530 01       		.uleb128 0x1
 2572 0531 50       		.byte	0x50
 2573 0532 01       		.uleb128 0x1
 2574 0533 4D       		.byte	0x4d
 2575 0534 00       		.byte	0
 2576 0535 0D       		.uleb128 0xd
 2577 0536 46000000 		.4byte	.LVL86
 2578 053a A4090000 		.4byte	0x9a4
 2579 053e 0E       		.uleb128 0xe
 2580 053f 01       		.uleb128 0x1
 2581 0540 50       		.byte	0x50
 2582 0541 01       		.uleb128 0x1
 2583 0542 4D       		.byte	0x4d
 2584 0543 00       		.byte	0
 2585 0544 00       		.byte	0
 2586 0545 14       		.uleb128 0x14
 2587 0546 04       		.byte	0x4
 2588 0547 B5000000 		.4byte	0xb5
 2589 054b 0B       		.uleb128 0xb
 2590 054c D8010000 		.4byte	.LASF59
 2591 0550 01       		.byte	0x1
 2592 0551 7604     		.2byte	0x476
 2593 0553 6B000000 		.4byte	0x6b
 2594 0557 00000000 		.4byte	.LFB15
 2595 055b 1C000000 		.4byte	.LFE15-.LFB15
 2596 055f 01       		.uleb128 0x1
 2597 0560 9C       		.byte	0x9c
 2598 0561 86050000 		.4byte	0x586
 2599 0565 11       		.uleb128 0x11
 2600 0566 A6010000 		.4byte	.LASF60
 2601 056a 01       		.byte	0x1
ARM GAS  C:\Users\davis\AppData\Local\Temp\cco880hz.s 			page 77


 2602 056b 7604     		.2byte	0x476
 2603 056d 77000000 		.4byte	0x77
 2604 0571 0A060000 		.4byte	.LLST23
 2605 0575 0C       		.uleb128 0xc
 2606 0576 2E050000 		.4byte	.LASF39
 2607 057a 01       		.byte	0x1
 2608 057b 7804     		.2byte	0x478
 2609 057d 6B000000 		.4byte	0x6b
 2610 0581 44060000 		.4byte	.LLST24
 2611 0585 00       		.byte	0
 2612 0586 15       		.uleb128 0x15
 2613 0587 F9030000 		.4byte	.LASF61
 2614 058b 01       		.byte	0x1
 2615 058c A104     		.2byte	0x4a1
 2616 058e 6B000000 		.4byte	0x6b
 2617 0592 00000000 		.4byte	.LFB16
 2618 0596 14000000 		.4byte	.LFE16-.LFB16
 2619 059a 01       		.uleb128 0x1
 2620 059b 9C       		.byte	0x9c
 2621 059c 15       		.uleb128 0x15
 2622 059d AB010000 		.4byte	.LASF62
 2623 05a1 01       		.byte	0x1
 2624 05a2 BF04     		.2byte	0x4bf
 2625 05a4 6B000000 		.4byte	0x6b
 2626 05a8 00000000 		.4byte	.LFB17
 2627 05ac 14000000 		.4byte	.LFE17-.LFB17
 2628 05b0 01       		.uleb128 0x1
 2629 05b1 9C       		.byte	0x9c
 2630 05b2 15       		.uleb128 0x15
 2631 05b3 94020000 		.4byte	.LASF63
 2632 05b7 01       		.byte	0x1
 2633 05b8 DC04     		.2byte	0x4dc
 2634 05ba 6B000000 		.4byte	0x6b
 2635 05be 00000000 		.4byte	.LFB18
 2636 05c2 0C000000 		.4byte	.LFE18-.LFB18
 2637 05c6 01       		.uleb128 0x1
 2638 05c7 9C       		.byte	0x9c
 2639 05c8 15       		.uleb128 0x15
 2640 05c9 00000000 		.4byte	.LASF64
 2641 05cd 01       		.byte	0x1
 2642 05ce F604     		.2byte	0x4f6
 2643 05d0 6B000000 		.4byte	0x6b
 2644 05d4 00000000 		.4byte	.LFB19
 2645 05d8 10000000 		.4byte	.LFE19-.LFB19
 2646 05dc 01       		.uleb128 0x1
 2647 05dd 9C       		.byte	0x9c
 2648 05de 15       		.uleb128 0x15
 2649 05df 09030000 		.4byte	.LASF65
 2650 05e3 01       		.byte	0x1
 2651 05e4 1105     		.2byte	0x511
 2652 05e6 6B000000 		.4byte	0x6b
 2653 05ea 00000000 		.4byte	.LFB20
 2654 05ee 10000000 		.4byte	.LFE20-.LFB20
 2655 05f2 01       		.uleb128 0x1
 2656 05f3 9C       		.byte	0x9c
 2657 05f4 0B       		.uleb128 0xb
 2658 05f5 F9040000 		.4byte	.LASF66
ARM GAS  C:\Users\davis\AppData\Local\Temp\cco880hz.s 			page 78


 2659 05f9 01       		.byte	0x1
 2660 05fa 3005     		.2byte	0x530
 2661 05fc 6B000000 		.4byte	0x6b
 2662 0600 00000000 		.4byte	.LFB21
 2663 0604 98000000 		.4byte	.LFE21-.LFB21
 2664 0608 01       		.uleb128 0x1
 2665 0609 9C       		.byte	0x9c
 2666 060a 2F060000 		.4byte	0x62f
 2667 060e 11       		.uleb128 0x11
 2668 060f A8020000 		.4byte	.LASF67
 2669 0613 01       		.byte	0x1
 2670 0614 3005     		.2byte	0x530
 2671 0616 2F060000 		.4byte	0x62f
 2672 061a 63060000 		.4byte	.LLST25
 2673 061e 0C       		.uleb128 0xc
 2674 061f 2E050000 		.4byte	.LASF39
 2675 0623 01       		.byte	0x1
 2676 0624 3305     		.2byte	0x533
 2677 0626 6B000000 		.4byte	0x6b
 2678 062a 01070000 		.4byte	.LLST26
 2679 062e 00       		.byte	0
 2680 062f 14       		.uleb128 0x14
 2681 0630 04       		.byte	0x4
 2682 0631 35060000 		.4byte	0x635
 2683 0635 16       		.uleb128 0x16
 2684 0636 77010000 		.4byte	0x177
 2685 063a 0B       		.uleb128 0xb
 2686 063b 7E040000 		.4byte	.LASF68
 2687 063f 01       		.byte	0x1
 2688 0640 6905     		.2byte	0x569
 2689 0642 6B000000 		.4byte	0x6b
 2690 0646 00000000 		.4byte	.LFB22
 2691 064a 58000000 		.4byte	.LFE22-.LFB22
 2692 064e 01       		.uleb128 0x1
 2693 064f 9C       		.byte	0x9c
 2694 0650 75060000 		.4byte	0x675
 2695 0654 11       		.uleb128 0x11
 2696 0655 F0040000 		.4byte	.LASF69
 2697 0659 01       		.byte	0x1
 2698 065a 6905     		.2byte	0x569
 2699 065c 75060000 		.4byte	0x675
 2700 0660 20070000 		.4byte	.LLST27
 2701 0664 0C       		.uleb128 0xc
 2702 0665 2E050000 		.4byte	.LASF39
 2703 0669 01       		.byte	0x1
 2704 066a 6C05     		.2byte	0x56c
 2705 066c 6B000000 		.4byte	0x6b
 2706 0670 73070000 		.4byte	.LLST28
 2707 0674 00       		.byte	0
 2708 0675 14       		.uleb128 0x14
 2709 0676 04       		.byte	0x4
 2710 0677 7B060000 		.4byte	0x67b
 2711 067b 16       		.uleb128 0x16
 2712 067c AF010000 		.4byte	0x1af
 2713 0680 0F       		.uleb128 0xf
 2714 0681 30000000 		.4byte	.LASF70
 2715 0685 01       		.byte	0x1
ARM GAS  C:\Users\davis\AppData\Local\Temp\cco880hz.s 			page 79


 2716 0686 2F       		.byte	0x2f
 2717 0687 6B000000 		.4byte	0x6b
 2718 068b 00000000 		.4byte	.LFB1
 2719 068f 54000000 		.4byte	.LFE1-.LFB1
 2720 0693 01       		.uleb128 0x1
 2721 0694 9C       		.byte	0x9c
 2722 0695 11070000 		.4byte	0x711
 2723 0699 17       		.uleb128 0x17
 2724 069a 3D020000 		.4byte	.LASF71
 2725 069e 01       		.byte	0x1
 2726 069f 32       		.byte	0x32
 2727 06a0 21070000 		.4byte	0x721
 2728 06a4 05       		.uleb128 0x5
 2729 06a5 03       		.byte	0x3
 2730 06a6 60000000 		.4byte	CAN_RXConfigStruct.5029
 2731 06aa 17       		.uleb128 0x17
 2732 06ab 9A040000 		.4byte	.LASF72
 2733 06af 01       		.byte	0x1
 2734 06b0 46       		.byte	0x46
 2735 06b1 36070000 		.4byte	0x736
 2736 06b5 05       		.uleb128 0x5
 2737 06b6 03       		.byte	0x3
 2738 06b7 00000000 		.4byte	CAN_TXConfigStruct.5030
 2739 06bb 18       		.uleb128 0x18
 2740 06bc 2E050000 		.4byte	.LASF39
 2741 06c0 01       		.byte	0x1
 2742 06c1 52       		.byte	0x52
 2743 06c2 6B000000 		.4byte	0x6b
 2744 06c6 92070000 		.4byte	.LLST29
 2745 06ca 19       		.uleb128 0x19
 2746 06cb 6900     		.ascii	"i\000"
 2747 06cd 01       		.byte	0x1
 2748 06ce 53       		.byte	0x53
 2749 06cf 6B000000 		.4byte	0x6b
 2750 06d3 B1070000 		.4byte	.LLST30
 2751 06d7 13       		.uleb128 0x13
 2752 06d8 14000000 		.4byte	.LVL119
 2753 06dc 3A060000 		.4byte	0x63a
 2754 06e0 F8060000 		.4byte	0x6f8
 2755 06e4 0E       		.uleb128 0xe
 2756 06e5 01       		.uleb128 0x1
 2757 06e6 50       		.byte	0x50
 2758 06e7 0F       		.uleb128 0xf
 2759 06e8 74       		.byte	0x74
 2760 06e9 00       		.sleb128 0
 2761 06ea 31       		.byte	0x31
 2762 06eb 24       		.byte	0x24
 2763 06ec 74       		.byte	0x74
 2764 06ed 00       		.sleb128 0
 2765 06ee 22       		.byte	0x22
 2766 06ef 32       		.byte	0x32
 2767 06f0 24       		.byte	0x24
 2768 06f1 03       		.byte	0x3
 2769 06f2 00000000 		.4byte	.LANCHOR0
 2770 06f6 22       		.byte	0x22
 2771 06f7 00       		.byte	0
 2772 06f8 0D       		.uleb128 0xd
ARM GAS  C:\Users\davis\AppData\Local\Temp\cco880hz.s 			page 80


 2773 06f9 38000000 		.4byte	.LVL123
 2774 06fd F4050000 		.4byte	0x5f4
 2775 0701 0E       		.uleb128 0xe
 2776 0702 01       		.uleb128 0x1
 2777 0703 50       		.byte	0x50
 2778 0704 0A       		.uleb128 0xa
 2779 0705 74       		.byte	0x74
 2780 0706 00       		.sleb128 0
 2781 0707 34       		.byte	0x34
 2782 0708 24       		.byte	0x24
 2783 0709 03       		.byte	0x3
 2784 070a 60000000 		.4byte	.LANCHOR0+96
 2785 070e 22       		.byte	0x22
 2786 070f 00       		.byte	0
 2787 0710 00       		.byte	0
 2788 0711 08       		.uleb128 0x8
 2789 0712 35060000 		.4byte	0x635
 2790 0716 21070000 		.4byte	0x721
 2791 071a 09       		.uleb128 0x9
 2792 071b CD000000 		.4byte	0xcd
 2793 071f 0F       		.byte	0xf
 2794 0720 00       		.byte	0
 2795 0721 16       		.uleb128 0x16
 2796 0722 11070000 		.4byte	0x711
 2797 0726 08       		.uleb128 0x8
 2798 0727 7B060000 		.4byte	0x67b
 2799 072b 36070000 		.4byte	0x736
 2800 072f 09       		.uleb128 0x9
 2801 0730 CD000000 		.4byte	0xcd
 2802 0734 07       		.byte	0x7
 2803 0735 00       		.byte	0
 2804 0736 16       		.uleb128 0x16
 2805 0737 26070000 		.4byte	0x726
 2806 073b 0B       		.uleb128 0xb
 2807 073c BE010000 		.4byte	.LASF73
 2808 0740 01       		.byte	0x1
 2809 0741 9E05     		.2byte	0x59e
 2810 0743 6B000000 		.4byte	0x6b
 2811 0747 00000000 		.4byte	.LFB23
 2812 074b 40000000 		.4byte	.LFE23-.LFB23
 2813 074f 01       		.uleb128 0x1
 2814 0750 9C       		.byte	0x9c
 2815 0751 76070000 		.4byte	0x776
 2816 0755 11       		.uleb128 0x11
 2817 0756 A1030000 		.4byte	.LASF74
 2818 075a 01       		.byte	0x1
 2819 075b 9E05     		.2byte	0x59e
 2820 075d 6B000000 		.4byte	0x6b
 2821 0761 E6070000 		.4byte	.LLST31
 2822 0765 0C       		.uleb128 0xc
 2823 0766 2E050000 		.4byte	.LASF39
 2824 076a 01       		.byte	0x1
 2825 076b A005     		.2byte	0x5a0
 2826 076d 6B000000 		.4byte	0x6b
 2827 0771 52080000 		.4byte	.LLST32
 2828 0775 00       		.byte	0
 2829 0776 0F       		.uleb128 0xf
ARM GAS  C:\Users\davis\AppData\Local\Temp\cco880hz.s 			page 81


 2830 0777 BE020000 		.4byte	.LASF75
 2831 077b 01       		.byte	0x1
 2832 077c 89       		.byte	0x89
 2833 077d 6B000000 		.4byte	0x6b
 2834 0781 00000000 		.4byte	.LFB2
 2835 0785 E4000000 		.4byte	.LFE2-.LFB2
 2836 0789 01       		.uleb128 0x1
 2837 078a 9C       		.byte	0x9c
 2838 078b 69080000 		.4byte	0x869
 2839 078f 18       		.uleb128 0x18
 2840 0790 06020000 		.4byte	.LASF38
 2841 0794 01       		.byte	0x1
 2842 0795 8B       		.byte	0x8b
 2843 0796 83000000 		.4byte	0x83
 2844 079a 71080000 		.4byte	.LLST33
 2845 079e 18       		.uleb128 0x18
 2846 079f 2E050000 		.4byte	.LASF39
 2847 07a3 01       		.byte	0x1
 2848 07a4 8C       		.byte	0x8c
 2849 07a5 6B000000 		.4byte	0x6b
 2850 07a9 9D080000 		.4byte	.LLST34
 2851 07ad 18       		.uleb128 0x18
 2852 07ae 8E040000 		.4byte	.LASF76
 2853 07b2 01       		.byte	0x1
 2854 07b3 8D       		.byte	0x8d
 2855 07b4 6B000000 		.4byte	0x6b
 2856 07b8 BC080000 		.4byte	.LLST35
 2857 07bc 13       		.uleb128 0x13
 2858 07bd 32000000 		.4byte	.LVL141
 2859 07c1 99090000 		.4byte	0x999
 2860 07c5 CF070000 		.4byte	0x7cf
 2861 07c9 0E       		.uleb128 0xe
 2862 07ca 01       		.uleb128 0x1
 2863 07cb 50       		.byte	0x50
 2864 07cc 01       		.uleb128 0x1
 2865 07cd 4D       		.byte	0x4d
 2866 07ce 00       		.byte	0
 2867 07cf 13       		.uleb128 0x13
 2868 07d0 3A000000 		.4byte	.LVL142
 2869 07d4 AF090000 		.4byte	0x9af
 2870 07d8 E2070000 		.4byte	0x7e2
 2871 07dc 0E       		.uleb128 0xe
 2872 07dd 01       		.uleb128 0x1
 2873 07de 50       		.byte	0x50
 2874 07df 01       		.uleb128 0x1
 2875 07e0 4D       		.byte	0x4d
 2876 07e1 00       		.byte	0
 2877 07e2 13       		.uleb128 0x13
 2878 07e3 42000000 		.4byte	.LVL143
 2879 07e7 BA090000 		.4byte	0x9ba
 2880 07eb FA070000 		.4byte	0x7fa
 2881 07ef 0E       		.uleb128 0xe
 2882 07f0 01       		.uleb128 0x1
 2883 07f1 50       		.byte	0x50
 2884 07f2 01       		.uleb128 0x1
 2885 07f3 4D       		.byte	0x4d
 2886 07f4 0E       		.uleb128 0xe
ARM GAS  C:\Users\davis\AppData\Local\Temp\cco880hz.s 			page 82


 2887 07f5 01       		.uleb128 0x1
 2888 07f6 51       		.byte	0x51
 2889 07f7 01       		.uleb128 0x1
 2890 07f8 33       		.byte	0x33
 2891 07f9 00       		.byte	0
 2892 07fa 13       		.uleb128 0x13
 2893 07fb 48000000 		.4byte	.LVL144
 2894 07ff 4C030000 		.4byte	0x34c
 2895 0803 0D080000 		.4byte	0x80d
 2896 0807 0E       		.uleb128 0xe
 2897 0808 01       		.uleb128 0x1
 2898 0809 50       		.byte	0x50
 2899 080a 01       		.uleb128 0x1
 2900 080b 47       		.byte	0x47
 2901 080c 00       		.byte	0
 2902 080d 10       		.uleb128 0x10
 2903 080e 50000000 		.4byte	.LVL145
 2904 0812 87030000 		.4byte	0x387
 2905 0816 10       		.uleb128 0x10
 2906 0817 58000000 		.4byte	.LVL146
 2907 081b 3B070000 		.4byte	0x73b
 2908 081f 13       		.uleb128 0x13
 2909 0820 68000000 		.4byte	.LVL147
 2910 0824 C2030000 		.4byte	0x3c2
 2911 0828 3C080000 		.4byte	0x83c
 2912 082c 0E       		.uleb128 0xe
 2913 082d 01       		.uleb128 0x1
 2914 082e 51       		.byte	0x51
 2915 082f 01       		.uleb128 0x1
 2916 0830 31       		.byte	0x31
 2917 0831 0E       		.uleb128 0xe
 2918 0832 01       		.uleb128 0x1
 2919 0833 52       		.byte	0x52
 2920 0834 01       		.uleb128 0x1
 2921 0835 31       		.byte	0x31
 2922 0836 0E       		.uleb128 0xe
 2923 0837 01       		.uleb128 0x1
 2924 0838 53       		.byte	0x53
 2925 0839 01       		.uleb128 0x1
 2926 083a 30       		.byte	0x30
 2927 083b 00       		.byte	0
 2928 083c 10       		.uleb128 0x10
 2929 083d 70000000 		.4byte	.LVL148
 2930 0841 3C040000 		.4byte	0x43c
 2931 0845 10       		.uleb128 0x10
 2932 0846 78000000 		.4byte	.LVL149
 2933 084a 77040000 		.4byte	0x477
 2934 084e 10       		.uleb128 0x10
 2935 084f 9E000000 		.4byte	.LVL151
 2936 0853 80060000 		.4byte	0x680
 2937 0857 0D       		.uleb128 0xd
 2938 0858 A8000000 		.4byte	.LVL152
 2939 085c 4B050000 		.4byte	0x54b
 2940 0860 0E       		.uleb128 0xe
 2941 0861 01       		.uleb128 0x1
 2942 0862 50       		.byte	0x50
 2943 0863 03       		.uleb128 0x3
ARM GAS  C:\Users\davis\AppData\Local\Temp\cco880hz.s 			page 83


 2944 0864 0A       		.byte	0xa
 2945 0865 0110     		.2byte	0x1001
 2946 0867 00       		.byte	0
 2947 0868 00       		.byte	0
 2948 0869 0B       		.uleb128 0xb
 2949 086a 26000000 		.4byte	.LASF77
 2950 086e 01       		.byte	0x1
 2951 086f 4301     		.2byte	0x143
 2952 0871 6B000000 		.4byte	0x6b
 2953 0875 00000000 		.4byte	.LFB4
 2954 0879 28000000 		.4byte	.LFE4-.LFB4
 2955 087d 01       		.uleb128 0x1
 2956 087e 9C       		.byte	0x9c
 2957 087f A6080000 		.4byte	0x8a6
 2958 0883 0C       		.uleb128 0xc
 2959 0884 2E050000 		.4byte	.LASF39
 2960 0888 01       		.byte	0x1
 2961 0889 4501     		.2byte	0x145
 2962 088b 6B000000 		.4byte	0x6b
 2963 088f F2080000 		.4byte	.LLST36
 2964 0893 10       		.uleb128 0x10
 2965 0894 0E000000 		.4byte	.LVL158
 2966 0898 76070000 		.4byte	0x776
 2967 089c 10       		.uleb128 0x10
 2968 089d 20000000 		.4byte	.LVL161
 2969 08a1 CF020000 		.4byte	0x2cf
 2970 08a5 00       		.byte	0
 2971 08a6 0B       		.uleb128 0xb
 2972 08a7 0E020000 		.4byte	.LASF78
 2973 08ab 01       		.byte	0x1
 2974 08ac AA03     		.2byte	0x3aa
 2975 08ae 6B000000 		.4byte	0x6b
 2976 08b2 00000000 		.4byte	.LFB13
 2977 08b6 60000000 		.4byte	.LFE13-.LFB13
 2978 08ba 01       		.uleb128 0x1
 2979 08bb 9C       		.byte	0x9c
 2980 08bc 0C090000 		.4byte	0x90c
 2981 08c0 11       		.uleb128 0x11
 2982 08c1 7E020000 		.4byte	.LASF79
 2983 08c5 01       		.byte	0x1
 2984 08c6 AA03     		.2byte	0x3aa
 2985 08c8 6B000000 		.4byte	0x6b
 2986 08cc 33090000 		.4byte	.LLST37
 2987 08d0 0C       		.uleb128 0xc
 2988 08d1 2E050000 		.4byte	.LASF39
 2989 08d5 01       		.byte	0x1
 2990 08d6 AF03     		.2byte	0x3af
 2991 08d8 6B000000 		.4byte	0x6b
 2992 08dc 54090000 		.4byte	.LLST38
 2993 08e0 0C       		.uleb128 0xc
 2994 08e1 44010000 		.4byte	.LASF80
 2995 08e5 01       		.byte	0x1
 2996 08e6 B003     		.2byte	0x3b0
 2997 08e8 6B000000 		.4byte	0x6b
 2998 08ec 95090000 		.4byte	.LLST39
 2999 08f0 10       		.uleb128 0x10
 3000 08f1 1E000000 		.4byte	.LVL165
ARM GAS  C:\Users\davis\AppData\Local\Temp\cco880hz.s 			page 84


 3001 08f5 5A020000 		.4byte	0x25a
 3002 08f9 10       		.uleb128 0x10
 3003 08fa 30000000 		.4byte	.LVL166
 3004 08fe 76070000 		.4byte	0x776
 3005 0902 10       		.uleb128 0x10
 3006 0903 4C000000 		.4byte	.LVL167
 3007 0907 CF020000 		.4byte	0x2cf
 3008 090b 00       		.byte	0
 3009 090c 0B       		.uleb128 0xb
 3010 090d 31040000 		.4byte	.LASF81
 3011 0911 01       		.byte	0x1
 3012 0912 D505     		.2byte	0x5d5
 3013 0914 6B000000 		.4byte	0x6b
 3014 0918 00000000 		.4byte	.LFB24
 3015 091c 40000000 		.4byte	.LFE24-.LFB24
 3016 0920 01       		.uleb128 0x1
 3017 0921 9C       		.byte	0x9c
 3018 0922 47090000 		.4byte	0x947
 3019 0926 11       		.uleb128 0x11
 3020 0927 01030000 		.4byte	.LASF82
 3021 092b 01       		.byte	0x1
 3022 092c D505     		.2byte	0x5d5
 3023 092e 6B000000 		.4byte	0x6b
 3024 0932 B4090000 		.4byte	.LLST40
 3025 0936 0C       		.uleb128 0xc
 3026 0937 2E050000 		.4byte	.LASF39
 3027 093b 01       		.byte	0x1
 3028 093c D705     		.2byte	0x5d7
 3029 093e 6B000000 		.4byte	0x6b
 3030 0942 200A0000 		.4byte	.LLST41
 3031 0946 00       		.byte	0
 3032 0947 15       		.uleb128 0x15
 3033 0948 BF030000 		.4byte	.LASF83
 3034 094c 01       		.byte	0x1
 3035 094d 2206     		.2byte	0x622
 3036 094f 83000000 		.4byte	0x83
 3037 0953 00000000 		.4byte	.LFB25
 3038 0957 0C000000 		.4byte	.LFE25-.LFB25
 3039 095b 01       		.uleb128 0x1
 3040 095c 9C       		.byte	0x9c
 3041 095d 0B       		.uleb128 0xb
 3042 095e 74030000 		.4byte	.LASF84
 3043 0962 01       		.byte	0x1
 3044 0963 3A06     		.2byte	0x63a
 3045 0965 6B000000 		.4byte	0x6b
 3046 0969 00000000 		.4byte	.LFB26
 3047 096d 1C000000 		.4byte	.LFE26-.LFB26
 3048 0971 01       		.uleb128 0x1
 3049 0972 9C       		.byte	0x9c
 3050 0973 88090000 		.4byte	0x988
 3051 0977 0C       		.uleb128 0xc
 3052 0978 2E050000 		.4byte	.LASF39
 3053 097c 01       		.byte	0x1
 3054 097d 3C06     		.2byte	0x63c
 3055 097f 6B000000 		.4byte	0x6b
 3056 0983 3F0A0000 		.4byte	.LLST42
 3057 0987 00       		.byte	0
ARM GAS  C:\Users\davis\AppData\Local\Temp\cco880hz.s 			page 85


 3058 0988 1A       		.uleb128 0x1a
 3059 0989 01010000 		.4byte	.LASF92
 3060 098d 01       		.byte	0x1
 3061 098e 16       		.byte	0x16
 3062 098f 6B000000 		.4byte	0x6b
 3063 0993 05       		.uleb128 0x5
 3064 0994 03       		.byte	0x3
 3065 0995 00000000 		.4byte	CAN_initVar
 3066 0999 1B       		.uleb128 0x1b
 3067 099a 73010000 		.4byte	.LASF85
 3068 099e 73010000 		.4byte	.LASF85
 3069 09a2 04       		.byte	0x4
 3070 09a3 D8       		.byte	0xd8
 3071 09a4 1B       		.uleb128 0x1b
 3072 09a5 0C040000 		.4byte	.LASF86
 3073 09a9 0C040000 		.4byte	.LASF86
 3074 09ad 04       		.byte	0x4
 3075 09ae D6       		.byte	0xd6
 3076 09af 1B       		.uleb128 0x1b
 3077 09b0 64020000 		.4byte	.LASF87
 3078 09b4 64020000 		.4byte	.LASF87
 3079 09b8 04       		.byte	0x4
 3080 09b9 D0       		.byte	0xd0
 3081 09ba 1B       		.uleb128 0x1b
 3082 09bb 90030000 		.4byte	.LASF88
 3083 09bf 90030000 		.4byte	.LASF88
 3084 09c3 04       		.byte	0x4
 3085 09c4 D3       		.byte	0xd3
 3086 09c5 00       		.byte	0
 3087              		.section	.debug_abbrev,"",%progbits
 3088              	.Ldebug_abbrev0:
 3089 0000 01       		.uleb128 0x1
 3090 0001 11       		.uleb128 0x11
 3091 0002 01       		.byte	0x1
 3092 0003 25       		.uleb128 0x25
 3093 0004 0E       		.uleb128 0xe
 3094 0005 13       		.uleb128 0x13
 3095 0006 0B       		.uleb128 0xb
 3096 0007 03       		.uleb128 0x3
 3097 0008 0E       		.uleb128 0xe
 3098 0009 1B       		.uleb128 0x1b
 3099 000a 0E       		.uleb128 0xe
 3100 000b 55       		.uleb128 0x55
 3101 000c 17       		.uleb128 0x17
 3102 000d 11       		.uleb128 0x11
 3103 000e 01       		.uleb128 0x1
 3104 000f 10       		.uleb128 0x10
 3105 0010 17       		.uleb128 0x17
 3106 0011 00       		.byte	0
 3107 0012 00       		.byte	0
 3108 0013 02       		.uleb128 0x2
 3109 0014 24       		.uleb128 0x24
 3110 0015 00       		.byte	0
 3111 0016 0B       		.uleb128 0xb
 3112 0017 0B       		.uleb128 0xb
 3113 0018 3E       		.uleb128 0x3e
 3114 0019 0B       		.uleb128 0xb
ARM GAS  C:\Users\davis\AppData\Local\Temp\cco880hz.s 			page 86


 3115 001a 03       		.uleb128 0x3
 3116 001b 0E       		.uleb128 0xe
 3117 001c 00       		.byte	0
 3118 001d 00       		.byte	0
 3119 001e 03       		.uleb128 0x3
 3120 001f 24       		.uleb128 0x24
 3121 0020 00       		.byte	0
 3122 0021 0B       		.uleb128 0xb
 3123 0022 0B       		.uleb128 0xb
 3124 0023 3E       		.uleb128 0x3e
 3125 0024 0B       		.uleb128 0xb
 3126 0025 03       		.uleb128 0x3
 3127 0026 08       		.uleb128 0x8
 3128 0027 00       		.byte	0
 3129 0028 00       		.byte	0
 3130 0029 04       		.uleb128 0x4
 3131 002a 16       		.uleb128 0x16
 3132 002b 00       		.byte	0
 3133 002c 03       		.uleb128 0x3
 3134 002d 0E       		.uleb128 0xe
 3135 002e 3A       		.uleb128 0x3a
 3136 002f 0B       		.uleb128 0xb
 3137 0030 3B       		.uleb128 0x3b
 3138 0031 05       		.uleb128 0x5
 3139 0032 49       		.uleb128 0x49
 3140 0033 13       		.uleb128 0x13
 3141 0034 00       		.byte	0
 3142 0035 00       		.byte	0
 3143 0036 05       		.uleb128 0x5
 3144 0037 35       		.uleb128 0x35
 3145 0038 00       		.byte	0
 3146 0039 49       		.uleb128 0x49
 3147 003a 13       		.uleb128 0x13
 3148 003b 00       		.byte	0
 3149 003c 00       		.byte	0
 3150 003d 06       		.uleb128 0x6
 3151 003e 13       		.uleb128 0x13
 3152 003f 01       		.byte	0x1
 3153 0040 0B       		.uleb128 0xb
 3154 0041 0B       		.uleb128 0xb
 3155 0042 3A       		.uleb128 0x3a
 3156 0043 0B       		.uleb128 0xb
 3157 0044 3B       		.uleb128 0x3b
 3158 0045 0B       		.uleb128 0xb
 3159 0046 01       		.uleb128 0x1
 3160 0047 13       		.uleb128 0x13
 3161 0048 00       		.byte	0
 3162 0049 00       		.byte	0
 3163 004a 07       		.uleb128 0x7
 3164 004b 0D       		.uleb128 0xd
 3165 004c 00       		.byte	0
 3166 004d 03       		.uleb128 0x3
 3167 004e 0E       		.uleb128 0xe
 3168 004f 3A       		.uleb128 0x3a
 3169 0050 0B       		.uleb128 0xb
 3170 0051 3B       		.uleb128 0x3b
 3171 0052 0B       		.uleb128 0xb
ARM GAS  C:\Users\davis\AppData\Local\Temp\cco880hz.s 			page 87


 3172 0053 49       		.uleb128 0x49
 3173 0054 13       		.uleb128 0x13
 3174 0055 38       		.uleb128 0x38
 3175 0056 0B       		.uleb128 0xb
 3176 0057 00       		.byte	0
 3177 0058 00       		.byte	0
 3178 0059 08       		.uleb128 0x8
 3179 005a 01       		.uleb128 0x1
 3180 005b 01       		.byte	0x1
 3181 005c 49       		.uleb128 0x49
 3182 005d 13       		.uleb128 0x13
 3183 005e 01       		.uleb128 0x1
 3184 005f 13       		.uleb128 0x13
 3185 0060 00       		.byte	0
 3186 0061 00       		.byte	0
 3187 0062 09       		.uleb128 0x9
 3188 0063 21       		.uleb128 0x21
 3189 0064 00       		.byte	0
 3190 0065 49       		.uleb128 0x49
 3191 0066 13       		.uleb128 0x13
 3192 0067 2F       		.uleb128 0x2f
 3193 0068 0B       		.uleb128 0xb
 3194 0069 00       		.byte	0
 3195 006a 00       		.byte	0
 3196 006b 0A       		.uleb128 0xa
 3197 006c 16       		.uleb128 0x16
 3198 006d 00       		.byte	0
 3199 006e 03       		.uleb128 0x3
 3200 006f 0E       		.uleb128 0xe
 3201 0070 3A       		.uleb128 0x3a
 3202 0071 0B       		.uleb128 0xb
 3203 0072 3B       		.uleb128 0x3b
 3204 0073 0B       		.uleb128 0xb
 3205 0074 49       		.uleb128 0x49
 3206 0075 13       		.uleb128 0x13
 3207 0076 00       		.byte	0
 3208 0077 00       		.byte	0
 3209 0078 0B       		.uleb128 0xb
 3210 0079 2E       		.uleb128 0x2e
 3211 007a 01       		.byte	0x1
 3212 007b 3F       		.uleb128 0x3f
 3213 007c 19       		.uleb128 0x19
 3214 007d 03       		.uleb128 0x3
 3215 007e 0E       		.uleb128 0xe
 3216 007f 3A       		.uleb128 0x3a
 3217 0080 0B       		.uleb128 0xb
 3218 0081 3B       		.uleb128 0x3b
 3219 0082 05       		.uleb128 0x5
 3220 0083 27       		.uleb128 0x27
 3221 0084 19       		.uleb128 0x19
 3222 0085 49       		.uleb128 0x49
 3223 0086 13       		.uleb128 0x13
 3224 0087 11       		.uleb128 0x11
 3225 0088 01       		.uleb128 0x1
 3226 0089 12       		.uleb128 0x12
 3227 008a 06       		.uleb128 0x6
 3228 008b 40       		.uleb128 0x40
ARM GAS  C:\Users\davis\AppData\Local\Temp\cco880hz.s 			page 88


 3229 008c 18       		.uleb128 0x18
 3230 008d 9742     		.uleb128 0x2117
 3231 008f 19       		.uleb128 0x19
 3232 0090 01       		.uleb128 0x1
 3233 0091 13       		.uleb128 0x13
 3234 0092 00       		.byte	0
 3235 0093 00       		.byte	0
 3236 0094 0C       		.uleb128 0xc
 3237 0095 34       		.uleb128 0x34
 3238 0096 00       		.byte	0
 3239 0097 03       		.uleb128 0x3
 3240 0098 0E       		.uleb128 0xe
 3241 0099 3A       		.uleb128 0x3a
 3242 009a 0B       		.uleb128 0xb
 3243 009b 3B       		.uleb128 0x3b
 3244 009c 05       		.uleb128 0x5
 3245 009d 49       		.uleb128 0x49
 3246 009e 13       		.uleb128 0x13
 3247 009f 02       		.uleb128 0x2
 3248 00a0 17       		.uleb128 0x17
 3249 00a1 00       		.byte	0
 3250 00a2 00       		.byte	0
 3251 00a3 0D       		.uleb128 0xd
 3252 00a4 898201   		.uleb128 0x4109
 3253 00a7 01       		.byte	0x1
 3254 00a8 11       		.uleb128 0x11
 3255 00a9 01       		.uleb128 0x1
 3256 00aa 31       		.uleb128 0x31
 3257 00ab 13       		.uleb128 0x13
 3258 00ac 00       		.byte	0
 3259 00ad 00       		.byte	0
 3260 00ae 0E       		.uleb128 0xe
 3261 00af 8A8201   		.uleb128 0x410a
 3262 00b2 00       		.byte	0
 3263 00b3 02       		.uleb128 0x2
 3264 00b4 18       		.uleb128 0x18
 3265 00b5 9142     		.uleb128 0x2111
 3266 00b7 18       		.uleb128 0x18
 3267 00b8 00       		.byte	0
 3268 00b9 00       		.byte	0
 3269 00ba 0F       		.uleb128 0xf
 3270 00bb 2E       		.uleb128 0x2e
 3271 00bc 01       		.byte	0x1
 3272 00bd 3F       		.uleb128 0x3f
 3273 00be 19       		.uleb128 0x19
 3274 00bf 03       		.uleb128 0x3
 3275 00c0 0E       		.uleb128 0xe
 3276 00c1 3A       		.uleb128 0x3a
 3277 00c2 0B       		.uleb128 0xb
 3278 00c3 3B       		.uleb128 0x3b
 3279 00c4 0B       		.uleb128 0xb
 3280 00c5 27       		.uleb128 0x27
 3281 00c6 19       		.uleb128 0x19
 3282 00c7 49       		.uleb128 0x49
 3283 00c8 13       		.uleb128 0x13
 3284 00c9 11       		.uleb128 0x11
 3285 00ca 01       		.uleb128 0x1
ARM GAS  C:\Users\davis\AppData\Local\Temp\cco880hz.s 			page 89


 3286 00cb 12       		.uleb128 0x12
 3287 00cc 06       		.uleb128 0x6
 3288 00cd 40       		.uleb128 0x40
 3289 00ce 18       		.uleb128 0x18
 3290 00cf 9742     		.uleb128 0x2117
 3291 00d1 19       		.uleb128 0x19
 3292 00d2 01       		.uleb128 0x1
 3293 00d3 13       		.uleb128 0x13
 3294 00d4 00       		.byte	0
 3295 00d5 00       		.byte	0
 3296 00d6 10       		.uleb128 0x10
 3297 00d7 898201   		.uleb128 0x4109
 3298 00da 00       		.byte	0
 3299 00db 11       		.uleb128 0x11
 3300 00dc 01       		.uleb128 0x1
 3301 00dd 31       		.uleb128 0x31
 3302 00de 13       		.uleb128 0x13
 3303 00df 00       		.byte	0
 3304 00e0 00       		.byte	0
 3305 00e1 11       		.uleb128 0x11
 3306 00e2 05       		.uleb128 0x5
 3307 00e3 00       		.byte	0
 3308 00e4 03       		.uleb128 0x3
 3309 00e5 0E       		.uleb128 0xe
 3310 00e6 3A       		.uleb128 0x3a
 3311 00e7 0B       		.uleb128 0xb
 3312 00e8 3B       		.uleb128 0x3b
 3313 00e9 05       		.uleb128 0x5
 3314 00ea 49       		.uleb128 0x49
 3315 00eb 13       		.uleb128 0x13
 3316 00ec 02       		.uleb128 0x2
 3317 00ed 17       		.uleb128 0x17
 3318 00ee 00       		.byte	0
 3319 00ef 00       		.byte	0
 3320 00f0 12       		.uleb128 0x12
 3321 00f1 05       		.uleb128 0x5
 3322 00f2 00       		.byte	0
 3323 00f3 03       		.uleb128 0x3
 3324 00f4 08       		.uleb128 0x8
 3325 00f5 3A       		.uleb128 0x3a
 3326 00f6 0B       		.uleb128 0xb
 3327 00f7 3B       		.uleb128 0x3b
 3328 00f8 05       		.uleb128 0x5
 3329 00f9 49       		.uleb128 0x49
 3330 00fa 13       		.uleb128 0x13
 3331 00fb 02       		.uleb128 0x2
 3332 00fc 17       		.uleb128 0x17
 3333 00fd 00       		.byte	0
 3334 00fe 00       		.byte	0
 3335 00ff 13       		.uleb128 0x13
 3336 0100 898201   		.uleb128 0x4109
 3337 0103 01       		.byte	0x1
 3338 0104 11       		.uleb128 0x11
 3339 0105 01       		.uleb128 0x1
 3340 0106 31       		.uleb128 0x31
 3341 0107 13       		.uleb128 0x13
 3342 0108 01       		.uleb128 0x1
ARM GAS  C:\Users\davis\AppData\Local\Temp\cco880hz.s 			page 90


 3343 0109 13       		.uleb128 0x13
 3344 010a 00       		.byte	0
 3345 010b 00       		.byte	0
 3346 010c 14       		.uleb128 0x14
 3347 010d 0F       		.uleb128 0xf
 3348 010e 00       		.byte	0
 3349 010f 0B       		.uleb128 0xb
 3350 0110 0B       		.uleb128 0xb
 3351 0111 49       		.uleb128 0x49
 3352 0112 13       		.uleb128 0x13
 3353 0113 00       		.byte	0
 3354 0114 00       		.byte	0
 3355 0115 15       		.uleb128 0x15
 3356 0116 2E       		.uleb128 0x2e
 3357 0117 00       		.byte	0
 3358 0118 3F       		.uleb128 0x3f
 3359 0119 19       		.uleb128 0x19
 3360 011a 03       		.uleb128 0x3
 3361 011b 0E       		.uleb128 0xe
 3362 011c 3A       		.uleb128 0x3a
 3363 011d 0B       		.uleb128 0xb
 3364 011e 3B       		.uleb128 0x3b
 3365 011f 05       		.uleb128 0x5
 3366 0120 27       		.uleb128 0x27
 3367 0121 19       		.uleb128 0x19
 3368 0122 49       		.uleb128 0x49
 3369 0123 13       		.uleb128 0x13
 3370 0124 11       		.uleb128 0x11
 3371 0125 01       		.uleb128 0x1
 3372 0126 12       		.uleb128 0x12
 3373 0127 06       		.uleb128 0x6
 3374 0128 40       		.uleb128 0x40
 3375 0129 18       		.uleb128 0x18
 3376 012a 9742     		.uleb128 0x2117
 3377 012c 19       		.uleb128 0x19
 3378 012d 00       		.byte	0
 3379 012e 00       		.byte	0
 3380 012f 16       		.uleb128 0x16
 3381 0130 26       		.uleb128 0x26
 3382 0131 00       		.byte	0
 3383 0132 49       		.uleb128 0x49
 3384 0133 13       		.uleb128 0x13
 3385 0134 00       		.byte	0
 3386 0135 00       		.byte	0
 3387 0136 17       		.uleb128 0x17
 3388 0137 34       		.uleb128 0x34
 3389 0138 00       		.byte	0
 3390 0139 03       		.uleb128 0x3
 3391 013a 0E       		.uleb128 0xe
 3392 013b 3A       		.uleb128 0x3a
 3393 013c 0B       		.uleb128 0xb
 3394 013d 3B       		.uleb128 0x3b
 3395 013e 0B       		.uleb128 0xb
 3396 013f 49       		.uleb128 0x49
 3397 0140 13       		.uleb128 0x13
 3398 0141 02       		.uleb128 0x2
 3399 0142 18       		.uleb128 0x18
ARM GAS  C:\Users\davis\AppData\Local\Temp\cco880hz.s 			page 91


 3400 0143 00       		.byte	0
 3401 0144 00       		.byte	0
 3402 0145 18       		.uleb128 0x18
 3403 0146 34       		.uleb128 0x34
 3404 0147 00       		.byte	0
 3405 0148 03       		.uleb128 0x3
 3406 0149 0E       		.uleb128 0xe
 3407 014a 3A       		.uleb128 0x3a
 3408 014b 0B       		.uleb128 0xb
 3409 014c 3B       		.uleb128 0x3b
 3410 014d 0B       		.uleb128 0xb
 3411 014e 49       		.uleb128 0x49
 3412 014f 13       		.uleb128 0x13
 3413 0150 02       		.uleb128 0x2
 3414 0151 17       		.uleb128 0x17
 3415 0152 00       		.byte	0
 3416 0153 00       		.byte	0
 3417 0154 19       		.uleb128 0x19
 3418 0155 34       		.uleb128 0x34
 3419 0156 00       		.byte	0
 3420 0157 03       		.uleb128 0x3
 3421 0158 08       		.uleb128 0x8
 3422 0159 3A       		.uleb128 0x3a
 3423 015a 0B       		.uleb128 0xb
 3424 015b 3B       		.uleb128 0x3b
 3425 015c 0B       		.uleb128 0xb
 3426 015d 49       		.uleb128 0x49
 3427 015e 13       		.uleb128 0x13
 3428 015f 02       		.uleb128 0x2
 3429 0160 17       		.uleb128 0x17
 3430 0161 00       		.byte	0
 3431 0162 00       		.byte	0
 3432 0163 1A       		.uleb128 0x1a
 3433 0164 34       		.uleb128 0x34
 3434 0165 00       		.byte	0
 3435 0166 03       		.uleb128 0x3
 3436 0167 0E       		.uleb128 0xe
 3437 0168 3A       		.uleb128 0x3a
 3438 0169 0B       		.uleb128 0xb
 3439 016a 3B       		.uleb128 0x3b
 3440 016b 0B       		.uleb128 0xb
 3441 016c 49       		.uleb128 0x49
 3442 016d 13       		.uleb128 0x13
 3443 016e 3F       		.uleb128 0x3f
 3444 016f 19       		.uleb128 0x19
 3445 0170 02       		.uleb128 0x2
 3446 0171 18       		.uleb128 0x18
 3447 0172 00       		.byte	0
 3448 0173 00       		.byte	0
 3449 0174 1B       		.uleb128 0x1b
 3450 0175 2E       		.uleb128 0x2e
 3451 0176 00       		.byte	0
 3452 0177 3F       		.uleb128 0x3f
 3453 0178 19       		.uleb128 0x19
 3454 0179 3C       		.uleb128 0x3c
 3455 017a 19       		.uleb128 0x19
 3456 017b 6E       		.uleb128 0x6e
ARM GAS  C:\Users\davis\AppData\Local\Temp\cco880hz.s 			page 92


 3457 017c 0E       		.uleb128 0xe
 3458 017d 03       		.uleb128 0x3
 3459 017e 0E       		.uleb128 0xe
 3460 017f 3A       		.uleb128 0x3a
 3461 0180 0B       		.uleb128 0xb
 3462 0181 3B       		.uleb128 0x3b
 3463 0182 0B       		.uleb128 0xb
 3464 0183 00       		.byte	0
 3465 0184 00       		.byte	0
 3466 0185 00       		.byte	0
 3467              		.section	.debug_loc,"",%progbits
 3468              	.Ldebug_loc0:
 3469              	.LLST0:
 3470 0000 02000000 		.4byte	.LVL0
 3471 0004 12000000 		.4byte	.LVL1
 3472 0008 0400     		.2byte	0x4
 3473 000a 0A       		.byte	0xa
 3474 000b 00F0     		.2byte	0xf000
 3475 000d 9F       		.byte	0x9f
 3476 000e 12000000 		.4byte	.LVL1
 3477 0012 29000000 		.4byte	.LVL4-1
 3478 0016 0100     		.2byte	0x1
 3479 0018 53       		.byte	0x53
 3480 0019 2E000000 		.4byte	.LVL5
 3481 001d 30000000 		.4byte	.LVL6
 3482 0021 0100     		.2byte	0x1
 3483 0023 53       		.byte	0x53
 3484 0024 00000000 		.4byte	0
 3485 0028 00000000 		.4byte	0
 3486              	.LLST1:
 3487 002c 02000000 		.4byte	.LVL0
 3488 0030 24000000 		.4byte	.LVL3
 3489 0034 0200     		.2byte	0x2
 3490 0036 31       		.byte	0x31
 3491 0037 9F       		.byte	0x9f
 3492 0038 24000000 		.4byte	.LVL3
 3493 003c 2E000000 		.4byte	.LVL5
 3494 0040 0200     		.2byte	0x2
 3495 0042 30       		.byte	0x30
 3496 0043 9F       		.byte	0x9f
 3497 0044 2E000000 		.4byte	.LVL5
 3498 0048 30000000 		.4byte	.LVL6
 3499 004c 0200     		.2byte	0x2
 3500 004e 31       		.byte	0x31
 3501 004f 9F       		.byte	0x9f
 3502 0050 30000000 		.4byte	.LVL6
 3503 0054 38000000 		.4byte	.LFE5
 3504 0058 0100     		.2byte	0x1
 3505 005a 50       		.byte	0x50
 3506 005b 00000000 		.4byte	0
 3507 005f 00000000 		.4byte	0
 3508              	.LLST2:
 3509 0063 00000000 		.4byte	.LVL7
 3510 0067 16000000 		.4byte	.LVL8
 3511 006b 0200     		.2byte	0x2
 3512 006d 31       		.byte	0x31
 3513 006e 9F       		.byte	0x9f
ARM GAS  C:\Users\davis\AppData\Local\Temp\cco880hz.s 			page 93


 3514 006f 16000000 		.4byte	.LVL8
 3515 0073 1C000000 		.4byte	.LFE6
 3516 0077 0100     		.2byte	0x1
 3517 0079 50       		.byte	0x50
 3518 007a 00000000 		.4byte	0
 3519 007e 00000000 		.4byte	0
 3520              	.LLST3:
 3521 0082 02000000 		.4byte	.LVL9
 3522 0086 22000000 		.4byte	.LVL12
 3523 008a 0400     		.2byte	0x4
 3524 008c 0A       		.byte	0xa
 3525 008d 0012     		.2byte	0x1200
 3526 008f 9F       		.byte	0x9f
 3527 0090 22000000 		.4byte	.LVL12
 3528 0094 48000000 		.4byte	.LFE3
 3529 0098 0100     		.2byte	0x1
 3530 009a 53       		.byte	0x53
 3531 009b 00000000 		.4byte	0
 3532 009f 00000000 		.4byte	0
 3533              	.LLST4:
 3534 00a3 02000000 		.4byte	.LVL9
 3535 00a7 3A000000 		.4byte	.LVL14
 3536 00ab 0200     		.2byte	0x2
 3537 00ad 31       		.byte	0x31
 3538 00ae 9F       		.byte	0x9f
 3539 00af 3A000000 		.4byte	.LVL14
 3540 00b3 48000000 		.4byte	.LFE3
 3541 00b7 0100     		.2byte	0x1
 3542 00b9 50       		.byte	0x50
 3543 00ba 00000000 		.4byte	0
 3544 00be 00000000 		.4byte	0
 3545              	.LLST5:
 3546 00c2 00000000 		.4byte	.LVL15
 3547 00c6 16000000 		.4byte	.LVL16
 3548 00ca 0200     		.2byte	0x2
 3549 00cc 31       		.byte	0x31
 3550 00cd 9F       		.byte	0x9f
 3551 00ce 16000000 		.4byte	.LVL16
 3552 00d2 1C000000 		.4byte	.LFE7
 3553 00d6 0100     		.2byte	0x1
 3554 00d8 50       		.byte	0x50
 3555 00d9 00000000 		.4byte	0
 3556 00dd 00000000 		.4byte	0
 3557              	.LLST6:
 3558 00e1 00000000 		.4byte	.LVL17
 3559 00e5 10000000 		.4byte	.LVL19
 3560 00e9 0100     		.2byte	0x1
 3561 00eb 50       		.byte	0x50
 3562 00ec 10000000 		.4byte	.LVL19
 3563 00f0 22000000 		.4byte	.LVL20
 3564 00f4 0400     		.2byte	0x4
 3565 00f6 F3       		.byte	0xf3
 3566 00f7 01       		.uleb128 0x1
 3567 00f8 50       		.byte	0x50
 3568 00f9 9F       		.byte	0x9f
 3569 00fa 22000000 		.4byte	.LVL20
 3570 00fe 24000000 		.4byte	.LVL21
ARM GAS  C:\Users\davis\AppData\Local\Temp\cco880hz.s 			page 94


 3571 0102 0100     		.2byte	0x1
 3572 0104 50       		.byte	0x50
 3573 0105 24000000 		.4byte	.LVL21
 3574 0109 26000000 		.4byte	.LVL22
 3575 010d 0100     		.2byte	0x1
 3576 010f 53       		.byte	0x53
 3577 0110 26000000 		.4byte	.LVL22
 3578 0114 38000000 		.4byte	.LFE8
 3579 0118 0400     		.2byte	0x4
 3580 011a F3       		.byte	0xf3
 3581 011b 01       		.uleb128 0x1
 3582 011c 50       		.byte	0x50
 3583 011d 9F       		.byte	0x9f
 3584 011e 00000000 		.4byte	0
 3585 0122 00000000 		.4byte	0
 3586              	.LLST7:
 3587 0126 00000000 		.4byte	.LVL17
 3588 012a 06000000 		.4byte	.LVL18
 3589 012e 0200     		.2byte	0x2
 3590 0130 32       		.byte	0x32
 3591 0131 9F       		.byte	0x9f
 3592 0132 06000000 		.4byte	.LVL18
 3593 0136 22000000 		.4byte	.LVL20
 3594 013a 0200     		.2byte	0x2
 3595 013c 31       		.byte	0x31
 3596 013d 9F       		.byte	0x9f
 3597 013e 22000000 		.4byte	.LVL20
 3598 0142 26000000 		.4byte	.LVL22
 3599 0146 0200     		.2byte	0x2
 3600 0148 32       		.byte	0x32
 3601 0149 9F       		.byte	0x9f
 3602 014a 26000000 		.4byte	.LVL22
 3603 014e 28000000 		.4byte	.LVL23
 3604 0152 0200     		.2byte	0x2
 3605 0154 31       		.byte	0x31
 3606 0155 9F       		.byte	0x9f
 3607 0156 28000000 		.4byte	.LVL23
 3608 015a 38000000 		.4byte	.LFE8
 3609 015e 0100     		.2byte	0x1
 3610 0160 50       		.byte	0x50
 3611 0161 00000000 		.4byte	0
 3612 0165 00000000 		.4byte	0
 3613              	.LLST8:
 3614 0169 00000000 		.4byte	.LVL24
 3615 016d 16000000 		.4byte	.LVL25
 3616 0171 0100     		.2byte	0x1
 3617 0173 50       		.byte	0x50
 3618 0174 16000000 		.4byte	.LVL25
 3619 0178 18000000 		.4byte	.LVL26
 3620 017c 0400     		.2byte	0x4
 3621 017e F3       		.byte	0xf3
 3622 017f 01       		.uleb128 0x1
 3623 0180 50       		.byte	0x50
 3624 0181 9F       		.byte	0x9f
 3625 0182 18000000 		.4byte	.LVL26
 3626 0186 2C000000 		.4byte	.LVL27
 3627 018a 0100     		.2byte	0x1
ARM GAS  C:\Users\davis\AppData\Local\Temp\cco880hz.s 			page 95


 3628 018c 50       		.byte	0x50
 3629 018d 2C000000 		.4byte	.LVL27
 3630 0191 2E000000 		.4byte	.LVL28
 3631 0195 0400     		.2byte	0x4
 3632 0197 F3       		.byte	0xf3
 3633 0198 01       		.uleb128 0x1
 3634 0199 50       		.byte	0x50
 3635 019a 9F       		.byte	0x9f
 3636 019b 2E000000 		.4byte	.LVL28
 3637 019f 30000000 		.4byte	.LVL29
 3638 01a3 0100     		.2byte	0x1
 3639 01a5 50       		.byte	0x50
 3640 01a6 30000000 		.4byte	.LVL29
 3641 01aa 32000000 		.4byte	.LVL30
 3642 01ae 0400     		.2byte	0x4
 3643 01b0 F3       		.byte	0xf3
 3644 01b1 01       		.uleb128 0x1
 3645 01b2 50       		.byte	0x50
 3646 01b3 9F       		.byte	0x9f
 3647 01b4 32000000 		.4byte	.LVL30
 3648 01b8 34000000 		.4byte	.LVL31
 3649 01bc 0100     		.2byte	0x1
 3650 01be 50       		.byte	0x50
 3651 01bf 34000000 		.4byte	.LVL31
 3652 01c3 40000000 		.4byte	.LFE9
 3653 01c7 0400     		.2byte	0x4
 3654 01c9 F3       		.byte	0xf3
 3655 01ca 01       		.uleb128 0x1
 3656 01cb 50       		.byte	0x50
 3657 01cc 9F       		.byte	0x9f
 3658 01cd 00000000 		.4byte	0
 3659 01d1 00000000 		.4byte	0
 3660              	.LLST9:
 3661 01d5 00000000 		.4byte	.LVL24
 3662 01d9 34000000 		.4byte	.LVL31
 3663 01dd 0200     		.2byte	0x2
 3664 01df 31       		.byte	0x31
 3665 01e0 9F       		.byte	0x9f
 3666 01e1 34000000 		.4byte	.LVL31
 3667 01e5 40000000 		.4byte	.LFE9
 3668 01e9 0100     		.2byte	0x1
 3669 01eb 50       		.byte	0x50
 3670 01ec 00000000 		.4byte	0
 3671 01f0 00000000 		.4byte	0
 3672              	.LLST10:
 3673 01f4 00000000 		.4byte	.LVL32
 3674 01f8 34000000 		.4byte	.LVL37
 3675 01fc 0100     		.2byte	0x1
 3676 01fe 50       		.byte	0x50
 3677 01ff 34000000 		.4byte	.LVL37
 3678 0203 76000000 		.4byte	.LVL44
 3679 0207 0400     		.2byte	0x4
 3680 0209 F3       		.byte	0xf3
 3681 020a 01       		.uleb128 0x1
 3682 020b 50       		.byte	0x50
 3683 020c 9F       		.byte	0x9f
 3684 020d 76000000 		.4byte	.LVL44
ARM GAS  C:\Users\davis\AppData\Local\Temp\cco880hz.s 			page 96


 3685 0211 78000000 		.4byte	.LVL45
 3686 0215 0100     		.2byte	0x1
 3687 0217 50       		.byte	0x50
 3688 0218 78000000 		.4byte	.LVL45
 3689 021c 7A000000 		.4byte	.LVL46
 3690 0220 0400     		.2byte	0x4
 3691 0222 F3       		.byte	0xf3
 3692 0223 01       		.uleb128 0x1
 3693 0224 50       		.byte	0x50
 3694 0225 9F       		.byte	0x9f
 3695 0226 7A000000 		.4byte	.LVL46
 3696 022a 7C000000 		.4byte	.LVL47
 3697 022e 0100     		.2byte	0x1
 3698 0230 50       		.byte	0x50
 3699 0231 7C000000 		.4byte	.LVL47
 3700 0235 7E000000 		.4byte	.LVL48
 3701 0239 0400     		.2byte	0x4
 3702 023b F3       		.byte	0xf3
 3703 023c 01       		.uleb128 0x1
 3704 023d 50       		.byte	0x50
 3705 023e 9F       		.byte	0x9f
 3706 023f 7E000000 		.4byte	.LVL48
 3707 0243 80000000 		.4byte	.LVL49
 3708 0247 0100     		.2byte	0x1
 3709 0249 50       		.byte	0x50
 3710 024a 80000000 		.4byte	.LVL49
 3711 024e 82000000 		.4byte	.LVL50
 3712 0252 0400     		.2byte	0x4
 3713 0254 F3       		.byte	0xf3
 3714 0255 01       		.uleb128 0x1
 3715 0256 50       		.byte	0x50
 3716 0257 9F       		.byte	0x9f
 3717 0258 82000000 		.4byte	.LVL50
 3718 025c 84000000 		.4byte	.LVL51
 3719 0260 0100     		.2byte	0x1
 3720 0262 50       		.byte	0x50
 3721 0263 84000000 		.4byte	.LVL51
 3722 0267 86000000 		.4byte	.LVL52
 3723 026b 0400     		.2byte	0x4
 3724 026d F3       		.byte	0xf3
 3725 026e 01       		.uleb128 0x1
 3726 026f 50       		.byte	0x50
 3727 0270 9F       		.byte	0x9f
 3728 0271 86000000 		.4byte	.LVL52
 3729 0275 88000000 		.4byte	.LVL53
 3730 0279 0100     		.2byte	0x1
 3731 027b 50       		.byte	0x50
 3732 027c 88000000 		.4byte	.LVL53
 3733 0280 8A000000 		.4byte	.LVL54
 3734 0284 0400     		.2byte	0x4
 3735 0286 F3       		.byte	0xf3
 3736 0287 01       		.uleb128 0x1
 3737 0288 50       		.byte	0x50
 3738 0289 9F       		.byte	0x9f
 3739 028a 8A000000 		.4byte	.LVL54
 3740 028e 8C000000 		.4byte	.LVL55
 3741 0292 0100     		.2byte	0x1
ARM GAS  C:\Users\davis\AppData\Local\Temp\cco880hz.s 			page 97


 3742 0294 50       		.byte	0x50
 3743 0295 8C000000 		.4byte	.LVL55
 3744 0299 A0000000 		.4byte	.LFE10
 3745 029d 0400     		.2byte	0x4
 3746 029f F3       		.byte	0xf3
 3747 02a0 01       		.uleb128 0x1
 3748 02a1 50       		.byte	0x50
 3749 02a2 9F       		.byte	0x9f
 3750 02a3 00000000 		.4byte	0
 3751 02a7 00000000 		.4byte	0
 3752              	.LLST11:
 3753 02ab 00000000 		.4byte	.LVL32
 3754 02af 54000000 		.4byte	.LVL41
 3755 02b3 0100     		.2byte	0x1
 3756 02b5 51       		.byte	0x51
 3757 02b6 54000000 		.4byte	.LVL41
 3758 02ba 76000000 		.4byte	.LVL44
 3759 02be 0400     		.2byte	0x4
 3760 02c0 F3       		.byte	0xf3
 3761 02c1 01       		.uleb128 0x1
 3762 02c2 51       		.byte	0x51
 3763 02c3 9F       		.byte	0x9f
 3764 02c4 76000000 		.4byte	.LVL44
 3765 02c8 92000000 		.4byte	.LVL57
 3766 02cc 0100     		.2byte	0x1
 3767 02ce 51       		.byte	0x51
 3768 02cf 92000000 		.4byte	.LVL57
 3769 02d3 A0000000 		.4byte	.LFE10
 3770 02d7 0400     		.2byte	0x4
 3771 02d9 F3       		.byte	0xf3
 3772 02da 01       		.uleb128 0x1
 3773 02db 51       		.byte	0x51
 3774 02dc 9F       		.byte	0x9f
 3775 02dd 00000000 		.4byte	0
 3776 02e1 00000000 		.4byte	0
 3777              	.LLST12:
 3778 02e5 00000000 		.4byte	.LVL32
 3779 02e9 58000000 		.4byte	.LVL42
 3780 02ed 0100     		.2byte	0x1
 3781 02ef 52       		.byte	0x52
 3782 02f0 58000000 		.4byte	.LVL42
 3783 02f4 76000000 		.4byte	.LVL44
 3784 02f8 0400     		.2byte	0x4
 3785 02fa F3       		.byte	0xf3
 3786 02fb 01       		.uleb128 0x1
 3787 02fc 52       		.byte	0x52
 3788 02fd 9F       		.byte	0x9f
 3789 02fe 76000000 		.4byte	.LVL44
 3790 0302 92000000 		.4byte	.LVL57
 3791 0306 0100     		.2byte	0x1
 3792 0308 52       		.byte	0x52
 3793 0309 92000000 		.4byte	.LVL57
 3794 030d A0000000 		.4byte	.LFE10
 3795 0311 0400     		.2byte	0x4
 3796 0313 F3       		.byte	0xf3
 3797 0314 01       		.uleb128 0x1
 3798 0315 52       		.byte	0x52
ARM GAS  C:\Users\davis\AppData\Local\Temp\cco880hz.s 			page 98


 3799 0316 9F       		.byte	0x9f
 3800 0317 00000000 		.4byte	0
 3801 031b 00000000 		.4byte	0
 3802              	.LLST13:
 3803 031f 00000000 		.4byte	.LVL32
 3804 0323 52000000 		.4byte	.LVL40
 3805 0327 0100     		.2byte	0x1
 3806 0329 53       		.byte	0x53
 3807 032a 52000000 		.4byte	.LVL40
 3808 032e 76000000 		.4byte	.LVL44
 3809 0332 0400     		.2byte	0x4
 3810 0334 F3       		.byte	0xf3
 3811 0335 01       		.uleb128 0x1
 3812 0336 53       		.byte	0x53
 3813 0337 9F       		.byte	0x9f
 3814 0338 76000000 		.4byte	.LVL44
 3815 033c 92000000 		.4byte	.LVL57
 3816 0340 0100     		.2byte	0x1
 3817 0342 53       		.byte	0x53
 3818 0343 92000000 		.4byte	.LVL57
 3819 0347 A0000000 		.4byte	.LFE10
 3820 034b 0400     		.2byte	0x4
 3821 034d F3       		.byte	0xf3
 3822 034e 01       		.uleb128 0x1
 3823 034f 53       		.byte	0x53
 3824 0350 9F       		.byte	0x9f
 3825 0351 00000000 		.4byte	0
 3826 0355 00000000 		.4byte	0
 3827              	.LLST14:
 3828 0359 02000000 		.4byte	.LVL33
 3829 035d 26000000 		.4byte	.LVL34
 3830 0361 0200     		.2byte	0x2
 3831 0363 32       		.byte	0x32
 3832 0364 9F       		.byte	0x9f
 3833 0365 26000000 		.4byte	.LVL34
 3834 0369 76000000 		.4byte	.LVL44
 3835 036d 0200     		.2byte	0x2
 3836 036f 31       		.byte	0x31
 3837 0370 9F       		.byte	0x9f
 3838 0371 76000000 		.4byte	.LVL44
 3839 0375 8E000000 		.4byte	.LVL56
 3840 0379 0200     		.2byte	0x2
 3841 037b 32       		.byte	0x32
 3842 037c 9F       		.byte	0x9f
 3843 037d 8E000000 		.4byte	.LVL56
 3844 0381 94000000 		.4byte	.LVL58
 3845 0385 0200     		.2byte	0x2
 3846 0387 31       		.byte	0x31
 3847 0388 9F       		.byte	0x9f
 3848 0389 94000000 		.4byte	.LVL58
 3849 038d A0000000 		.4byte	.LFE10
 3850 0391 0100     		.2byte	0x1
 3851 0393 50       		.byte	0x50
 3852 0394 00000000 		.4byte	0
 3853 0398 00000000 		.4byte	0
 3854              	.LLST15:
 3855 039c 2E000000 		.4byte	.LVL35
ARM GAS  C:\Users\davis\AppData\Local\Temp\cco880hz.s 			page 99


 3856 03a0 34000000 		.4byte	.LVL37
 3857 03a4 0100     		.2byte	0x1
 3858 03a6 54       		.byte	0x54
 3859 03a7 34000000 		.4byte	.LVL37
 3860 03ab 3C000000 		.4byte	.LVL38
 3861 03af 0100     		.2byte	0x1
 3862 03b1 50       		.byte	0x50
 3863 03b2 4C000000 		.4byte	.LVL39
 3864 03b6 52000000 		.4byte	.LVL40
 3865 03ba 0200     		.2byte	0x2
 3866 03bc 30       		.byte	0x30
 3867 03bd 9F       		.byte	0x9f
 3868 03be 52000000 		.4byte	.LVL40
 3869 03c2 5E000000 		.4byte	.LVL43
 3870 03c6 0100     		.2byte	0x1
 3871 03c8 53       		.byte	0x53
 3872 03c9 5E000000 		.4byte	.LVL43
 3873 03cd 76000000 		.4byte	.LVL44
 3874 03d1 0100     		.2byte	0x1
 3875 03d3 51       		.byte	0x51
 3876 03d4 92000000 		.4byte	.LVL57
 3877 03d8 94000000 		.4byte	.LVL58
 3878 03dc 0100     		.2byte	0x1
 3879 03de 51       		.byte	0x51
 3880 03df 00000000 		.4byte	0
 3881 03e3 00000000 		.4byte	0
 3882              	.LLST16:
 3883 03e7 00000000 		.4byte	.LVL59
 3884 03eb 16000000 		.4byte	.LVL60
 3885 03ef 0100     		.2byte	0x1
 3886 03f1 50       		.byte	0x50
 3887 03f2 16000000 		.4byte	.LVL60
 3888 03f6 18000000 		.4byte	.LVL61
 3889 03fa 0400     		.2byte	0x4
 3890 03fc F3       		.byte	0xf3
 3891 03fd 01       		.uleb128 0x1
 3892 03fe 50       		.byte	0x50
 3893 03ff 9F       		.byte	0x9f
 3894 0400 18000000 		.4byte	.LVL61
 3895 0404 2A000000 		.4byte	.LVL62
 3896 0408 0100     		.2byte	0x1
 3897 040a 50       		.byte	0x50
 3898 040b 2A000000 		.4byte	.LVL62
 3899 040f 2C000000 		.4byte	.LVL63
 3900 0413 0400     		.2byte	0x4
 3901 0415 F3       		.byte	0xf3
 3902 0416 01       		.uleb128 0x1
 3903 0417 50       		.byte	0x50
 3904 0418 9F       		.byte	0x9f
 3905 0419 2C000000 		.4byte	.LVL63
 3906 041d 2E000000 		.4byte	.LVL64
 3907 0421 0100     		.2byte	0x1
 3908 0423 50       		.byte	0x50
 3909 0424 2E000000 		.4byte	.LVL64
 3910 0428 30000000 		.4byte	.LVL65
 3911 042c 0400     		.2byte	0x4
 3912 042e F3       		.byte	0xf3
ARM GAS  C:\Users\davis\AppData\Local\Temp\cco880hz.s 			page 100


 3913 042f 01       		.uleb128 0x1
 3914 0430 50       		.byte	0x50
 3915 0431 9F       		.byte	0x9f
 3916 0432 30000000 		.4byte	.LVL65
 3917 0436 32000000 		.4byte	.LVL66
 3918 043a 0100     		.2byte	0x1
 3919 043c 50       		.byte	0x50
 3920 043d 32000000 		.4byte	.LVL66
 3921 0441 38000000 		.4byte	.LFE11
 3922 0445 0400     		.2byte	0x4
 3923 0447 F3       		.byte	0xf3
 3924 0448 01       		.uleb128 0x1
 3925 0449 50       		.byte	0x50
 3926 044a 9F       		.byte	0x9f
 3927 044b 00000000 		.4byte	0
 3928 044f 00000000 		.4byte	0
 3929              	.LLST17:
 3930 0453 00000000 		.4byte	.LVL59
 3931 0457 32000000 		.4byte	.LVL66
 3932 045b 0200     		.2byte	0x2
 3933 045d 31       		.byte	0x31
 3934 045e 9F       		.byte	0x9f
 3935 045f 32000000 		.4byte	.LVL66
 3936 0463 38000000 		.4byte	.LFE11
 3937 0467 0100     		.2byte	0x1
 3938 0469 50       		.byte	0x50
 3939 046a 00000000 		.4byte	0
 3940 046e 00000000 		.4byte	0
 3941              	.LLST18:
 3942 0472 00000000 		.4byte	.LVL67
 3943 0476 16000000 		.4byte	.LVL68
 3944 047a 0100     		.2byte	0x1
 3945 047c 50       		.byte	0x50
 3946 047d 16000000 		.4byte	.LVL68
 3947 0481 18000000 		.4byte	.LVL69
 3948 0485 0400     		.2byte	0x4
 3949 0487 F3       		.byte	0xf3
 3950 0488 01       		.uleb128 0x1
 3951 0489 50       		.byte	0x50
 3952 048a 9F       		.byte	0x9f
 3953 048b 18000000 		.4byte	.LVL69
 3954 048f 2A000000 		.4byte	.LVL70
 3955 0493 0100     		.2byte	0x1
 3956 0495 50       		.byte	0x50
 3957 0496 2A000000 		.4byte	.LVL70
 3958 049a 2C000000 		.4byte	.LVL71
 3959 049e 0400     		.2byte	0x4
 3960 04a0 F3       		.byte	0xf3
 3961 04a1 01       		.uleb128 0x1
 3962 04a2 50       		.byte	0x50
 3963 04a3 9F       		.byte	0x9f
 3964 04a4 2C000000 		.4byte	.LVL71
 3965 04a8 2E000000 		.4byte	.LVL72
 3966 04ac 0100     		.2byte	0x1
 3967 04ae 50       		.byte	0x50
 3968 04af 2E000000 		.4byte	.LVL72
 3969 04b3 30000000 		.4byte	.LVL73
ARM GAS  C:\Users\davis\AppData\Local\Temp\cco880hz.s 			page 101


 3970 04b7 0400     		.2byte	0x4
 3971 04b9 F3       		.byte	0xf3
 3972 04ba 01       		.uleb128 0x1
 3973 04bb 50       		.byte	0x50
 3974 04bc 9F       		.byte	0x9f
 3975 04bd 30000000 		.4byte	.LVL73
 3976 04c1 32000000 		.4byte	.LVL74
 3977 04c5 0100     		.2byte	0x1
 3978 04c7 50       		.byte	0x50
 3979 04c8 32000000 		.4byte	.LVL74
 3980 04cc 38000000 		.4byte	.LFE12
 3981 04d0 0400     		.2byte	0x4
 3982 04d2 F3       		.byte	0xf3
 3983 04d3 01       		.uleb128 0x1
 3984 04d4 50       		.byte	0x50
 3985 04d5 9F       		.byte	0x9f
 3986 04d6 00000000 		.4byte	0
 3987 04da 00000000 		.4byte	0
 3988              	.LLST19:
 3989 04de 00000000 		.4byte	.LVL67
 3990 04e2 32000000 		.4byte	.LVL74
 3991 04e6 0200     		.2byte	0x2
 3992 04e8 31       		.byte	0x31
 3993 04e9 9F       		.byte	0x9f
 3994 04ea 32000000 		.4byte	.LVL74
 3995 04ee 38000000 		.4byte	.LFE12
 3996 04f2 0100     		.2byte	0x1
 3997 04f4 50       		.byte	0x50
 3998 04f5 00000000 		.4byte	0
 3999 04f9 00000000 		.4byte	0
 4000              	.LLST20:
 4001 04fd 00000000 		.4byte	.LVL75
 4002 0501 1E000000 		.4byte	.LVL79
 4003 0505 0100     		.2byte	0x1
 4004 0507 50       		.byte	0x50
 4005 0508 1E000000 		.4byte	.LVL79
 4006 050c 38000000 		.4byte	.LVL83
 4007 0510 0100     		.2byte	0x1
 4008 0512 55       		.byte	0x55
 4009 0513 38000000 		.4byte	.LVL83
 4010 0517 3A000000 		.4byte	.LVL84
 4011 051b 0100     		.2byte	0x1
 4012 051d 50       		.byte	0x50
 4013 051e 3A000000 		.4byte	.LVL84
 4014 0522 50000000 		.4byte	.LVL87
 4015 0526 0100     		.2byte	0x1
 4016 0528 55       		.byte	0x55
 4017 0529 50000000 		.4byte	.LVL87
 4018 052d 52000000 		.4byte	.LVL88
 4019 0531 0100     		.2byte	0x1
 4020 0533 50       		.byte	0x50
 4021 0534 52000000 		.4byte	.LVL88
 4022 0538 5A000000 		.4byte	.LVL92
 4023 053c 0100     		.2byte	0x1
 4024 053e 55       		.byte	0x55
 4025 053f 5A000000 		.4byte	.LVL92
 4026 0543 64000000 		.4byte	.LFE14
ARM GAS  C:\Users\davis\AppData\Local\Temp\cco880hz.s 			page 102


 4027 0547 0400     		.2byte	0x4
 4028 0549 F3       		.byte	0xf3
 4029 054a 01       		.uleb128 0x1
 4030 054b 50       		.byte	0x50
 4031 054c 9F       		.byte	0x9f
 4032 054d 00000000 		.4byte	0
 4033 0551 00000000 		.4byte	0
 4034              	.LLST21:
 4035 0555 00000000 		.4byte	.LVL75
 4036 0559 1C000000 		.4byte	.LVL78
 4037 055d 0100     		.2byte	0x1
 4038 055f 51       		.byte	0x51
 4039 0560 1C000000 		.4byte	.LVL78
 4040 0564 2E000000 		.4byte	.LVL82
 4041 0568 0100     		.2byte	0x1
 4042 056a 54       		.byte	0x54
 4043 056b 2E000000 		.4byte	.LVL82
 4044 056f 38000000 		.4byte	.LVL83
 4045 0573 0A00     		.2byte	0xa
 4046 0575 F3       		.byte	0xf3
 4047 0576 01       		.uleb128 0x1
 4048 0577 51       		.byte	0x51
 4049 0578 0C       		.byte	0xc
 4050 0579 80008000 		.4byte	0x800080
 4051 057d 21       		.byte	0x21
 4052 057e 9F       		.byte	0x9f
 4053 057f 38000000 		.4byte	.LVL83
 4054 0583 3D000000 		.4byte	.LVL85-1
 4055 0587 0100     		.2byte	0x1
 4056 0589 51       		.byte	0x51
 4057 058a 3D000000 		.4byte	.LVL85-1
 4058 058e 50000000 		.4byte	.LVL87
 4059 0592 0100     		.2byte	0x1
 4060 0594 54       		.byte	0x54
 4061 0595 50000000 		.4byte	.LVL87
 4062 0599 54000000 		.4byte	.LVL89
 4063 059d 0100     		.2byte	0x1
 4064 059f 51       		.byte	0x51
 4065 05a0 54000000 		.4byte	.LVL89
 4066 05a4 58000000 		.4byte	.LVL90
 4067 05a8 0A00     		.2byte	0xa
 4068 05aa F3       		.byte	0xf3
 4069 05ab 01       		.uleb128 0x1
 4070 05ac 51       		.byte	0x51
 4071 05ad 0C       		.byte	0xc
 4072 05ae 80008000 		.4byte	0x800080
 4073 05b2 21       		.byte	0x21
 4074 05b3 9F       		.byte	0x9f
 4075 05b4 58000000 		.4byte	.LVL90
 4076 05b8 5A000000 		.4byte	.LVL91
 4077 05bc 0100     		.2byte	0x1
 4078 05be 54       		.byte	0x54
 4079 05bf 00000000 		.4byte	0
 4080 05c3 00000000 		.4byte	0
 4081              	.LLST22:
 4082 05c7 06000000 		.4byte	.LVL76
 4083 05cb 14000000 		.4byte	.LVL77
ARM GAS  C:\Users\davis\AppData\Local\Temp\cco880hz.s 			page 103


 4084 05cf 0200     		.2byte	0x2
 4085 05d1 32       		.byte	0x32
 4086 05d2 9F       		.byte	0x9f
 4087 05d3 14000000 		.4byte	.LVL77
 4088 05d7 50000000 		.4byte	.LVL87
 4089 05db 0200     		.2byte	0x2
 4090 05dd 31       		.byte	0x31
 4091 05de 9F       		.byte	0x9f
 4092 05df 50000000 		.4byte	.LVL87
 4093 05e3 54000000 		.4byte	.LVL89
 4094 05e7 0200     		.2byte	0x2
 4095 05e9 32       		.byte	0x32
 4096 05ea 9F       		.byte	0x9f
 4097 05eb 54000000 		.4byte	.LVL89
 4098 05ef 5A000000 		.4byte	.LVL91
 4099 05f3 0200     		.2byte	0x2
 4100 05f5 31       		.byte	0x31
 4101 05f6 9F       		.byte	0x9f
 4102 05f7 5A000000 		.4byte	.LVL91
 4103 05fb 64000000 		.4byte	.LFE14
 4104 05ff 0100     		.2byte	0x1
 4105 0601 50       		.byte	0x50
 4106 0602 00000000 		.4byte	0
 4107 0606 00000000 		.4byte	0
 4108              	.LLST23:
 4109 060a 00000000 		.4byte	.LVL93
 4110 060e 10000000 		.4byte	.LVL94
 4111 0612 0100     		.2byte	0x1
 4112 0614 50       		.byte	0x50
 4113 0615 10000000 		.4byte	.LVL94
 4114 0619 12000000 		.4byte	.LVL95
 4115 061d 0400     		.2byte	0x4
 4116 061f F3       		.byte	0xf3
 4117 0620 01       		.uleb128 0x1
 4118 0621 50       		.byte	0x50
 4119 0622 9F       		.byte	0x9f
 4120 0623 12000000 		.4byte	.LVL95
 4121 0627 14000000 		.4byte	.LVL96
 4122 062b 0100     		.2byte	0x1
 4123 062d 50       		.byte	0x50
 4124 062e 14000000 		.4byte	.LVL96
 4125 0632 1C000000 		.4byte	.LFE15
 4126 0636 0400     		.2byte	0x4
 4127 0638 F3       		.byte	0xf3
 4128 0639 01       		.uleb128 0x1
 4129 063a 50       		.byte	0x50
 4130 063b 9F       		.byte	0x9f
 4131 063c 00000000 		.4byte	0
 4132 0640 00000000 		.4byte	0
 4133              	.LLST24:
 4134 0644 00000000 		.4byte	.LVL93
 4135 0648 14000000 		.4byte	.LVL96
 4136 064c 0200     		.2byte	0x2
 4137 064e 31       		.byte	0x31
 4138 064f 9F       		.byte	0x9f
 4139 0650 14000000 		.4byte	.LVL96
 4140 0654 1C000000 		.4byte	.LFE15
ARM GAS  C:\Users\davis\AppData\Local\Temp\cco880hz.s 			page 104


 4141 0658 0100     		.2byte	0x1
 4142 065a 50       		.byte	0x50
 4143 065b 00000000 		.4byte	0
 4144 065f 00000000 		.4byte	0
 4145              	.LLST25:
 4146 0663 00000000 		.4byte	.LVL97
 4147 0667 72000000 		.4byte	.LVL99
 4148 066b 0100     		.2byte	0x1
 4149 066d 50       		.byte	0x50
 4150 066e 72000000 		.4byte	.LVL99
 4151 0672 74000000 		.4byte	.LVL100
 4152 0676 0400     		.2byte	0x4
 4153 0678 F3       		.byte	0xf3
 4154 0679 01       		.uleb128 0x1
 4155 067a 50       		.byte	0x50
 4156 067b 9F       		.byte	0x9f
 4157 067c 74000000 		.4byte	.LVL100
 4158 0680 76000000 		.4byte	.LVL101
 4159 0684 0100     		.2byte	0x1
 4160 0686 50       		.byte	0x50
 4161 0687 76000000 		.4byte	.LVL101
 4162 068b 78000000 		.4byte	.LVL102
 4163 068f 0400     		.2byte	0x4
 4164 0691 F3       		.byte	0xf3
 4165 0692 01       		.uleb128 0x1
 4166 0693 50       		.byte	0x50
 4167 0694 9F       		.byte	0x9f
 4168 0695 78000000 		.4byte	.LVL102
 4169 0699 7A000000 		.4byte	.LVL103
 4170 069d 0100     		.2byte	0x1
 4171 069f 50       		.byte	0x50
 4172 06a0 7A000000 		.4byte	.LVL103
 4173 06a4 7C000000 		.4byte	.LVL104
 4174 06a8 0400     		.2byte	0x4
 4175 06aa F3       		.byte	0xf3
 4176 06ab 01       		.uleb128 0x1
 4177 06ac 50       		.byte	0x50
 4178 06ad 9F       		.byte	0x9f
 4179 06ae 7C000000 		.4byte	.LVL104
 4180 06b2 7E000000 		.4byte	.LVL105
 4181 06b6 0100     		.2byte	0x1
 4182 06b8 50       		.byte	0x50
 4183 06b9 7E000000 		.4byte	.LVL105
 4184 06bd 80000000 		.4byte	.LVL106
 4185 06c1 0400     		.2byte	0x4
 4186 06c3 F3       		.byte	0xf3
 4187 06c4 01       		.uleb128 0x1
 4188 06c5 50       		.byte	0x50
 4189 06c6 9F       		.byte	0x9f
 4190 06c7 80000000 		.4byte	.LVL106
 4191 06cb 82000000 		.4byte	.LVL107
 4192 06cf 0100     		.2byte	0x1
 4193 06d1 50       		.byte	0x50
 4194 06d2 82000000 		.4byte	.LVL107
 4195 06d6 84000000 		.4byte	.LVL108
 4196 06da 0400     		.2byte	0x4
 4197 06dc F3       		.byte	0xf3
ARM GAS  C:\Users\davis\AppData\Local\Temp\cco880hz.s 			page 105


 4198 06dd 01       		.uleb128 0x1
 4199 06de 50       		.byte	0x50
 4200 06df 9F       		.byte	0x9f
 4201 06e0 84000000 		.4byte	.LVL108
 4202 06e4 86000000 		.4byte	.LVL109
 4203 06e8 0100     		.2byte	0x1
 4204 06ea 50       		.byte	0x50
 4205 06eb 86000000 		.4byte	.LVL109
 4206 06ef 98000000 		.4byte	.LFE21
 4207 06f3 0400     		.2byte	0x4
 4208 06f5 F3       		.byte	0xf3
 4209 06f6 01       		.uleb128 0x1
 4210 06f7 50       		.byte	0x50
 4211 06f8 9F       		.byte	0x9f
 4212 06f9 00000000 		.4byte	0
 4213 06fd 00000000 		.4byte	0
 4214              	.LLST26:
 4215 0701 02000000 		.4byte	.LVL98
 4216 0705 86000000 		.4byte	.LVL109
 4217 0709 0200     		.2byte	0x2
 4218 070b 31       		.byte	0x31
 4219 070c 9F       		.byte	0x9f
 4220 070d 86000000 		.4byte	.LVL109
 4221 0711 98000000 		.4byte	.LFE21
 4222 0715 0100     		.2byte	0x1
 4223 0717 50       		.byte	0x50
 4224 0718 00000000 		.4byte	0
 4225 071c 00000000 		.4byte	0
 4226              	.LLST27:
 4227 0720 00000000 		.4byte	.LVL110
 4228 0724 3E000000 		.4byte	.LVL112
 4229 0728 0100     		.2byte	0x1
 4230 072a 50       		.byte	0x50
 4231 072b 3E000000 		.4byte	.LVL112
 4232 072f 40000000 		.4byte	.LVL113
 4233 0733 0400     		.2byte	0x4
 4234 0735 F3       		.byte	0xf3
 4235 0736 01       		.uleb128 0x1
 4236 0737 50       		.byte	0x50
 4237 0738 9F       		.byte	0x9f
 4238 0739 40000000 		.4byte	.LVL113
 4239 073d 42000000 		.4byte	.LVL114
 4240 0741 0100     		.2byte	0x1
 4241 0743 50       		.byte	0x50
 4242 0744 42000000 		.4byte	.LVL114
 4243 0748 44000000 		.4byte	.LVL115
 4244 074c 0400     		.2byte	0x4
 4245 074e F3       		.byte	0xf3
 4246 074f 01       		.uleb128 0x1
 4247 0750 50       		.byte	0x50
 4248 0751 9F       		.byte	0x9f
 4249 0752 44000000 		.4byte	.LVL115
 4250 0756 46000000 		.4byte	.LVL116
 4251 075a 0100     		.2byte	0x1
 4252 075c 50       		.byte	0x50
 4253 075d 46000000 		.4byte	.LVL116
 4254 0761 58000000 		.4byte	.LFE22
ARM GAS  C:\Users\davis\AppData\Local\Temp\cco880hz.s 			page 106


 4255 0765 0400     		.2byte	0x4
 4256 0767 F3       		.byte	0xf3
 4257 0768 01       		.uleb128 0x1
 4258 0769 50       		.byte	0x50
 4259 076a 9F       		.byte	0x9f
 4260 076b 00000000 		.4byte	0
 4261 076f 00000000 		.4byte	0
 4262              	.LLST28:
 4263 0773 02000000 		.4byte	.LVL111
 4264 0777 46000000 		.4byte	.LVL116
 4265 077b 0200     		.2byte	0x2
 4266 077d 31       		.byte	0x31
 4267 077e 9F       		.byte	0x9f
 4268 077f 46000000 		.4byte	.LVL116
 4269 0783 58000000 		.4byte	.LFE22
 4270 0787 0100     		.2byte	0x1
 4271 0789 50       		.byte	0x50
 4272 078a 00000000 		.4byte	0
 4273 078e 00000000 		.4byte	0
 4274              	.LLST29:
 4275 0792 02000000 		.4byte	.LVL117
 4276 0796 26000000 		.4byte	.LVL122
 4277 079a 0200     		.2byte	0x2
 4278 079c 30       		.byte	0x30
 4279 079d 9F       		.byte	0x9f
 4280 079e 26000000 		.4byte	.LVL122
 4281 07a2 4E000000 		.4byte	.LVL129
 4282 07a6 0100     		.2byte	0x1
 4283 07a8 55       		.byte	0x55
 4284 07a9 00000000 		.4byte	0
 4285 07ad 00000000 		.4byte	0
 4286              	.LLST30:
 4287 07b1 02000000 		.4byte	.LVL117
 4288 07b5 06000000 		.4byte	.LVL118
 4289 07b9 0200     		.2byte	0x2
 4290 07bb 30       		.byte	0x30
 4291 07bc 9F       		.byte	0x9f
 4292 07bd 06000000 		.4byte	.LVL118
 4293 07c1 1A000000 		.4byte	.LVL120
 4294 07c5 0100     		.2byte	0x1
 4295 07c7 54       		.byte	0x54
 4296 07c8 1C000000 		.4byte	.LVL121
 4297 07cc 3E000000 		.4byte	.LVL124
 4298 07d0 0100     		.2byte	0x1
 4299 07d2 54       		.byte	0x54
 4300 07d3 40000000 		.4byte	.LVL125
 4301 07d7 4E000000 		.4byte	.LVL128
 4302 07db 0100     		.2byte	0x1
 4303 07dd 54       		.byte	0x54
 4304 07de 00000000 		.4byte	0
 4305 07e2 00000000 		.4byte	0
 4306              	.LLST31:
 4307 07e6 00000000 		.4byte	.LVL130
 4308 07ea 16000000 		.4byte	.LVL131
 4309 07ee 0100     		.2byte	0x1
 4310 07f0 50       		.byte	0x50
 4311 07f1 16000000 		.4byte	.LVL131
ARM GAS  C:\Users\davis\AppData\Local\Temp\cco880hz.s 			page 107


 4312 07f5 18000000 		.4byte	.LVL132
 4313 07f9 0400     		.2byte	0x4
 4314 07fb F3       		.byte	0xf3
 4315 07fc 01       		.uleb128 0x1
 4316 07fd 50       		.byte	0x50
 4317 07fe 9F       		.byte	0x9f
 4318 07ff 18000000 		.4byte	.LVL132
 4319 0803 2C000000 		.4byte	.LVL133
 4320 0807 0100     		.2byte	0x1
 4321 0809 50       		.byte	0x50
 4322 080a 2C000000 		.4byte	.LVL133
 4323 080e 2E000000 		.4byte	.LVL134
 4324 0812 0400     		.2byte	0x4
 4325 0814 F3       		.byte	0xf3
 4326 0815 01       		.uleb128 0x1
 4327 0816 50       		.byte	0x50
 4328 0817 9F       		.byte	0x9f
 4329 0818 2E000000 		.4byte	.LVL134
 4330 081c 30000000 		.4byte	.LVL135
 4331 0820 0100     		.2byte	0x1
 4332 0822 50       		.byte	0x50
 4333 0823 30000000 		.4byte	.LVL135
 4334 0827 32000000 		.4byte	.LVL136
 4335 082b 0400     		.2byte	0x4
 4336 082d F3       		.byte	0xf3
 4337 082e 01       		.uleb128 0x1
 4338 082f 50       		.byte	0x50
 4339 0830 9F       		.byte	0x9f
 4340 0831 32000000 		.4byte	.LVL136
 4341 0835 34000000 		.4byte	.LVL137
 4342 0839 0100     		.2byte	0x1
 4343 083b 50       		.byte	0x50
 4344 083c 34000000 		.4byte	.LVL137
 4345 0840 40000000 		.4byte	.LFE23
 4346 0844 0400     		.2byte	0x4
 4347 0846 F3       		.byte	0xf3
 4348 0847 01       		.uleb128 0x1
 4349 0848 50       		.byte	0x50
 4350 0849 9F       		.byte	0x9f
 4351 084a 00000000 		.4byte	0
 4352 084e 00000000 		.4byte	0
 4353              	.LLST32:
 4354 0852 00000000 		.4byte	.LVL130
 4355 0856 34000000 		.4byte	.LVL137
 4356 085a 0200     		.2byte	0x2
 4357 085c 31       		.byte	0x31
 4358 085d 9F       		.byte	0x9f
 4359 085e 34000000 		.4byte	.LVL137
 4360 0862 40000000 		.4byte	.LFE23
 4361 0866 0100     		.2byte	0x1
 4362 0868 50       		.byte	0x50
 4363 0869 00000000 		.4byte	0
 4364 086d 00000000 		.4byte	0
 4365              	.LLST33:
 4366 0871 02000000 		.4byte	.LVL138
 4367 0875 1A000000 		.4byte	.LVL139
 4368 0879 0400     		.2byte	0x4
ARM GAS  C:\Users\davis\AppData\Local\Temp\cco880hz.s 			page 108


 4369 087b 0A       		.byte	0xa
 4370 087c 00F0     		.2byte	0xf000
 4371 087e 9F       		.byte	0x9f
 4372 087f 1A000000 		.4byte	.LVL139
 4373 0883 31000000 		.4byte	.LVL141-1
 4374 0887 0100     		.2byte	0x1
 4375 0889 53       		.byte	0x53
 4376 088a C0000000 		.4byte	.LVL153
 4377 088e C4000000 		.4byte	.LVL154
 4378 0892 0100     		.2byte	0x1
 4379 0894 53       		.byte	0x53
 4380 0895 00000000 		.4byte	0
 4381 0899 00000000 		.4byte	0
 4382              	.LLST34:
 4383 089d 02000000 		.4byte	.LVL138
 4384 08a1 D2000000 		.4byte	.LVL156
 4385 08a5 0200     		.2byte	0x2
 4386 08a7 31       		.byte	0x31
 4387 08a8 9F       		.byte	0x9f
 4388 08a9 D2000000 		.4byte	.LVL156
 4389 08ad E4000000 		.4byte	.LFE2
 4390 08b1 0100     		.2byte	0x1
 4391 08b3 50       		.byte	0x50
 4392 08b4 00000000 		.4byte	0
 4393 08b8 00000000 		.4byte	0
 4394              	.LLST35:
 4395 08bc 02000000 		.4byte	.LVL138
 4396 08c0 96000000 		.4byte	.LVL150
 4397 08c4 0200     		.2byte	0x2
 4398 08c6 31       		.byte	0x31
 4399 08c7 9F       		.byte	0x9f
 4400 08c8 96000000 		.4byte	.LVL150
 4401 08cc 9D000000 		.4byte	.LVL151-1
 4402 08d0 0100     		.2byte	0x1
 4403 08d2 53       		.byte	0x53
 4404 08d3 C0000000 		.4byte	.LVL153
 4405 08d7 C4000000 		.4byte	.LVL154
 4406 08db 0200     		.2byte	0x2
 4407 08dd 31       		.byte	0x31
 4408 08de 9F       		.byte	0x9f
 4409 08df C4000000 		.4byte	.LVL154
 4410 08e3 C8000000 		.4byte	.LVL155
 4411 08e7 0100     		.2byte	0x1
 4412 08e9 53       		.byte	0x53
 4413 08ea 00000000 		.4byte	0
 4414 08ee 00000000 		.4byte	0
 4415              	.LLST36:
 4416 08f2 02000000 		.4byte	.LVL157
 4417 08f6 0E000000 		.4byte	.LVL158
 4418 08fa 0200     		.2byte	0x2
 4419 08fc 30       		.byte	0x30
 4420 08fd 9F       		.byte	0x9f
 4421 08fe 0E000000 		.4byte	.LVL158
 4422 0902 10000000 		.4byte	.LVL159
 4423 0906 0100     		.2byte	0x1
 4424 0908 50       		.byte	0x50
 4425 0909 10000000 		.4byte	.LVL159
ARM GAS  C:\Users\davis\AppData\Local\Temp\cco880hz.s 			page 109


 4426 090d 12000000 		.4byte	.LVL160
 4427 0911 0200     		.2byte	0x2
 4428 0913 30       		.byte	0x30
 4429 0914 9F       		.byte	0x9f
 4430 0915 12000000 		.4byte	.LVL160
 4431 0919 1F000000 		.4byte	.LVL161-1
 4432 091d 0100     		.2byte	0x1
 4433 091f 50       		.byte	0x50
 4434 0920 20000000 		.4byte	.LVL161
 4435 0924 28000000 		.4byte	.LFE4
 4436 0928 0100     		.2byte	0x1
 4437 092a 50       		.byte	0x50
 4438 092b 00000000 		.4byte	0
 4439 092f 00000000 		.4byte	0
 4440              	.LLST37:
 4441 0933 00000000 		.4byte	.LVL162
 4442 0937 1D000000 		.4byte	.LVL165-1
 4443 093b 0100     		.2byte	0x1
 4444 093d 50       		.byte	0x50
 4445 093e 1D000000 		.4byte	.LVL165-1
 4446 0942 60000000 		.4byte	.LFE13
 4447 0946 0400     		.2byte	0x4
 4448 0948 F3       		.byte	0xf3
 4449 0949 01       		.uleb128 0x1
 4450 094a 50       		.byte	0x50
 4451 094b 9F       		.byte	0x9f
 4452 094c 00000000 		.4byte	0
 4453 0950 00000000 		.4byte	0
 4454              	.LLST38:
 4455 0954 04000000 		.4byte	.LVL163
 4456 0958 30000000 		.4byte	.LVL166
 4457 095c 0200     		.2byte	0x2
 4458 095e 31       		.byte	0x31
 4459 095f 9F       		.byte	0x9f
 4460 0960 30000000 		.4byte	.LVL166
 4461 0964 4B000000 		.4byte	.LVL167-1
 4462 0968 0100     		.2byte	0x1
 4463 096a 50       		.byte	0x50
 4464 096b 4C000000 		.4byte	.LVL167
 4465 096f 4E000000 		.4byte	.LVL168
 4466 0973 0100     		.2byte	0x1
 4467 0975 50       		.byte	0x50
 4468 0976 4E000000 		.4byte	.LVL168
 4469 097a 50000000 		.4byte	.LVL169
 4470 097e 0200     		.2byte	0x2
 4471 0980 31       		.byte	0x31
 4472 0981 9F       		.byte	0x9f
 4473 0982 50000000 		.4byte	.LVL169
 4474 0986 60000000 		.4byte	.LFE13
 4475 098a 0100     		.2byte	0x1
 4476 098c 50       		.byte	0x50
 4477 098d 00000000 		.4byte	0
 4478 0991 00000000 		.4byte	0
 4479              	.LLST39:
 4480 0995 04000000 		.4byte	.LVL163
 4481 0999 1A000000 		.4byte	.LVL164
 4482 099d 0200     		.2byte	0x2
ARM GAS  C:\Users\davis\AppData\Local\Temp\cco880hz.s 			page 110


 4483 099f 30       		.byte	0x30
 4484 09a0 9F       		.byte	0x9f
 4485 09a1 1A000000 		.4byte	.LVL164
 4486 09a5 50000000 		.4byte	.LVL170
 4487 09a9 0100     		.2byte	0x1
 4488 09ab 55       		.byte	0x55
 4489 09ac 00000000 		.4byte	0
 4490 09b0 00000000 		.4byte	0
 4491              	.LLST40:
 4492 09b4 00000000 		.4byte	.LVL171
 4493 09b8 16000000 		.4byte	.LVL172
 4494 09bc 0100     		.2byte	0x1
 4495 09be 50       		.byte	0x50
 4496 09bf 16000000 		.4byte	.LVL172
 4497 09c3 18000000 		.4byte	.LVL173
 4498 09c7 0400     		.2byte	0x4
 4499 09c9 F3       		.byte	0xf3
 4500 09ca 01       		.uleb128 0x1
 4501 09cb 50       		.byte	0x50
 4502 09cc 9F       		.byte	0x9f
 4503 09cd 18000000 		.4byte	.LVL173
 4504 09d1 2C000000 		.4byte	.LVL174
 4505 09d5 0100     		.2byte	0x1
 4506 09d7 50       		.byte	0x50
 4507 09d8 2C000000 		.4byte	.LVL174
 4508 09dc 2E000000 		.4byte	.LVL175
 4509 09e0 0400     		.2byte	0x4
 4510 09e2 F3       		.byte	0xf3
 4511 09e3 01       		.uleb128 0x1
 4512 09e4 50       		.byte	0x50
 4513 09e5 9F       		.byte	0x9f
 4514 09e6 2E000000 		.4byte	.LVL175
 4515 09ea 30000000 		.4byte	.LVL176
 4516 09ee 0100     		.2byte	0x1
 4517 09f0 50       		.byte	0x50
 4518 09f1 30000000 		.4byte	.LVL176
 4519 09f5 32000000 		.4byte	.LVL177
 4520 09f9 0400     		.2byte	0x4
 4521 09fb F3       		.byte	0xf3
 4522 09fc 01       		.uleb128 0x1
 4523 09fd 50       		.byte	0x50
 4524 09fe 9F       		.byte	0x9f
 4525 09ff 32000000 		.4byte	.LVL177
 4526 0a03 34000000 		.4byte	.LVL178
 4527 0a07 0100     		.2byte	0x1
 4528 0a09 50       		.byte	0x50
 4529 0a0a 34000000 		.4byte	.LVL178
 4530 0a0e 40000000 		.4byte	.LFE24
 4531 0a12 0400     		.2byte	0x4
 4532 0a14 F3       		.byte	0xf3
 4533 0a15 01       		.uleb128 0x1
 4534 0a16 50       		.byte	0x50
 4535 0a17 9F       		.byte	0x9f
 4536 0a18 00000000 		.4byte	0
 4537 0a1c 00000000 		.4byte	0
 4538              	.LLST41:
 4539 0a20 00000000 		.4byte	.LVL171
ARM GAS  C:\Users\davis\AppData\Local\Temp\cco880hz.s 			page 111


 4540 0a24 34000000 		.4byte	.LVL178
 4541 0a28 0200     		.2byte	0x2
 4542 0a2a 31       		.byte	0x31
 4543 0a2b 9F       		.byte	0x9f
 4544 0a2c 34000000 		.4byte	.LVL178
 4545 0a30 40000000 		.4byte	.LFE24
 4546 0a34 0100     		.2byte	0x1
 4547 0a36 50       		.byte	0x50
 4548 0a37 00000000 		.4byte	0
 4549 0a3b 00000000 		.4byte	0
 4550              	.LLST42:
 4551 0a3f 00000000 		.4byte	.LVL179
 4552 0a43 16000000 		.4byte	.LVL180
 4553 0a47 0200     		.2byte	0x2
 4554 0a49 31       		.byte	0x31
 4555 0a4a 9F       		.byte	0x9f
 4556 0a4b 16000000 		.4byte	.LVL180
 4557 0a4f 1C000000 		.4byte	.LFE26
 4558 0a53 0100     		.2byte	0x1
 4559 0a55 50       		.byte	0x50
 4560 0a56 00000000 		.4byte	0
 4561 0a5a 00000000 		.4byte	0
 4562              		.section	.debug_aranges,"",%progbits
 4563 0000 E4000000 		.4byte	0xe4
 4564 0004 0200     		.2byte	0x2
 4565 0006 00000000 		.4byte	.Ldebug_info0
 4566 000a 04       		.byte	0x4
 4567 000b 00       		.byte	0
 4568 000c 0000     		.2byte	0
 4569 000e 0000     		.2byte	0
 4570 0010 00000000 		.4byte	.LFB5
 4571 0014 38000000 		.4byte	.LFE5-.LFB5
 4572 0018 00000000 		.4byte	.LFB6
 4573 001c 1C000000 		.4byte	.LFE6-.LFB6
 4574 0020 00000000 		.4byte	.LFB3
 4575 0024 48000000 		.4byte	.LFE3-.LFB3
 4576 0028 00000000 		.4byte	.LFB7
 4577 002c 1C000000 		.4byte	.LFE7-.LFB7
 4578 0030 00000000 		.4byte	.LFB8
 4579 0034 38000000 		.4byte	.LFE8-.LFB8
 4580 0038 00000000 		.4byte	.LFB9
 4581 003c 40000000 		.4byte	.LFE9-.LFB9
 4582 0040 00000000 		.4byte	.LFB10
 4583 0044 A0000000 		.4byte	.LFE10-.LFB10
 4584 0048 00000000 		.4byte	.LFB11
 4585 004c 38000000 		.4byte	.LFE11-.LFB11
 4586 0050 00000000 		.4byte	.LFB12
 4587 0054 38000000 		.4byte	.LFE12-.LFB12
 4588 0058 00000000 		.4byte	.LFB14
 4589 005c 64000000 		.4byte	.LFE14-.LFB14
 4590 0060 00000000 		.4byte	.LFB15
 4591 0064 1C000000 		.4byte	.LFE15-.LFB15
 4592 0068 00000000 		.4byte	.LFB16
 4593 006c 14000000 		.4byte	.LFE16-.LFB16
 4594 0070 00000000 		.4byte	.LFB17
 4595 0074 14000000 		.4byte	.LFE17-.LFB17
 4596 0078 00000000 		.4byte	.LFB18
ARM GAS  C:\Users\davis\AppData\Local\Temp\cco880hz.s 			page 112


 4597 007c 0C000000 		.4byte	.LFE18-.LFB18
 4598 0080 00000000 		.4byte	.LFB19
 4599 0084 10000000 		.4byte	.LFE19-.LFB19
 4600 0088 00000000 		.4byte	.LFB20
 4601 008c 10000000 		.4byte	.LFE20-.LFB20
 4602 0090 00000000 		.4byte	.LFB21
 4603 0094 98000000 		.4byte	.LFE21-.LFB21
 4604 0098 00000000 		.4byte	.LFB22
 4605 009c 58000000 		.4byte	.LFE22-.LFB22
 4606 00a0 00000000 		.4byte	.LFB1
 4607 00a4 54000000 		.4byte	.LFE1-.LFB1
 4608 00a8 00000000 		.4byte	.LFB23
 4609 00ac 40000000 		.4byte	.LFE23-.LFB23
 4610 00b0 00000000 		.4byte	.LFB2
 4611 00b4 E4000000 		.4byte	.LFE2-.LFB2
 4612 00b8 00000000 		.4byte	.LFB4
 4613 00bc 28000000 		.4byte	.LFE4-.LFB4
 4614 00c0 00000000 		.4byte	.LFB13
 4615 00c4 60000000 		.4byte	.LFE13-.LFB13
 4616 00c8 00000000 		.4byte	.LFB24
 4617 00cc 40000000 		.4byte	.LFE24-.LFB24
 4618 00d0 00000000 		.4byte	.LFB25
 4619 00d4 0C000000 		.4byte	.LFE25-.LFB25
 4620 00d8 00000000 		.4byte	.LFB26
 4621 00dc 1C000000 		.4byte	.LFE26-.LFB26
 4622 00e0 00000000 		.4byte	0
 4623 00e4 00000000 		.4byte	0
 4624              		.section	.debug_ranges,"",%progbits
 4625              	.Ldebug_ranges0:
 4626 0000 00000000 		.4byte	.LFB5
 4627 0004 38000000 		.4byte	.LFE5
 4628 0008 00000000 		.4byte	.LFB6
 4629 000c 1C000000 		.4byte	.LFE6
 4630 0010 00000000 		.4byte	.LFB3
 4631 0014 48000000 		.4byte	.LFE3
 4632 0018 00000000 		.4byte	.LFB7
 4633 001c 1C000000 		.4byte	.LFE7
 4634 0020 00000000 		.4byte	.LFB8
 4635 0024 38000000 		.4byte	.LFE8
 4636 0028 00000000 		.4byte	.LFB9
 4637 002c 40000000 		.4byte	.LFE9
 4638 0030 00000000 		.4byte	.LFB10
 4639 0034 A0000000 		.4byte	.LFE10
 4640 0038 00000000 		.4byte	.LFB11
 4641 003c 38000000 		.4byte	.LFE11
 4642 0040 00000000 		.4byte	.LFB12
 4643 0044 38000000 		.4byte	.LFE12
 4644 0048 00000000 		.4byte	.LFB14
 4645 004c 64000000 		.4byte	.LFE14
 4646 0050 00000000 		.4byte	.LFB15
 4647 0054 1C000000 		.4byte	.LFE15
 4648 0058 00000000 		.4byte	.LFB16
 4649 005c 14000000 		.4byte	.LFE16
 4650 0060 00000000 		.4byte	.LFB17
 4651 0064 14000000 		.4byte	.LFE17
 4652 0068 00000000 		.4byte	.LFB18
 4653 006c 0C000000 		.4byte	.LFE18
ARM GAS  C:\Users\davis\AppData\Local\Temp\cco880hz.s 			page 113


 4654 0070 00000000 		.4byte	.LFB19
 4655 0074 10000000 		.4byte	.LFE19
 4656 0078 00000000 		.4byte	.LFB20
 4657 007c 10000000 		.4byte	.LFE20
 4658 0080 00000000 		.4byte	.LFB21
 4659 0084 98000000 		.4byte	.LFE21
 4660 0088 00000000 		.4byte	.LFB22
 4661 008c 58000000 		.4byte	.LFE22
 4662 0090 00000000 		.4byte	.LFB1
 4663 0094 54000000 		.4byte	.LFE1
 4664 0098 00000000 		.4byte	.LFB23
 4665 009c 40000000 		.4byte	.LFE23
 4666 00a0 00000000 		.4byte	.LFB2
 4667 00a4 E4000000 		.4byte	.LFE2
 4668 00a8 00000000 		.4byte	.LFB4
 4669 00ac 28000000 		.4byte	.LFE4
 4670 00b0 00000000 		.4byte	.LFB13
 4671 00b4 60000000 		.4byte	.LFE13
 4672 00b8 00000000 		.4byte	.LFB24
 4673 00bc 40000000 		.4byte	.LFE24
 4674 00c0 00000000 		.4byte	.LFB25
 4675 00c4 0C000000 		.4byte	.LFE25
 4676 00c8 00000000 		.4byte	.LFB26
 4677 00cc 1C000000 		.4byte	.LFE26
 4678 00d0 00000000 		.4byte	0
 4679 00d4 00000000 		.4byte	0
 4680              		.section	.debug_line,"",%progbits
 4681              	.Ldebug_line0:
 4682 0000 E3030000 		.section	.debug_str,"MS",%progbits,1
 4682      02005400 
 4682      00000201 
 4682      FB0E0D00 
 4682      01010101 
 4683              	.LASF64:
 4684 0000 43414E5F 		.ascii	"CAN_GetRXErrorCount\000"
 4684      47657452 
 4684      58457272 
 4684      6F72436F 
 4684      756E7400 
 4685              	.LASF10:
 4686 0014 75696E74 		.ascii	"uint16\000"
 4686      313600
 4687              	.LASF53:
 4688 001b 72657365 		.ascii	"reset\000"
 4688      7400
 4689              	.LASF55:
 4690 0021 65646765 		.ascii	"edge\000"
 4690      00
 4691              	.LASF77:
 4692 0026 43414E5F 		.ascii	"CAN_Start\000"
 4692      53746172 
 4692      7400
 4693              	.LASF70:
 4694 0030 43414E5F 		.ascii	"CAN_RxTxBuffersConfig\000"
 4694      52785478 
 4694      42756666 
 4694      65727343 
ARM GAS  C:\Users\davis\AppData\Local\Temp\cco880hz.s 			page 114


 4694      6F6E6669 
 4695              	.LASF40:
 4696 0046 43414E5F 		.ascii	"CAN_Stop\000"
 4696      53746F70 
 4696      00
 4697              	.LASF89:
 4698 004f 474E5520 		.ascii	"GNU C11 5.4.1 20160609 (release) [ARM/embedded-5-br"
 4698      43313120 
 4698      352E342E 
 4698      31203230 
 4698      31363036 
 4699 0082 616E6368 		.ascii	"anch revision 237715] -mcpu=cortex-m0 -mthumb -g -O"
 4699      20726576 
 4699      6973696F 
 4699      6E203233 
 4699      37373135 
 4700 00b5 67202D66 		.ascii	"g -ffunction-sections -ffat-lto-objects\000"
 4700      66756E63 
 4700      74696F6E 
 4700      2D736563 
 4700      74696F6E 
 4701              	.LASF7:
 4702 00dd 6C6F6E67 		.ascii	"long long unsigned int\000"
 4702      206C6F6E 
 4702      6720756E 
 4702      7369676E 
 4702      65642069 
 4703              	.LASF28:
 4704 00f4 7478636D 		.ascii	"txcmd\000"
 4704      6400
 4705              	.LASF33:
 4706 00fa 7278616D 		.ascii	"rxamrd\000"
 4706      726400
 4707              	.LASF92:
 4708 0101 43414E5F 		.ascii	"CAN_initVar\000"
 4708      696E6974 
 4708      56617200 
 4709              	.LASF46:
 4710 010d 62697472 		.ascii	"bitrate\000"
 4710      61746500 
 4711              	.LASF6:
 4712 0115 6C6F6E67 		.ascii	"long long int\000"
 4712      206C6F6E 
 4712      6720696E 
 4712      7400
 4713              	.LASF0:
 4714 0123 7369676E 		.ascii	"signed char\000"
 4714      65642063 
 4714      68617200 
 4715              	.LASF43:
 4716 012f 43414E5F 		.ascii	"CAN_GlobalIntDisable\000"
 4716      476C6F62 
 4716      616C496E 
 4716      74446973 
 4716      61626C65 
 4717              	.LASF80:
 4718 0144 72756E53 		.ascii	"runState\000"
ARM GAS  C:\Users\davis\AppData\Local\Temp\cco880hz.s 			page 115


 4718      74617465 
 4718      00
 4719              	.LASF90:
 4720 014d 47656E65 		.ascii	"Generated_Source\\PSoC4\\CAN.c\000"
 4720      72617465 
 4720      645F536F 
 4720      75726365 
 4720      5C50536F 
 4721              	.LASF4:
 4722 016a 6C6F6E67 		.ascii	"long int\000"
 4722      20696E74 
 4722      00
 4723              	.LASF85:
 4724 0173 4379496E 		.ascii	"CyIntDisable\000"
 4724      74446973 
 4724      61626C65 
 4724      00
 4725              	.LASF32:
 4726 0180 72786461 		.ascii	"rxdata\000"
 4726      746100
 4727              	.LASF9:
 4728 0187 75696E74 		.ascii	"uint8\000"
 4728      3800
 4729              	.LASF24:
 4730 018d 7278616D 		.ascii	"rxamr\000"
 4730      7200
 4731              	.LASF13:
 4732 0193 646F7562 		.ascii	"double\000"
 4732      6C6500
 4733              	.LASF11:
 4734 019a 75696E74 		.ascii	"uint32\000"
 4734      333200
 4735              	.LASF20:
 4736 01a1 62797465 		.ascii	"byte\000"
 4736      00
 4737              	.LASF60:
 4738 01a6 6D61736B 		.ascii	"mask\000"
 4738      00
 4739              	.LASF62:
 4740 01ab 43414E5F 		.ascii	"CAN_GetRXErrorFlag\000"
 4740      47657452 
 4740      58457272 
 4740      6F72466C 
 4740      616700
 4741              	.LASF73:
 4742 01be 43414E5F 		.ascii	"CAN_SetSwapDataEndianness\000"
 4742      53657453 
 4742      77617044 
 4742      61746145 
 4742      6E646961 
 4743              	.LASF59:
 4744 01d8 43414E5F 		.ascii	"CAN_SetIrqMask\000"
 4744      53657449 
 4744      72714D61 
 4744      736B00
 4745              	.LASF8:
 4746 01e7 756E7369 		.ascii	"unsigned int\000"
ARM GAS  C:\Users\davis\AppData\Local\Temp\cco880hz.s 			page 116


 4746      676E6564 
 4746      20696E74 
 4746      00
 4747              	.LASF5:
 4748 01f4 6C6F6E67 		.ascii	"long unsigned int\000"
 4748      20756E73 
 4748      69676E65 
 4748      6420696E 
 4748      7400
 4749              	.LASF38:
 4750 0206 74696D65 		.ascii	"timeout\000"
 4750      6F757400 
 4751              	.LASF78:
 4752 020e 43414E5F 		.ascii	"CAN_SetOpMode\000"
 4752      5365744F 
 4752      704D6F64 
 4752      6500
 4753              	.LASF3:
 4754 021c 73686F72 		.ascii	"short unsigned int\000"
 4754      7420756E 
 4754      7369676E 
 4754      65642069 
 4754      6E7400
 4755              	.LASF35:
 4756 022f 43414E5F 		.ascii	"CAN_RX_STRUCT\000"
 4756      52585F53 
 4756      54525543 
 4756      5400
 4757              	.LASF71:
 4758 023d 43414E5F 		.ascii	"CAN_RXConfigStruct\000"
 4758      5258436F 
 4758      6E666967 
 4758      53747275 
 4758      637400
 4759              	.LASF41:
 4760 0250 43414E5F 		.ascii	"CAN_GlobalIntEnable\000"
 4760      476C6F62 
 4760      616C496E 
 4760      74456E61 
 4760      626C6500 
 4761              	.LASF87:
 4762 0264 4379496E 		.ascii	"CyIntSetVector\000"
 4762      74536574 
 4762      56656374 
 4762      6F7200
 4763              	.LASF26:
 4764 0273 43414E5F 		.ascii	"CAN_RX_CFG\000"
 4764      52585F43 
 4764      464700
 4765              	.LASF79:
 4766 027e 6F704D6F 		.ascii	"opMode\000"
 4766      646500
 4767              	.LASF45:
 4768 0285 43414E5F 		.ascii	"CAN_SetArbiter\000"
 4768      53657441 
 4768      72626974 
 4768      657200
ARM GAS  C:\Users\davis\AppData\Local\Temp\cco880hz.s 			page 117


 4769              	.LASF63:
 4770 0294 43414E5F 		.ascii	"CAN_GetTXErrorCount\000"
 4770      47657454 
 4770      58457272 
 4770      6F72436F 
 4770      756E7400 
 4771              	.LASF67:
 4772 02a8 7278436F 		.ascii	"rxConfig\000"
 4772      6E666967 
 4772      00
 4773              	.LASF36:
 4774 02b1 74786461 		.ascii	"txdata\000"
 4774      746100
 4775              	.LASF16:
 4776 02b8 72656733 		.ascii	"reg32\000"
 4776      3200
 4777              	.LASF75:
 4778 02be 43414E5F 		.ascii	"CAN_Init\000"
 4778      496E6974 
 4778      00
 4779              	.LASF57:
 4780 02c7 72656741 		.ascii	"regAddr\000"
 4780      64647200 
 4781              	.LASF51:
 4782 02cf 63666754 		.ascii	"cfgTemp\000"
 4782      656D7000 
 4783              	.LASF22:
 4784 02d7 72786D61 		.ascii	"rxmailbox\000"
 4784      696C626F 
 4784      7800
 4785              	.LASF21:
 4786 02e1 43414E5F 		.ascii	"CAN_REG_32\000"
 4786      5245475F 
 4786      333200
 4787              	.LASF18:
 4788 02ec 73697A65 		.ascii	"sizetype\000"
 4788      74797065 
 4788      00
 4789              	.LASF17:
 4790 02f5 6C6F6E67 		.ascii	"long double\000"
 4790      20646F75 
 4790      626C6500 
 4791              	.LASF82:
 4792 0301 6563724D 		.ascii	"ecrMode\000"
 4792      6F646500 
 4793              	.LASF65:
 4794 0309 43414E5F 		.ascii	"CAN_GetErrorState\000"
 4794      47657445 
 4794      72726F72 
 4794      53746174 
 4794      6500
 4795              	.LASF91:
 4796 031b 433A5C55 		.ascii	"C:\\Users\\davis\\Documents\\PSoC Creator\\IMU_Firm"
 4796      73657273 
 4796      5C646176 
 4796      69735C44 
 4796      6F63756D 
ARM GAS  C:\Users\davis\AppData\Local\Temp\cco880hz.s 			page 118


 4797 0349 77617265 		.ascii	"ware_2020-21\\IMU Board Firmware.cydsn\000"
 4797      5F323032 
 4797      302D3231 
 4797      5C494D55 
 4797      20426F61 
 4798              	.LASF31:
 4799 036f 72786964 		.ascii	"rxid\000"
 4799      00
 4800              	.LASF84:
 4801 0374 43414E5F 		.ascii	"CAN_ArmErrorCaptureRegister\000"
 4801      41726D45 
 4801      72726F72 
 4801      43617074 
 4801      75726552 
 4802              	.LASF88:
 4803 0390 4379496E 		.ascii	"CyIntSetPriority\000"
 4803      74536574 
 4803      5072696F 
 4803      72697479 
 4803      00
 4804              	.LASF74:
 4805 03a1 73776170 		.ascii	"swap\000"
 4805      00
 4806              	.LASF56:
 4807 03a6 43414E5F 		.ascii	"CAN_RXRegisterInit\000"
 4807      52585265 
 4807      67697374 
 4807      6572496E 
 4807      697400
 4808              	.LASF12:
 4809 03b9 666C6F61 		.ascii	"float\000"
 4809      7400
 4810              	.LASF83:
 4811 03bf 43414E5F 		.ascii	"CAN_ReadErrorCaptureRegister\000"
 4811      52656164 
 4811      4572726F 
 4811      72436170 
 4811      74757265 
 4812              	.LASF15:
 4813 03dc 72656738 		.ascii	"reg8\000"
 4813      00
 4814              	.LASF1:
 4815 03e1 756E7369 		.ascii	"unsigned char\000"
 4815      676E6564 
 4815      20636861 
 4815      7200
 4816              	.LASF2:
 4817 03ef 73686F72 		.ascii	"short int\000"
 4817      7420696E 
 4817      7400
 4818              	.LASF61:
 4819 03f9 43414E5F 		.ascii	"CAN_GetTXErrorFlag\000"
 4819      47657454 
 4819      58457272 
 4819      6F72466C 
 4819      616700
 4820              	.LASF86:
ARM GAS  C:\Users\davis\AppData\Local\Temp\cco880hz.s 			page 119


 4821 040c 4379496E 		.ascii	"CyIntEnable\000"
 4821      74456E61 
 4821      626C6500 
 4822              	.LASF42:
 4823 0418 43414E5F 		.ascii	"CAN_Enable\000"
 4823      456E6162 
 4823      6C6500
 4824              	.LASF37:
 4825 0423 43414E5F 		.ascii	"CAN_TX_STRUCT\000"
 4825      54585F53 
 4825      54525543 
 4825      5400
 4826              	.LASF81:
 4827 0431 43414E5F 		.ascii	"CAN_SetErrorCaptureRegisterMode\000"
 4827      53657445 
 4827      72726F72 
 4827      43617074 
 4827      75726552 
 4828              	.LASF44:
 4829 0451 43414E5F 		.ascii	"CAN_SetPreScaler\000"
 4829      53657450 
 4829      72655363 
 4829      616C6572 
 4829      00
 4830              	.LASF14:
 4831 0462 63686172 		.ascii	"char\000"
 4831      00
 4832              	.LASF54:
 4833 0467 43414E5F 		.ascii	"CAN_SetEdgeMode\000"
 4833      53657445 
 4833      6467654D 
 4833      6F646500 
 4834              	.LASF58:
 4835 0477 636F6E66 		.ascii	"config\000"
 4835      696700
 4836              	.LASF68:
 4837 047e 43414E5F 		.ascii	"CAN_TxBufConfig\000"
 4837      54784275 
 4837      66436F6E 
 4837      66696700 
 4838              	.LASF76:
 4839 048e 6C6F6361 		.ascii	"localResult\000"
 4839      6C526573 
 4839      756C7400 
 4840              	.LASF72:
 4841 049a 43414E5F 		.ascii	"CAN_TXConfigStruct\000"
 4841      5458436F 
 4841      6E666967 
 4841      53747275 
 4841      637400
 4842              	.LASF19:
 4843 04ad 43414E5F 		.ascii	"CAN_DATA_BYTES\000"
 4843      44415441 
 4843      5F425954 
 4843      455300
 4844              	.LASF27:
 4845 04bc 74786D61 		.ascii	"txmailbox\000"
ARM GAS  C:\Users\davis\AppData\Local\Temp\cco880hz.s 			page 120


 4845      696C626F 
 4845      7800
 4846              	.LASF49:
 4847 04c6 63666754 		.ascii	"cfgTseg1\000"
 4847      73656731 
 4847      00
 4848              	.LASF50:
 4849 04cf 63666754 		.ascii	"cfgTseg2\000"
 4849      73656732 
 4849      00
 4850              	.LASF48:
 4851 04d8 43414E5F 		.ascii	"CAN_SetTsegSample\000"
 4851      53657454 
 4851      73656753 
 4851      616D706C 
 4851      6500
 4852              	.LASF23:
 4853 04ea 7278636D 		.ascii	"rxcmd\000"
 4853      6400
 4854              	.LASF69:
 4855 04f0 7478436F 		.ascii	"txConfig\000"
 4855      6E666967 
 4855      00
 4856              	.LASF66:
 4857 04f9 43414E5F 		.ascii	"CAN_RxBufConfig\000"
 4857      52784275 
 4857      66436F6E 
 4857      66696700 
 4858              	.LASF29:
 4859 0509 74786964 		.ascii	"txid\000"
 4859      00
 4860              	.LASF25:
 4861 050e 72786163 		.ascii	"rxacr\000"
 4861      7200
 4862              	.LASF47:
 4863 0514 61726269 		.ascii	"arbiter\000"
 4863      74657200 
 4864              	.LASF34:
 4865 051c 72786163 		.ascii	"rxacrd\000"
 4865      726400
 4866              	.LASF30:
 4867 0523 43414E5F 		.ascii	"CAN_TX_CFG\000"
 4867      54585F43 
 4867      464700
 4868              	.LASF39:
 4869 052e 72657375 		.ascii	"result\000"
 4869      6C7400
 4870              	.LASF52:
 4871 0535 43414E5F 		.ascii	"CAN_SetRestartType\000"
 4871      53657452 
 4871      65737461 
 4871      72745479 
 4871      706500
 4872              		.ident	"GCC: (GNU Tools for ARM Embedded Processors) 5.4.1 20160609 (release) [ARM/embedded-5-bran
