ARM GAS  C:\Users\davis\AppData\Local\Temp\ccLGdZjJ.s 			page 1


   1              		.syntax unified
   2              		.cpu cortex-m0
   3              		.fpu softvfp
   4              		.eabi_attribute 20, 1
   5              		.eabi_attribute 21, 1
   6              		.eabi_attribute 23, 3
   7              		.eabi_attribute 24, 1
   8              		.eabi_attribute 25, 1
   9              		.eabi_attribute 26, 1
  10              		.eabi_attribute 30, 1
  11              		.eabi_attribute 34, 0
  12              		.eabi_attribute 18, 4
  13              		.thumb
  14              		.syntax unified
  15              		.file	"CANGPIO.c"
  16              		.text
  17              	.Ltext0:
  18              		.cfi_sections	.debug_frame
  19              		.section	.text.AssembleGPIOSetPWMFrequencyPacket,"ax",%progbits
  20              		.align	2
  21              		.global	AssembleGPIOSetPWMFrequencyPacket
  22              		.code	16
  23              		.thumb_func
  24              		.type	AssembleGPIOSetPWMFrequencyPacket, %function
  25              	AssembleGPIOSetPWMFrequencyPacket:
  26              	.LFB0:
  27              		.file 1 "HindsightCAN\\CANGPIO.c"
   1:HindsightCAN/CANGPIO.c **** /* File:         CANGPIO.c
   2:HindsightCAN/CANGPIO.c ****  * Authors:      Jaden Bottemiller, Benton Kwong, Dylan Tomberlin.
   3:HindsightCAN/CANGPIO.c ****  * Organization: Husky Robotics Team
   4:HindsightCAN/CANGPIO.c ****  * 
   5:HindsightCAN/CANGPIO.c ****  * This file includes fuction implementations for the GPIO board CAN Communication
   6:HindsightCAN/CANGPIO.c ****  * using the Hindsight CAN Communication standard.
   7:HindsightCAN/CANGPIO.c ****  * Documentation: https://huskyroboticsteam.slite.com/app/channels/iU0BryG7M9/collections/aXvWTcIR6
   8:HindsightCAN/CANGPIO.c ****  */
   9:HindsightCAN/CANGPIO.c **** //#include "CANPacket.h"
  10:HindsightCAN/CANGPIO.c **** #include "CANGPIO.h"
  11:HindsightCAN/CANGPIO.c **** 
  12:HindsightCAN/CANGPIO.c **** //Set PWM Frequency Packet
  13:HindsightCAN/CANGPIO.c **** //Assembles a CAN Packet to set GPIO PWM Frequency
  14:HindsightCAN/CANGPIO.c **** //  Inputs: CANPacket pointer to assemble packet
  15:HindsightCAN/CANGPIO.c **** //          targetGroup & targetSerial - for CAN ID
  16:HindsightCAN/CANGPIO.c **** //          pwmChannel - board specific PWM channel
  17:HindsightCAN/CANGPIO.c **** //          frequency - frequency in Hz
  18:HindsightCAN/CANGPIO.c **** void AssembleGPIOSetPWMFrequencyPacket(CANPacket *packetToAssemble, 
  19:HindsightCAN/CANGPIO.c ****     uint8_t targetDeviceGroup, 
  20:HindsightCAN/CANGPIO.c ****     uint8_t targetDeviceSerial,
  21:HindsightCAN/CANGPIO.c ****     uint8_t pwmChannel,
  22:HindsightCAN/CANGPIO.c ****     uint16_t frequency){
  28              		.loc 1 22 0
  29              		.cfi_startproc
  30              		@ args = 4, pretend = 0, frame = 0
  31              		@ frame_needed = 0, uses_anonymous_args = 0
  32              	.LVL0:
  33 0000 F8B5     		push	{r3, r4, r5, r6, r7, lr}
  34              		.cfi_def_cfa_offset 24
  35              		.cfi_offset 3, -24
ARM GAS  C:\Users\davis\AppData\Local\Temp\ccLGdZjJ.s 			page 2


  36              		.cfi_offset 4, -20
  37              		.cfi_offset 5, -16
  38              		.cfi_offset 6, -12
  39              		.cfi_offset 7, -8
  40              		.cfi_offset 14, -4
  41 0002 0400     		movs	r4, r0
  42 0004 1F00     		movs	r7, r3
  43 0006 06AB     		add	r3, sp, #24
  44              	.LVL1:
  45 0008 1E88     		ldrh	r6, [r3]
  23:HindsightCAN/CANGPIO.c **** 
  24:HindsightCAN/CANGPIO.c ****     packetToAssemble->id = ConstructCANID(PACKET_PRIORITY_NORMAL, targetDeviceGroup, targetDeviceSe
  46              		.loc 1 24 0
  47 000a 0120     		movs	r0, #1
  48              	.LVL2:
  49 000c FFF7FEFF 		bl	ConstructCANID
  50              	.LVL3:
  51 0010 2080     		strh	r0, [r4]
  25:HindsightCAN/CANGPIO.c ****     packetToAssemble->dlc = DLC_GPIO_PWM_FREQ;
  52              		.loc 1 25 0
  53 0012 0423     		movs	r3, #4
  54 0014 A370     		strb	r3, [r4, #2]
  26:HindsightCAN/CANGPIO.c **** 
  27:HindsightCAN/CANGPIO.c ****     int nextByte = WritePacketIDOnly(packetToAssemble->data, ID_GPIO_PWM_FREQ);
  55              		.loc 1 27 0
  56 0016 E51C     		adds	r5, r4, #3
  57 0018 0021     		movs	r1, #0
  58 001a 2800     		movs	r0, r5
  59 001c FFF7FEFF 		bl	WritePacketIDOnly
  60              	.LVL4:
  28:HindsightCAN/CANGPIO.c ****     packetToAssemble->data[nextByte++] = pwmChannel;
  61              		.loc 1 28 0
  62 0020 421C     		adds	r2, r0, #1
  63              	.LVL5:
  64 0022 2018     		adds	r0, r4, r0
  65 0024 C770     		strb	r7, [r0, #3]
  29:HindsightCAN/CANGPIO.c ****     PackIntIntoDataMSBFirst(packetToAssemble->data, frequency, nextByte); //consider making a 16bit
  66              		.loc 1 29 0
  67 0026 3100     		movs	r1, r6
  68 0028 2800     		movs	r0, r5
  69 002a FFF7FEFF 		bl	PackIntIntoDataMSBFirst
  70              	.LVL6:
  30:HindsightCAN/CANGPIO.c **** 
  31:HindsightCAN/CANGPIO.c **** }
  71              		.loc 1 31 0
  72              		@ sp needed
  73              	.LVL7:
  74              	.LVL8:
  75 002e F8BD     		pop	{r3, r4, r5, r6, r7, pc}
  76              		.cfi_endproc
  77              	.LFE0:
  78              		.size	AssembleGPIOSetPWMFrequencyPacket, .-AssembleGPIOSetPWMFrequencyPacket
  79              		.section	.text.GetGPIOPWMChannelFromPacket,"ax",%progbits
  80              		.align	2
  81              		.global	GetGPIOPWMChannelFromPacket
  82              		.code	16
  83              		.thumb_func
ARM GAS  C:\Users\davis\AppData\Local\Temp\ccLGdZjJ.s 			page 3


  84              		.type	GetGPIOPWMChannelFromPacket, %function
  85              	GetGPIOPWMChannelFromPacket:
  86              	.LFB1:
  32:HindsightCAN/CANGPIO.c **** 
  33:HindsightCAN/CANGPIO.c **** //returns GPIO PWM Channel
  34:HindsightCAN/CANGPIO.c **** //accepts packet to return data from
  35:HindsightCAN/CANGPIO.c **** uint8_t GetGPIOPWMChannelFromPacket(CANPacket *packet){
  87              		.loc 1 35 0
  88              		.cfi_startproc
  89              		@ args = 0, pretend = 0, frame = 0
  90              		@ frame_needed = 0, uses_anonymous_args = 0
  91              		@ link register save eliminated.
  92              	.LVL9:
  36:HindsightCAN/CANGPIO.c ****     return packet->data[1];
  93              		.loc 1 36 0
  94 0000 0079     		ldrb	r0, [r0, #4]
  95              	.LVL10:
  37:HindsightCAN/CANGPIO.c **** }
  96              		.loc 1 37 0
  97              		@ sp needed
  98 0002 7047     		bx	lr
  99              		.cfi_endproc
 100              	.LFE1:
 101              		.size	GetGPIOPWMChannelFromPacket, .-GetGPIOPWMChannelFromPacket
 102              		.section	.text.GetGPIOPWMFrequencyFromPacket,"ax",%progbits
 103              		.align	2
 104              		.global	GetGPIOPWMFrequencyFromPacket
 105              		.code	16
 106              		.thumb_func
 107              		.type	GetGPIOPWMFrequencyFromPacket, %function
 108              	GetGPIOPWMFrequencyFromPacket:
 109              	.LFB2:
  38:HindsightCAN/CANGPIO.c **** //returns GPIO PWM frequency
  39:HindsightCAN/CANGPIO.c **** //accepts packet to return data from
  40:HindsightCAN/CANGPIO.c **** uint16_t GetGPIOPWMFrequencyFromPacket(CANPacket *packet){
 110              		.loc 1 40 0
 111              		.cfi_startproc
 112              		@ args = 0, pretend = 0, frame = 0
 113              		@ frame_needed = 0, uses_anonymous_args = 0
 114              	.LVL11:
 115 0000 10B5     		push	{r4, lr}
 116              		.cfi_def_cfa_offset 8
 117              		.cfi_offset 4, -8
 118              		.cfi_offset 14, -4
  41:HindsightCAN/CANGPIO.c ****     return DecodeBytesToIntMSBFirst(packet->data, 2, 3);
 119              		.loc 1 41 0
 120 0002 0330     		adds	r0, r0, #3
 121              	.LVL12:
 122 0004 0322     		movs	r2, #3
 123 0006 0221     		movs	r1, #2
 124 0008 FFF7FEFF 		bl	DecodeBytesToIntMSBFirst
 125              	.LVL13:
 126 000c 80B2     		uxth	r0, r0
  42:HindsightCAN/CANGPIO.c **** }
 127              		.loc 1 42 0
 128              		@ sp needed
 129 000e 10BD     		pop	{r4, pc}
ARM GAS  C:\Users\davis\AppData\Local\Temp\ccLGdZjJ.s 			page 4


 130              		.cfi_endproc
 131              	.LFE2:
 132              		.size	GetGPIOPWMFrequencyFromPacket, .-GetGPIOPWMFrequencyFromPacket
 133              		.section	.text.AssembleGPIOSetPWMDutyCyclePacket,"ax",%progbits
 134              		.align	2
 135              		.global	AssembleGPIOSetPWMDutyCyclePacket
 136              		.code	16
 137              		.thumb_func
 138              		.type	AssembleGPIOSetPWMDutyCyclePacket, %function
 139              	AssembleGPIOSetPWMDutyCyclePacket:
 140              	.LFB3:
  43:HindsightCAN/CANGPIO.c **** 
  44:HindsightCAN/CANGPIO.c **** //Set PWM Duty Cycle
  45:HindsightCAN/CANGPIO.c **** //Assembles a CAN Packet to set GPIO PWM Duty Cycle
  46:HindsightCAN/CANGPIO.c **** //  Inputs: CANPacket pointer to assemble packet
  47:HindsightCAN/CANGPIO.c **** //          targetGroup & targetSerial - for CAN ID
  48:HindsightCAN/CANGPIO.c **** //          pwmChannel - board specific PWM channel
  49:HindsightCAN/CANGPIO.c **** //          dutyCycle - duty cycle resolution
  50:HindsightCAN/CANGPIO.c **** void AssembleGPIOSetPWMDutyCyclePacket(CANPacket *packetToAssemble, 
  51:HindsightCAN/CANGPIO.c ****     uint8_t targetDeviceGroup, 
  52:HindsightCAN/CANGPIO.c ****     uint8_t targetDeviceSerial,
  53:HindsightCAN/CANGPIO.c ****     uint8_t pwmChannel,
  54:HindsightCAN/CANGPIO.c ****     uint16_t dutyCycle){
 141              		.loc 1 54 0
 142              		.cfi_startproc
 143              		@ args = 4, pretend = 0, frame = 0
 144              		@ frame_needed = 0, uses_anonymous_args = 0
 145              	.LVL14:
 146 0000 F8B5     		push	{r3, r4, r5, r6, r7, lr}
 147              		.cfi_def_cfa_offset 24
 148              		.cfi_offset 3, -24
 149              		.cfi_offset 4, -20
 150              		.cfi_offset 5, -16
 151              		.cfi_offset 6, -12
 152              		.cfi_offset 7, -8
 153              		.cfi_offset 14, -4
 154 0002 0400     		movs	r4, r0
 155 0004 1F00     		movs	r7, r3
 156 0006 06AB     		add	r3, sp, #24
 157              	.LVL15:
 158 0008 1E88     		ldrh	r6, [r3]
  55:HindsightCAN/CANGPIO.c **** 
  56:HindsightCAN/CANGPIO.c ****     packetToAssemble->id = ConstructCANID(PACKET_PRIORITY_NORMAL, targetDeviceGroup, targetDeviceSe
 159              		.loc 1 56 0
 160 000a 0120     		movs	r0, #1
 161              	.LVL16:
 162 000c FFF7FEFF 		bl	ConstructCANID
 163              	.LVL17:
 164 0010 2080     		strh	r0, [r4]
  57:HindsightCAN/CANGPIO.c ****     packetToAssemble->dlc = DLC_GPIO_PWM_DUTY_CYCLE;
 165              		.loc 1 57 0
 166 0012 0423     		movs	r3, #4
 167 0014 A370     		strb	r3, [r4, #2]
  58:HindsightCAN/CANGPIO.c **** 
  59:HindsightCAN/CANGPIO.c ****     int nextByte = WritePacketIDOnly(packetToAssemble->data, ID_GPIO_PWM_DUTY_CYCLE);
 168              		.loc 1 59 0
 169 0016 E51C     		adds	r5, r4, #3
ARM GAS  C:\Users\davis\AppData\Local\Temp\ccLGdZjJ.s 			page 5


 170 0018 0121     		movs	r1, #1
 171 001a 2800     		movs	r0, r5
 172 001c FFF7FEFF 		bl	WritePacketIDOnly
 173              	.LVL18:
  60:HindsightCAN/CANGPIO.c ****     packetToAssemble->data[nextByte++] = pwmChannel;
 174              		.loc 1 60 0
 175 0020 421C     		adds	r2, r0, #1
 176              	.LVL19:
 177 0022 2018     		adds	r0, r4, r0
 178 0024 C770     		strb	r7, [r0, #3]
  61:HindsightCAN/CANGPIO.c ****     PackIntIntoDataMSBFirst(packetToAssemble->data, dutyCycle, nextByte);
 179              		.loc 1 61 0
 180 0026 3100     		movs	r1, r6
 181 0028 2800     		movs	r0, r5
 182 002a FFF7FEFF 		bl	PackIntIntoDataMSBFirst
 183              	.LVL20:
  62:HindsightCAN/CANGPIO.c **** }
 184              		.loc 1 62 0
 185              		@ sp needed
 186              	.LVL21:
 187              	.LVL22:
 188 002e F8BD     		pop	{r3, r4, r5, r6, r7, pc}
 189              		.cfi_endproc
 190              	.LFE3:
 191              		.size	AssembleGPIOSetPWMDutyCyclePacket, .-AssembleGPIOSetPWMDutyCyclePacket
 192              		.section	.text.GetGPIOPWMDutyCycle,"ax",%progbits
 193              		.align	2
 194              		.global	GetGPIOPWMDutyCycle
 195              		.code	16
 196              		.thumb_func
 197              		.type	GetGPIOPWMDutyCycle, %function
 198              	GetGPIOPWMDutyCycle:
 199              	.LFB4:
  63:HindsightCAN/CANGPIO.c **** 
  64:HindsightCAN/CANGPIO.c **** //returns GPIO PWM duty cycle
  65:HindsightCAN/CANGPIO.c **** //accepts packet to return data from
  66:HindsightCAN/CANGPIO.c **** uint16_t GetGPIOPWMDutyCycle(CANPacket *packetToAssemble){
 200              		.loc 1 66 0
 201              		.cfi_startproc
 202              		@ args = 0, pretend = 0, frame = 0
 203              		@ frame_needed = 0, uses_anonymous_args = 0
 204              	.LVL23:
 205 0000 10B5     		push	{r4, lr}
 206              		.cfi_def_cfa_offset 8
 207              		.cfi_offset 4, -8
 208              		.cfi_offset 14, -4
  67:HindsightCAN/CANGPIO.c ****     return DecodeBytesToIntMSBFirst(packetToAssemble->data, 2, 3);
 209              		.loc 1 67 0
 210 0002 0330     		adds	r0, r0, #3
 211              	.LVL24:
 212 0004 0322     		movs	r2, #3
 213 0006 0221     		movs	r1, #2
 214 0008 FFF7FEFF 		bl	DecodeBytesToIntMSBFirst
 215              	.LVL25:
 216 000c 80B2     		uxth	r0, r0
  68:HindsightCAN/CANGPIO.c **** }
 217              		.loc 1 68 0
ARM GAS  C:\Users\davis\AppData\Local\Temp\ccLGdZjJ.s 			page 6


 218              		@ sp needed
 219 000e 10BD     		pop	{r4, pc}
 220              		.cfi_endproc
 221              	.LFE4:
 222              		.size	GetGPIOPWMDutyCycle, .-GetGPIOPWMDutyCycle
 223              		.section	.text.AssembleGPIOSetADCStateConfiguration,"ax",%progbits
 224              		.align	2
 225              		.global	AssembleGPIOSetADCStateConfiguration
 226              		.code	16
 227              		.thumb_func
 228              		.type	AssembleGPIOSetADCStateConfiguration, %function
 229              	AssembleGPIOSetADCStateConfiguration:
 230              	.LFB5:
  69:HindsightCAN/CANGPIO.c **** 
  70:HindsightCAN/CANGPIO.c **** 
  71:HindsightCAN/CANGPIO.c **** //Set ADC State
  72:HindsightCAN/CANGPIO.c **** //Assembles a CAN Packet to set GPIO ADC
  73:HindsightCAN/CANGPIO.c **** //  Inputs: CANPacket pointer to assemble packet
  74:HindsightCAN/CANGPIO.c **** //          targetGroup & targetSerial - for CAN ID
  75:HindsightCAN/CANGPIO.c **** //          ADCChannel - board specific ADC channel
  76:HindsightCAN/CANGPIO.c **** //          state - bool (1 enable 0 disable)
  77:HindsightCAN/CANGPIO.c **** void AssembleGPIOSetADCStateConfiguration(CANPacket *packetToAssemble, 
  78:HindsightCAN/CANGPIO.c ****     uint8_t targetDeviceGroup, 
  79:HindsightCAN/CANGPIO.c ****     uint8_t targetDeviceSerial,
  80:HindsightCAN/CANGPIO.c ****     uint8_t ADCChannel,
  81:HindsightCAN/CANGPIO.c ****     uint8_t state){
 231              		.loc 1 81 0
 232              		.cfi_startproc
 233              		@ args = 4, pretend = 0, frame = 0
 234              		@ frame_needed = 0, uses_anonymous_args = 0
 235              	.LVL26:
 236 0000 70B5     		push	{r4, r5, r6, lr}
 237              		.cfi_def_cfa_offset 16
 238              		.cfi_offset 4, -16
 239              		.cfi_offset 5, -12
 240              		.cfi_offset 6, -8
 241              		.cfi_offset 14, -4
 242 0002 0400     		movs	r4, r0
 243 0004 1E00     		movs	r6, r3
 244 0006 04AB     		add	r3, sp, #16
 245              	.LVL27:
 246 0008 1D78     		ldrb	r5, [r3]
  82:HindsightCAN/CANGPIO.c **** 
  83:HindsightCAN/CANGPIO.c ****     packetToAssemble->id = ConstructCANID(PACKET_PRIORITY_NORMAL, targetDeviceGroup, targetDeviceSe
 247              		.loc 1 83 0
 248 000a 0120     		movs	r0, #1
 249              	.LVL28:
 250 000c FFF7FEFF 		bl	ConstructCANID
 251              	.LVL29:
 252 0010 2080     		strh	r0, [r4]
  84:HindsightCAN/CANGPIO.c ****     packetToAssemble->dlc = DLC_GPIO_ADC_STATE;
 253              		.loc 1 84 0
 254 0012 0323     		movs	r3, #3
 255 0014 A370     		strb	r3, [r4, #2]
  85:HindsightCAN/CANGPIO.c **** 
  86:HindsightCAN/CANGPIO.c ****     int nextByte = WritePacketIDOnly(packetToAssemble->data, ID_GPIO_ADC_STATE);
 256              		.loc 1 86 0
ARM GAS  C:\Users\davis\AppData\Local\Temp\ccLGdZjJ.s 			page 7


 257 0016 E01C     		adds	r0, r4, #3
 258 0018 0221     		movs	r1, #2
 259 001a FFF7FEFF 		bl	WritePacketIDOnly
 260              	.LVL30:
  87:HindsightCAN/CANGPIO.c ****     packetToAssemble->data[nextByte++] = ADCChannel;
 261              		.loc 1 87 0
 262 001e 431C     		adds	r3, r0, #1
 263              	.LVL31:
 264 0020 2018     		adds	r0, r4, r0
 265 0022 C670     		strb	r6, [r0, #3]
  88:HindsightCAN/CANGPIO.c ****     packetToAssemble->data[nextByte] = state;
 266              		.loc 1 88 0
 267 0024 E418     		adds	r4, r4, r3
 268              	.LVL32:
 269 0026 E570     		strb	r5, [r4, #3]
  89:HindsightCAN/CANGPIO.c **** }
 270              		.loc 1 89 0
 271              		@ sp needed
 272 0028 70BD     		pop	{r4, r5, r6, pc}
 273              		.cfi_endproc
 274              	.LFE5:
 275              		.size	AssembleGPIOSetADCStateConfiguration, .-AssembleGPIOSetADCStateConfiguration
 276 002a C046     		.section	.text.GetGPIOADCChannelFromPacket,"ax",%progbits
 277              		.align	2
 278              		.global	GetGPIOADCChannelFromPacket
 279              		.code	16
 280              		.thumb_func
 281              		.type	GetGPIOADCChannelFromPacket, %function
 282              	GetGPIOADCChannelFromPacket:
 283              	.LFB6:
  90:HindsightCAN/CANGPIO.c **** //returns GPIO ADC channel
  91:HindsightCAN/CANGPIO.c **** //accepts packet to return data from
  92:HindsightCAN/CANGPIO.c **** uint8_t GetGPIOADCChannelFromPacket(CANPacket *packet){
 284              		.loc 1 92 0
 285              		.cfi_startproc
 286              		@ args = 0, pretend = 0, frame = 0
 287              		@ frame_needed = 0, uses_anonymous_args = 0
 288              		@ link register save eliminated.
 289              	.LVL33:
  93:HindsightCAN/CANGPIO.c ****     return packet->data[1];
 290              		.loc 1 93 0
 291 0000 0079     		ldrb	r0, [r0, #4]
 292              	.LVL34:
  94:HindsightCAN/CANGPIO.c **** }
 293              		.loc 1 94 0
 294              		@ sp needed
 295 0002 7047     		bx	lr
 296              		.cfi_endproc
 297              	.LFE6:
 298              		.size	GetGPIOADCChannelFromPacket, .-GetGPIOADCChannelFromPacket
 299              		.section	.text.GetGPIOADCStateFromPacket,"ax",%progbits
 300              		.align	2
 301              		.global	GetGPIOADCStateFromPacket
 302              		.code	16
 303              		.thumb_func
 304              		.type	GetGPIOADCStateFromPacket, %function
 305              	GetGPIOADCStateFromPacket:
ARM GAS  C:\Users\davis\AppData\Local\Temp\ccLGdZjJ.s 			page 8


 306              	.LFB7:
  95:HindsightCAN/CANGPIO.c **** //returns GPIO ADC state
  96:HindsightCAN/CANGPIO.c **** //accepts packet to return data from
  97:HindsightCAN/CANGPIO.c **** uint8_t GetGPIOADCStateFromPacket(CANPacket *packet){
 307              		.loc 1 97 0
 308              		.cfi_startproc
 309              		@ args = 0, pretend = 0, frame = 0
 310              		@ frame_needed = 0, uses_anonymous_args = 0
 311              		@ link register save eliminated.
 312              	.LVL35:
  98:HindsightCAN/CANGPIO.c ****     return packet->data[2];
 313              		.loc 1 98 0
 314 0000 4079     		ldrb	r0, [r0, #5]
 315              	.LVL36:
  99:HindsightCAN/CANGPIO.c **** }
 316              		.loc 1 99 0
 317              		@ sp needed
 318 0002 7047     		bx	lr
 319              		.cfi_endproc
 320              	.LFE7:
 321              		.size	GetGPIOADCStateFromPacket, .-GetGPIOADCStateFromPacket
 322              		.section	.text.AssembleGPIOSetConfigurationPacket,"ax",%progbits
 323              		.align	2
 324              		.global	AssembleGPIOSetConfigurationPacket
 325              		.code	16
 326              		.thumb_func
 327              		.type	AssembleGPIOSetConfigurationPacket, %function
 328              	AssembleGPIOSetConfigurationPacket:
 329              	.LFB8:
 100:HindsightCAN/CANGPIO.c **** 
 101:HindsightCAN/CANGPIO.c **** 
 102:HindsightCAN/CANGPIO.c **** //Set GPIO Configuration
 103:HindsightCAN/CANGPIO.c **** //Assembles a CAN Packet to set GPIO Config
 104:HindsightCAN/CANGPIO.c **** //  Inputs: CANPacket pointer to assemble packet
 105:HindsightCAN/CANGPIO.c **** //          targetGroup & targetSerial - for CAN ID
 106:HindsightCAN/CANGPIO.c **** //          GPIORegister - GPIO Register 
 107:HindsightCAN/CANGPIO.c **** //          GPIO bit number - (number is the bit which is being set)
 108:HindsightCAN/CANGPIO.c **** //          GPIO bit state - off, in, out, in/out, adc, pwm
 109:HindsightCAN/CANGPIO.c **** void AssembleGPIOSetConfigurationPacket(CANPacket *packetToAssemble, 
 110:HindsightCAN/CANGPIO.c ****     uint8_t targetDeviceGroup, 
 111:HindsightCAN/CANGPIO.c ****     uint8_t targetDeviceSerial,
 112:HindsightCAN/CANGPIO.c ****     uint8_t GPIORegister,
 113:HindsightCAN/CANGPIO.c ****     uint8_t bitNumber,
 114:HindsightCAN/CANGPIO.c ****     uint8_t bitConfig){
 330              		.loc 1 114 0
 331              		.cfi_startproc
 332              		@ args = 8, pretend = 0, frame = 0
 333              		@ frame_needed = 0, uses_anonymous_args = 0
 334              	.LVL37:
 335 0000 F8B5     		push	{r3, r4, r5, r6, r7, lr}
 336              		.cfi_def_cfa_offset 24
 337              		.cfi_offset 3, -24
 338              		.cfi_offset 4, -20
 339              		.cfi_offset 5, -16
 340              		.cfi_offset 6, -12
 341              		.cfi_offset 7, -8
 342              		.cfi_offset 14, -4
ARM GAS  C:\Users\davis\AppData\Local\Temp\ccLGdZjJ.s 			page 9


 343 0002 0400     		movs	r4, r0
 344 0004 1F00     		movs	r7, r3
 345 0006 06AB     		add	r3, sp, #24
 346              	.LVL38:
 347 0008 1E78     		ldrb	r6, [r3]
 348 000a 07AB     		add	r3, sp, #28
 349              	.LVL39:
 350 000c 1D78     		ldrb	r5, [r3]
 115:HindsightCAN/CANGPIO.c **** 
 116:HindsightCAN/CANGPIO.c ****     packetToAssemble->id = ConstructCANID(PACKET_PRIORITY_NORMAL, targetDeviceGroup, targetDeviceSe
 351              		.loc 1 116 0
 352 000e 0120     		movs	r0, #1
 353              	.LVL40:
 354 0010 FFF7FEFF 		bl	ConstructCANID
 355              	.LVL41:
 356 0014 2080     		strh	r0, [r4]
 117:HindsightCAN/CANGPIO.c ****     packetToAssemble->dlc = DLC_GPIO_CONFIG;
 357              		.loc 1 117 0
 358 0016 0423     		movs	r3, #4
 359 0018 A370     		strb	r3, [r4, #2]
 118:HindsightCAN/CANGPIO.c **** 
 119:HindsightCAN/CANGPIO.c ****     int nextByte = WritePacketIDOnly(packetToAssemble->data, ID_GPIO_CONFIG);
 360              		.loc 1 119 0
 361 001a E01C     		adds	r0, r4, #3
 362 001c 0321     		movs	r1, #3
 363 001e FFF7FEFF 		bl	WritePacketIDOnly
 364              	.LVL42:
 120:HindsightCAN/CANGPIO.c ****     packetToAssemble->data[nextByte++] = GPIORegister;
 365              		.loc 1 120 0
 366 0022 431C     		adds	r3, r0, #1
 367              	.LVL43:
 368 0024 2218     		adds	r2, r4, r0
 369 0026 D770     		strb	r7, [r2, #3]
 121:HindsightCAN/CANGPIO.c ****     packetToAssemble->data[nextByte++] = bitNumber;
 370              		.loc 1 121 0
 371 0028 0230     		adds	r0, r0, #2
 372              	.LVL44:
 373 002a E318     		adds	r3, r4, r3
 374 002c DE70     		strb	r6, [r3, #3]
 122:HindsightCAN/CANGPIO.c ****     packetToAssemble->data[nextByte] = bitConfig;
 375              		.loc 1 122 0
 376 002e 2018     		adds	r0, r4, r0
 377              	.LVL45:
 378 0030 C570     		strb	r5, [r0, #3]
 123:HindsightCAN/CANGPIO.c ****     
 124:HindsightCAN/CANGPIO.c **** }
 379              		.loc 1 124 0
 380              		@ sp needed
 381              	.LVL46:
 382 0032 F8BD     		pop	{r3, r4, r5, r6, r7, pc}
 383              		.cfi_endproc
 384              	.LFE8:
 385              		.size	AssembleGPIOSetConfigurationPacket, .-AssembleGPIOSetConfigurationPacket
 386              		.section	.text.GetGPIORegisterFromPacket,"ax",%progbits
 387              		.align	2
 388              		.global	GetGPIORegisterFromPacket
 389              		.code	16
ARM GAS  C:\Users\davis\AppData\Local\Temp\ccLGdZjJ.s 			page 10


 390              		.thumb_func
 391              		.type	GetGPIORegisterFromPacket, %function
 392              	GetGPIORegisterFromPacket:
 393              	.LFB9:
 125:HindsightCAN/CANGPIO.c **** //returns GPIO register
 126:HindsightCAN/CANGPIO.c **** //accepts packet to return data from
 127:HindsightCAN/CANGPIO.c **** uint8_t GetGPIORegisterFromPacket(CANPacket *packet){
 394              		.loc 1 127 0
 395              		.cfi_startproc
 396              		@ args = 0, pretend = 0, frame = 0
 397              		@ frame_needed = 0, uses_anonymous_args = 0
 398              		@ link register save eliminated.
 399              	.LVL47:
 128:HindsightCAN/CANGPIO.c ****     return packet->data[1];
 400              		.loc 1 128 0
 401 0000 0079     		ldrb	r0, [r0, #4]
 402              	.LVL48:
 129:HindsightCAN/CANGPIO.c **** }
 403              		.loc 1 129 0
 404              		@ sp needed
 405 0002 7047     		bx	lr
 406              		.cfi_endproc
 407              	.LFE9:
 408              		.size	GetGPIORegisterFromPacket, .-GetGPIORegisterFromPacket
 409              		.section	.text.GetGPIOBitNumberFromPacket,"ax",%progbits
 410              		.align	2
 411              		.global	GetGPIOBitNumberFromPacket
 412              		.code	16
 413              		.thumb_func
 414              		.type	GetGPIOBitNumberFromPacket, %function
 415              	GetGPIOBitNumberFromPacket:
 416              	.LFB10:
 130:HindsightCAN/CANGPIO.c **** //returns GPIO bit number
 131:HindsightCAN/CANGPIO.c **** //accepts packet to return data from
 132:HindsightCAN/CANGPIO.c **** uint8_t GetGPIOBitNumberFromPacket(CANPacket *packet){
 417              		.loc 1 132 0
 418              		.cfi_startproc
 419              		@ args = 0, pretend = 0, frame = 0
 420              		@ frame_needed = 0, uses_anonymous_args = 0
 421              		@ link register save eliminated.
 422              	.LVL49:
 133:HindsightCAN/CANGPIO.c ****     return packet->data[2];
 423              		.loc 1 133 0
 424 0000 4079     		ldrb	r0, [r0, #5]
 425              	.LVL50:
 134:HindsightCAN/CANGPIO.c **** }
 426              		.loc 1 134 0
 427              		@ sp needed
 428 0002 7047     		bx	lr
 429              		.cfi_endproc
 430              	.LFE10:
 431              		.size	GetGPIOBitNumberFromPacket, .-GetGPIOBitNumberFromPacket
 432              		.section	.text.GetGPIOBitConfigFromPacket,"ax",%progbits
 433              		.align	2
 434              		.global	GetGPIOBitConfigFromPacket
 435              		.code	16
 436              		.thumb_func
ARM GAS  C:\Users\davis\AppData\Local\Temp\ccLGdZjJ.s 			page 11


 437              		.type	GetGPIOBitConfigFromPacket, %function
 438              	GetGPIOBitConfigFromPacket:
 439              	.LFB11:
 135:HindsightCAN/CANGPIO.c **** //returns GPIO bit config
 136:HindsightCAN/CANGPIO.c **** //accepts packet to return data from
 137:HindsightCAN/CANGPIO.c **** uint8_t GetGPIOBitConfigFromPacket(CANPacket *packet){
 440              		.loc 1 137 0
 441              		.cfi_startproc
 442              		@ args = 0, pretend = 0, frame = 0
 443              		@ frame_needed = 0, uses_anonymous_args = 0
 444              		@ link register save eliminated.
 445              	.LVL51:
 138:HindsightCAN/CANGPIO.c ****     return packet->data[3];
 446              		.loc 1 138 0
 447 0000 8079     		ldrb	r0, [r0, #6]
 448              	.LVL52:
 139:HindsightCAN/CANGPIO.c **** }
 449              		.loc 1 139 0
 450              		@ sp needed
 451 0002 7047     		bx	lr
 452              		.cfi_endproc
 453              	.LFE11:
 454              		.size	GetGPIOBitConfigFromPacket, .-GetGPIOBitConfigFromPacket
 455              		.section	.text.AssembleGPIOWrite,"ax",%progbits
 456              		.align	2
 457              		.global	AssembleGPIOWrite
 458              		.code	16
 459              		.thumb_func
 460              		.type	AssembleGPIOWrite, %function
 461              	AssembleGPIOWrite:
 462              	.LFB12:
 140:HindsightCAN/CANGPIO.c **** 
 141:HindsightCAN/CANGPIO.c **** 
 142:HindsightCAN/CANGPIO.c **** //GPIO Write
 143:HindsightCAN/CANGPIO.c **** //Assembles a CAN Packet to set GPIO Config
 144:HindsightCAN/CANGPIO.c **** //  Inputs: CANPacket pointer to assemble packet
 145:HindsightCAN/CANGPIO.c **** //          targetGroup & targetSerial - for CAN ID
 146:HindsightCAN/CANGPIO.c **** //          GPIORegister - GPIO Register 
 147:HindsightCAN/CANGPIO.c **** //          GPIO bit number - (number is the bit which is being set)
 148:HindsightCAN/CANGPIO.c **** //          GPIO bit writevalues - off, on, flip
 149:HindsightCAN/CANGPIO.c **** void AssembleGPIOWrite(CANPacket *packetToAssemble, 
 150:HindsightCAN/CANGPIO.c ****     uint8_t targetDeviceGroup, 
 151:HindsightCAN/CANGPIO.c ****     uint8_t targetDeviceSerial,
 152:HindsightCAN/CANGPIO.c ****     uint8_t GPIORegister,
 153:HindsightCAN/CANGPIO.c ****     uint8_t bitNumber,
 154:HindsightCAN/CANGPIO.c ****     uint8_t bitWriteValue){
 463              		.loc 1 154 0
 464              		.cfi_startproc
 465              		@ args = 8, pretend = 0, frame = 0
 466              		@ frame_needed = 0, uses_anonymous_args = 0
 467              	.LVL53:
 468 0000 F8B5     		push	{r3, r4, r5, r6, r7, lr}
 469              		.cfi_def_cfa_offset 24
 470              		.cfi_offset 3, -24
 471              		.cfi_offset 4, -20
 472              		.cfi_offset 5, -16
 473              		.cfi_offset 6, -12
ARM GAS  C:\Users\davis\AppData\Local\Temp\ccLGdZjJ.s 			page 12


 474              		.cfi_offset 7, -8
 475              		.cfi_offset 14, -4
 476 0002 0400     		movs	r4, r0
 477 0004 1F00     		movs	r7, r3
 478 0006 06AB     		add	r3, sp, #24
 479              	.LVL54:
 480 0008 1E78     		ldrb	r6, [r3]
 481 000a 07AB     		add	r3, sp, #28
 482              	.LVL55:
 483 000c 1D78     		ldrb	r5, [r3]
 155:HindsightCAN/CANGPIO.c **** 
 156:HindsightCAN/CANGPIO.c ****     packetToAssemble->id = ConstructCANID(PACKET_PRIORITY_NORMAL, targetDeviceGroup, targetDeviceSe
 484              		.loc 1 156 0
 485 000e 0120     		movs	r0, #1
 486              	.LVL56:
 487 0010 FFF7FEFF 		bl	ConstructCANID
 488              	.LVL57:
 489 0014 2080     		strh	r0, [r4]
 157:HindsightCAN/CANGPIO.c ****     packetToAssemble->dlc = DLC_GPIO_WRITE;
 490              		.loc 1 157 0
 491 0016 0423     		movs	r3, #4
 492 0018 A370     		strb	r3, [r4, #2]
 158:HindsightCAN/CANGPIO.c **** 
 159:HindsightCAN/CANGPIO.c ****     int nextByte = WritePacketIDOnly(packetToAssemble->data, ID_GPIO_WRITE);
 493              		.loc 1 159 0
 494 001a E01C     		adds	r0, r4, #3
 495 001c 0421     		movs	r1, #4
 496 001e FFF7FEFF 		bl	WritePacketIDOnly
 497              	.LVL58:
 160:HindsightCAN/CANGPIO.c ****     packetToAssemble->data[nextByte++] = GPIORegister;
 498              		.loc 1 160 0
 499 0022 431C     		adds	r3, r0, #1
 500              	.LVL59:
 501 0024 2218     		adds	r2, r4, r0
 502 0026 D770     		strb	r7, [r2, #3]
 161:HindsightCAN/CANGPIO.c ****     packetToAssemble->data[nextByte++] = bitNumber;
 503              		.loc 1 161 0
 504 0028 0230     		adds	r0, r0, #2
 505              	.LVL60:
 506 002a E318     		adds	r3, r4, r3
 507 002c DE70     		strb	r6, [r3, #3]
 162:HindsightCAN/CANGPIO.c ****     packetToAssemble->data[nextByte] = bitWriteValue;
 508              		.loc 1 162 0
 509 002e 2018     		adds	r0, r4, r0
 510              	.LVL61:
 511 0030 C570     		strb	r5, [r0, #3]
 163:HindsightCAN/CANGPIO.c **** 
 164:HindsightCAN/CANGPIO.c **** }
 512              		.loc 1 164 0
 513              		@ sp needed
 514              	.LVL62:
 515 0032 F8BD     		pop	{r3, r4, r5, r6, r7, pc}
 516              		.cfi_endproc
 517              	.LFE12:
 518              		.size	AssembleGPIOWrite, .-AssembleGPIOWrite
 519              		.section	.text.GetGPIOWriteValuesFromPacket,"ax",%progbits
 520              		.align	2
ARM GAS  C:\Users\davis\AppData\Local\Temp\ccLGdZjJ.s 			page 13


 521              		.global	GetGPIOWriteValuesFromPacket
 522              		.code	16
 523              		.thumb_func
 524              		.type	GetGPIOWriteValuesFromPacket, %function
 525              	GetGPIOWriteValuesFromPacket:
 526              	.LFB13:
 165:HindsightCAN/CANGPIO.c **** 
 166:HindsightCAN/CANGPIO.c **** //returns GPIO write values
 167:HindsightCAN/CANGPIO.c **** //accepts packet to return data from
 168:HindsightCAN/CANGPIO.c **** uint8_t GetGPIOWriteValuesFromPacket(CANPacket *packet){
 527              		.loc 1 168 0
 528              		.cfi_startproc
 529              		@ args = 0, pretend = 0, frame = 0
 530              		@ frame_needed = 0, uses_anonymous_args = 0
 531              		@ link register save eliminated.
 532              	.LVL63:
 169:HindsightCAN/CANGPIO.c ****         return packet->data[3];
 533              		.loc 1 169 0
 534 0000 8079     		ldrb	r0, [r0, #6]
 535              	.LVL64:
 170:HindsightCAN/CANGPIO.c **** }...
 536              		.loc 1 170 0
 537              		@ sp needed
 538 0002 7047     		bx	lr
 539              		.cfi_endproc
 540              	.LFE13:
 541              		.size	GetGPIOWriteValuesFromPacket, .-GetGPIOWriteValuesFromPacket
 542              		.text
 543              	.Letext0:
 544              		.file 2 "c:\\program files (x86)\\cypress\\psoc creator\\4.4\\psoc creator\\import\\gnu\\arm\\5.4.
 545              		.file 3 "c:\\program files (x86)\\cypress\\psoc creator\\4.4\\psoc creator\\import\\gnu\\arm\\5.4.
 546              		.file 4 "HindsightCAN\\CANPacket.h"