ARM GAS  C:\Users\TT\AppData\Local\Temp\cc8CnhxX.s 			page 1


   1              		.syntax unified
   2              		.cpu cortex-m0
   3              		.fpu softvfp
   4              		.eabi_attribute 20, 1
   5              		.eabi_attribute 21, 1
   6              		.eabi_attribute 23, 3
   7              		.eabi_attribute 24, 1
   8              		.eabi_attribute 25, 1
   9              		.eabi_attribute 26, 1
  10              		.eabi_attribute 30, 1
  11              		.eabi_attribute 34, 0
  12              		.eabi_attribute 18, 4
  13              		.thumb
  14              		.syntax unified
  15              		.file	"CANIMU.c"
  16              		.text
  17              	.Ltext0:
  18              		.cfi_sections	.debug_frame
  19              		.section	.text.AssembleReadDataPacket,"ax",%progbits
  20              		.align	2
  21              		.global	AssembleReadDataPacket
  22              		.code	16
  23              		.thumb_func
  24              		.type	AssembleReadDataPacket, %function
  25              	AssembleReadDataPacket:
  26              	.LFB0:
  27              		.file 1 "CANIMU.c"
   1:CANIMU.c      **** /* ========================================
   2:CANIMU.c      ****  *
   3:CANIMU.c      ****  * Copyright YOUR COMPANY, THE YEAR
   4:CANIMU.c      ****  * All Rights Reserved
   5:CANIMU.c      ****  * UNPUBLISHED, LICENSED SOFTWARE.
   6:CANIMU.c      ****  *
   7:CANIMU.c      ****  * CONFIDENTIAL AND PROPRIETARY INFORMATION
   8:CANIMU.c      ****  * WHICH IS THE PROPERTY OF your company.
   9:CANIMU.c      ****  *
  10:CANIMU.c      ****  * ========================================
  11:CANIMU.c      **** */
  12:CANIMU.c      **** 
  13:CANIMU.c      **** 
  14:CANIMU.c      **** 
  15:CANIMU.c      **** #include "CANIMU.h"
  16:CANIMU.c      **** 
  17:CANIMU.c      **** void AssembleReadDataPacket (CANPacket *packetToAssemble,
  18:CANIMU.c      ****     uint8_t targetGroup,
  19:CANIMU.c      ****     uint8_t targetSerial,
  20:CANIMU.c      ****     uint8_t dataType)
  21:CANIMU.c      **** {
  28              		.loc 1 21 0
  29              		.cfi_startproc
  30              		@ args = 0, pretend = 0, frame = 0
  31              		@ frame_needed = 0, uses_anonymous_args = 0
  32              	.LVL0:
  33 0000 70B5     		push	{r4, r5, r6, lr}
  34              		.cfi_def_cfa_offset 16
  35              		.cfi_offset 4, -16
  36              		.cfi_offset 5, -12
ARM GAS  C:\Users\TT\AppData\Local\Temp\cc8CnhxX.s 			page 2


  37              		.cfi_offset 6, -8
  38              		.cfi_offset 14, -4
  39 0002 0400     		movs	r4, r0
  40 0004 1D00     		movs	r5, r3
  22:CANIMU.c      ****     
  23:CANIMU.c      ****     packetToAssemble->id = ConstructCANID(PACKET_PRIORITY_NORMAL, targetGroup, targetSerial);
  41              		.loc 1 23 0
  42 0006 0120     		movs	r0, #1
  43              	.LVL1:
  44 0008 FFF7FEFF 		bl	ConstructCANID
  45              	.LVL2:
  46 000c 2080     		strh	r0, [r4]
  24:CANIMU.c      ****     packetToAssemble->dlc = DLC_IMU_READ_DATA;
  47              		.loc 1 24 0
  48 000e 0223     		movs	r3, #2
  49 0010 A370     		strb	r3, [r4, #2]
  25:CANIMU.c      ****     int nextByte = WritePacketIDOnly(packetToAssemble->data, ID_IMU_READ_DATA);
  50              		.loc 1 25 0
  51 0012 E01C     		adds	r0, r4, #3
  52 0014 0121     		movs	r1, #1
  53 0016 FFF7FEFF 		bl	WritePacketIDOnly
  54              	.LVL3:
  26:CANIMU.c      ****     packetToAssemble->data[nextByte] = dataType;
  55              		.loc 1 26 0
  56 001a 2418     		adds	r4, r4, r0
  57              	.LVL4:
  58 001c E570     		strb	r5, [r4, #3]
  27:CANIMU.c      **** 
  28:CANIMU.c      ****         
  29:CANIMU.c      **** }
  59              		.loc 1 29 0
  60              		@ sp needed
  61 001e 70BD     		pop	{r4, r5, r6, pc}
  62              		.cfi_endproc
  63              	.LFE0:
  64              		.size	AssembleReadDataPacket, .-AssembleReadDataPacket
  65              		.section	.text.AssembleSendDataPacket,"ax",%progbits
  66              		.align	2
  67              		.global	AssembleSendDataPacket
  68              		.code	16
  69              		.thumb_func
  70              		.type	AssembleSendDataPacket, %function
  71              	AssembleSendDataPacket:
  72              	.LFB1:
  30:CANIMU.c      **** 
  31:CANIMU.c      **** void AssembleSendDataPacket (CANPacket *packetToAssemble,
  32:CANIMU.c      ****     uint8_t targetGroup,
  33:CANIMU.c      ****     uint8_t targetSerial,
  34:CANIMU.c      ****     uint8_t dataType,
  35:CANIMU.c      ****     int32_t data) {
  73              		.loc 1 35 0
  74              		.cfi_startproc
  75              		@ args = 4, pretend = 0, frame = 0
  76              		@ frame_needed = 0, uses_anonymous_args = 0
  77              	.LVL5:
  78 0000 70B5     		push	{r4, r5, r6, lr}
  79              		.cfi_def_cfa_offset 16
ARM GAS  C:\Users\TT\AppData\Local\Temp\cc8CnhxX.s 			page 3


  80              		.cfi_offset 4, -16
  81              		.cfi_offset 5, -12
  82              		.cfi_offset 6, -8
  83              		.cfi_offset 14, -4
  84 0002 0400     		movs	r4, r0
  85 0004 1E00     		movs	r6, r3
  36:CANIMU.c      **** 
  37:CANIMU.c      ****     packetToAssemble->id = ConstructCANID(PACKET_PRIORITY_NORMAL, targetGroup, targetSerial);
  86              		.loc 1 37 0
  87 0006 0120     		movs	r0, #1
  88              	.LVL6:
  89 0008 FFF7FEFF 		bl	ConstructCANID
  90              	.LVL7:
  91 000c 2080     		strh	r0, [r4]
  38:CANIMU.c      ****     packetToAssemble->dlc = DLC_IMU_SEND_DATA;
  92              		.loc 1 38 0
  93 000e 0523     		movs	r3, #5
  94 0010 A370     		strb	r3, [r4, #2]
  39:CANIMU.c      ****     int nextByte = WritePacketIDOnly(packetToAssemble->data, ID_IMU_SEND_DATA);
  95              		.loc 1 39 0
  96 0012 E51C     		adds	r5, r4, #3
  97 0014 0221     		movs	r1, #2
  98 0016 2800     		movs	r0, r5
  99 0018 FFF7FEFF 		bl	WritePacketIDOnly
 100              	.LVL8:
  40:CANIMU.c      ****     packetToAssemble->data[nextByte] = dataType;  
 101              		.loc 1 40 0
 102 001c 2418     		adds	r4, r4, r0
 103              	.LVL9:
 104 001e E670     		strb	r6, [r4, #3]
  41:CANIMU.c      ****     PackIntIntoDataMSBFirst(packetToAssemble->data, data, nextByte + 1);
 105              		.loc 1 41 0
 106 0020 421C     		adds	r2, r0, #1
 107 0022 0499     		ldr	r1, [sp, #16]
 108 0024 2800     		movs	r0, r5
 109              	.LVL10:
 110 0026 FFF7FEFF 		bl	PackIntIntoDataMSBFirst
 111              	.LVL11:
  42:CANIMU.c      ****         
  43:CANIMU.c      **** }
 112              		.loc 1 43 0
 113              		@ sp needed
 114              	.LVL12:
 115 002a 70BD     		pop	{r4, r5, r6, pc}
 116              		.cfi_endproc
 117              	.LFE1:
 118              		.size	AssembleSendDataPacket, .-AssembleSendDataPacket
 119              		.section	.text.GetDataTypeFromReadPacket,"ax",%progbits
 120              		.align	2
 121              		.global	GetDataTypeFromReadPacket
 122              		.code	16
 123              		.thumb_func
 124              		.type	GetDataTypeFromReadPacket, %function
 125              	GetDataTypeFromReadPacket:
 126              	.LFB2:
  44:CANIMU.c      ****     
  45:CANIMU.c      **** uint8_t GetDataTypeFromReadPacket (CANPacket *packet) {
ARM GAS  C:\Users\TT\AppData\Local\Temp\cc8CnhxX.s 			page 4


 127              		.loc 1 45 0
 128              		.cfi_startproc
 129              		@ args = 0, pretend = 0, frame = 0
 130              		@ frame_needed = 0, uses_anonymous_args = 0
 131              		@ link register save eliminated.
 132              	.LVL13:
  46:CANIMU.c      ****     
  47:CANIMU.c      ****     if (packet->data[0] != ID_IMU_READ_DATA) {
 133              		.loc 1 47 0
 134 0000 C378     		ldrb	r3, [r0, #3]
 135 0002 012B     		cmp	r3, #1
 136 0004 01D1     		bne	.L5
  48:CANIMU.c      ****      
  49:CANIMU.c      ****         return 0;
  50:CANIMU.c      ****         
  51:CANIMU.c      ****     }
  52:CANIMU.c      ****     
  53:CANIMU.c      ****     return packet->data[1];
 137              		.loc 1 53 0
 138 0006 0079     		ldrb	r0, [r0, #4]
 139              	.LVL14:
 140 0008 00E0     		b	.L4
 141              	.LVL15:
 142              	.L5:
  49:CANIMU.c      ****         
 143              		.loc 1 49 0
 144 000a 0020     		movs	r0, #0
 145              	.LVL16:
 146              	.L4:
  54:CANIMU.c      ****     
  55:CANIMU.c      **** }
 147              		.loc 1 55 0
 148              		@ sp needed
 149 000c 7047     		bx	lr
 150              		.cfi_endproc
 151              	.LFE2:
 152              		.size	GetDataTypeFromReadPacket, .-GetDataTypeFromReadPacket
 153 000e C046     		.section	.text.AssembleReadOprModePacket,"ax",%progbits
 154              		.align	2
 155              		.global	AssembleReadOprModePacket
 156              		.code	16
 157              		.thumb_func
 158              		.type	AssembleReadOprModePacket, %function
 159              	AssembleReadOprModePacket:
 160              	.LFB3:
  56:CANIMU.c      **** 
  57:CANIMU.c      **** void AssembleReadOprModePacket(CANPacket *packetToAssemble,
  58:CANIMU.c      ****     uint8_t targetGroup,
  59:CANIMU.c      ****     uint8_t targetSerial)
  60:CANIMU.c      **** {
 161              		.loc 1 60 0
 162              		.cfi_startproc
 163              		@ args = 0, pretend = 0, frame = 0
 164              		@ frame_needed = 0, uses_anonymous_args = 0
 165              	.LVL17:
 166 0000 10B5     		push	{r4, lr}
 167              		.cfi_def_cfa_offset 8
ARM GAS  C:\Users\TT\AppData\Local\Temp\cc8CnhxX.s 			page 5


 168              		.cfi_offset 4, -8
 169              		.cfi_offset 14, -4
 170 0002 0400     		movs	r4, r0
  61:CANIMU.c      **** 
  62:CANIMU.c      ****     packetToAssemble->id = ConstructCANID(PACKET_PRIORITY_NORMAL, targetGroup, targetSerial);
 171              		.loc 1 62 0
 172 0004 0120     		movs	r0, #1
 173              	.LVL18:
 174 0006 FFF7FEFF 		bl	ConstructCANID
 175              	.LVL19:
 176 000a 2080     		strh	r0, [r4]
  63:CANIMU.c      ****     packetToAssemble->dlc = DLC_IMU_READ_OPR_MODE;
 177              		.loc 1 63 0
 178 000c 0123     		movs	r3, #1
 179 000e A370     		strb	r3, [r4, #2]
  64:CANIMU.c      ****     WritePacketIDOnly(packetToAssemble->data, ID_IMU_READ_OPR_MODE);
 180              		.loc 1 64 0
 181 0010 E01C     		adds	r0, r4, #3
 182 0012 1121     		movs	r1, #17
 183 0014 FFF7FEFF 		bl	WritePacketIDOnly
 184              	.LVL20:
  65:CANIMU.c      ****     
  66:CANIMU.c      **** }
 185              		.loc 1 66 0
 186              		@ sp needed
 187              	.LVL21:
 188 0018 10BD     		pop	{r4, pc}
 189              		.cfi_endproc
 190              	.LFE3:
 191              		.size	AssembleReadOprModePacket, .-AssembleReadOprModePacket
 192 001a C046     		.section	.text.AssembleWriteOprModePacket,"ax",%progbits
 193              		.align	2
 194              		.global	AssembleWriteOprModePacket
 195              		.code	16
 196              		.thumb_func
 197              		.type	AssembleWriteOprModePacket, %function
 198              	AssembleWriteOprModePacket:
 199              	.LFB4:
  67:CANIMU.c      **** 
  68:CANIMU.c      **** void AssembleWriteOprModePacket(CANPacket *packetToAssemble,
  69:CANIMU.c      ****     uint8_t targetGroup,
  70:CANIMU.c      ****     uint8_t targetSerial,
  71:CANIMU.c      ****     uint8_t operationMode) 
  72:CANIMU.c      **** 
  73:CANIMU.c      **** {
 200              		.loc 1 73 0
 201              		.cfi_startproc
 202              		@ args = 0, pretend = 0, frame = 0
 203              		@ frame_needed = 0, uses_anonymous_args = 0
 204              	.LVL22:
 205 0000 70B5     		push	{r4, r5, r6, lr}
 206              		.cfi_def_cfa_offset 16
 207              		.cfi_offset 4, -16
 208              		.cfi_offset 5, -12
 209              		.cfi_offset 6, -8
 210              		.cfi_offset 14, -4
 211 0002 0400     		movs	r4, r0
ARM GAS  C:\Users\TT\AppData\Local\Temp\cc8CnhxX.s 			page 6


 212 0004 1D00     		movs	r5, r3
  74:CANIMU.c      ****     packetToAssemble->id = ConstructCANID(PACKET_PRIORITY_NORMAL, targetGroup, targetSerial);
 213              		.loc 1 74 0
 214 0006 0120     		movs	r0, #1
 215              	.LVL23:
 216 0008 FFF7FEFF 		bl	ConstructCANID
 217              	.LVL24:
 218 000c 2080     		strh	r0, [r4]
  75:CANIMU.c      ****     packetToAssemble->dlc = DLC_IMU_WRITE_OPR_MODE;
 219              		.loc 1 75 0
 220 000e 0223     		movs	r3, #2
 221 0010 A370     		strb	r3, [r4, #2]
  76:CANIMU.c      ****     int nextByte = WritePacketIDOnly(packetToAssemble->data, ID_IMU_WRITE_OPR_MODE);    
 222              		.loc 1 76 0
 223 0012 E01C     		adds	r0, r4, #3
 224 0014 1221     		movs	r1, #18
 225 0016 FFF7FEFF 		bl	WritePacketIDOnly
 226              	.LVL25:
  77:CANIMU.c      ****     packetToAssemble->data[nextByte] = operationMode;
 227              		.loc 1 77 0
 228 001a 2418     		adds	r4, r4, r0
 229              	.LVL26:
 230 001c E570     		strb	r5, [r4, #3]
  78:CANIMU.c      **** 
  79:CANIMU.c      **** }
 231              		.loc 1 79 0
 232              		@ sp needed
 233 001e 70BD     		pop	{r4, r5, r6, pc}
 234              		.cfi_endproc
 235              	.LFE4:
 236              		.size	AssembleWriteOprModePacket, .-AssembleWriteOprModePacket
 237              		.section	.text.AssembleSendOprModePacket,"ax",%progbits
 238              		.align	2
 239              		.global	AssembleSendOprModePacket
 240              		.code	16
 241              		.thumb_func
 242              		.type	AssembleSendOprModePacket, %function
 243              	AssembleSendOprModePacket:
 244              	.LFB5:
  80:CANIMU.c      **** 
  81:CANIMU.c      **** void AssembleSendOprModePacket(CANPacket *packetToAssemble,
  82:CANIMU.c      ****     uint8_t targetGroup,
  83:CANIMU.c      ****     uint8_t targetSerial,
  84:CANIMU.c      ****     uint8_t operationMode) 
  85:CANIMU.c      **** 
  86:CANIMU.c      **** {
 245              		.loc 1 86 0
 246              		.cfi_startproc
 247              		@ args = 0, pretend = 0, frame = 0
 248              		@ frame_needed = 0, uses_anonymous_args = 0
 249              	.LVL27:
 250 0000 70B5     		push	{r4, r5, r6, lr}
 251              		.cfi_def_cfa_offset 16
 252              		.cfi_offset 4, -16
 253              		.cfi_offset 5, -12
 254              		.cfi_offset 6, -8
 255              		.cfi_offset 14, -4
ARM GAS  C:\Users\TT\AppData\Local\Temp\cc8CnhxX.s 			page 7


 256 0002 0400     		movs	r4, r0
 257 0004 1D00     		movs	r5, r3
  87:CANIMU.c      ****     packetToAssemble->id = ConstructCANID(PACKET_PRIORITY_NORMAL, targetGroup, targetSerial);
 258              		.loc 1 87 0
 259 0006 0120     		movs	r0, #1
 260              	.LVL28:
 261 0008 FFF7FEFF 		bl	ConstructCANID
 262              	.LVL29:
 263 000c 2080     		strh	r0, [r4]
  88:CANIMU.c      ****     packetToAssemble->dlc = DLC_IMU_SEND_OPR_MODE;
 264              		.loc 1 88 0
 265 000e 0223     		movs	r3, #2
 266 0010 A370     		strb	r3, [r4, #2]
  89:CANIMU.c      ****     int nextByte = WritePacketIDOnly(packetToAssemble->data, ID_IMU_SEND_OPR_MODE);    
 267              		.loc 1 89 0
 268 0012 E01C     		adds	r0, r4, #3
 269 0014 1321     		movs	r1, #19
 270 0016 FFF7FEFF 		bl	WritePacketIDOnly
 271              	.LVL30:
  90:CANIMU.c      ****     packetToAssemble->data[nextByte] = operationMode;
 272              		.loc 1 90 0
 273 001a 2418     		adds	r4, r4, r0
 274              	.LVL31:
 275 001c E570     		strb	r5, [r4, #3]
  91:CANIMU.c      **** 
  92:CANIMU.c      **** }
 276              		.loc 1 92 0
 277              		@ sp needed
 278 001e 70BD     		pop	{r4, r5, r6, pc}
 279              		.cfi_endproc
 280              	.LFE5:
 281              		.size	AssembleSendOprModePacket, .-AssembleSendOprModePacket
 282              		.section	.text.GetOprModeFromPacket,"ax",%progbits
 283              		.align	2
 284              		.global	GetOprModeFromPacket
 285              		.code	16
 286              		.thumb_func
 287              		.type	GetOprModeFromPacket, %function
 288              	GetOprModeFromPacket:
 289              	.LFB6:
  93:CANIMU.c      **** 
  94:CANIMU.c      **** uint8_t GetOprModeFromPacket(CANPacket *packet) {
 290              		.loc 1 94 0
 291              		.cfi_startproc
 292              		@ args = 0, pretend = 0, frame = 0
 293              		@ frame_needed = 0, uses_anonymous_args = 0
 294              		@ link register save eliminated.
 295              	.LVL32:
  95:CANIMU.c      ****  
  96:CANIMU.c      ****     if (packet->data[0] != ID_IMU_READ_OPR_MODE) {
 296              		.loc 1 96 0
 297 0000 C378     		ldrb	r3, [r0, #3]
 298 0002 112B     		cmp	r3, #17
 299 0004 01D1     		bne	.L11
  97:CANIMU.c      ****         
  98:CANIMU.c      ****         return 0;
  99:CANIMU.c      ****         
ARM GAS  C:\Users\TT\AppData\Local\Temp\cc8CnhxX.s 			page 8


 100:CANIMU.c      ****     }
 101:CANIMU.c      ****     
 102:CANIMU.c      ****     return packet->data[1];
 300              		.loc 1 102 0
 301 0006 0079     		ldrb	r0, [r0, #4]
 302              	.LVL33:
 303 0008 00E0     		b	.L10
 304              	.LVL34:
 305              	.L11:
  98:CANIMU.c      ****         
 306              		.loc 1 98 0
 307 000a 0020     		movs	r0, #0
 308              	.LVL35:
 309              	.L10:
 103:CANIMU.c      ****     
 104:CANIMU.c      **** }
 310              		.loc 1 104 0
 311              		@ sp needed
 312 000c 7047     		bx	lr
 313              		.cfi_endproc
 314              	.LFE6:
 315              		.size	GetOprModeFromPacket, .-GetOprModeFromPacket
 316 000e C046     		.section	.text.AssembleQueryCalibStatPacket,"ax",%progbits
 317              		.align	2
 318              		.global	AssembleQueryCalibStatPacket
 319              		.code	16
 320              		.thumb_func
 321              		.type	AssembleQueryCalibStatPacket, %function
 322              	AssembleQueryCalibStatPacket:
 323              	.LFB7:
 105:CANIMU.c      **** 
 106:CANIMU.c      **** void AssembleQueryCalibStatPacket(CANPacket *packetToAssemble,
 107:CANIMU.c      ****     uint8_t targetGroup,
 108:CANIMU.c      ****     uint8_t targetSerial)
 109:CANIMU.c      **** {
 324              		.loc 1 109 0
 325              		.cfi_startproc
 326              		@ args = 0, pretend = 0, frame = 0
 327              		@ frame_needed = 0, uses_anonymous_args = 0
 328              	.LVL36:
 329 0000 10B5     		push	{r4, lr}
 330              		.cfi_def_cfa_offset 8
 331              		.cfi_offset 4, -8
 332              		.cfi_offset 14, -4
 333 0002 0400     		movs	r4, r0
 110:CANIMU.c      **** 
 111:CANIMU.c      ****     packetToAssemble->id = ConstructCANID(PACKET_PRIORITY_NORMAL, targetGroup, targetSerial);
 334              		.loc 1 111 0
 335 0004 0120     		movs	r0, #1
 336              	.LVL37:
 337 0006 FFF7FEFF 		bl	ConstructCANID
 338              	.LVL38:
 339 000a 2080     		strh	r0, [r4]
 112:CANIMU.c      ****     packetToAssemble->dlc = DLC_IMU_QUERY_CALIB_STAT;
 340              		.loc 1 112 0
 341 000c 0123     		movs	r3, #1
 342 000e A370     		strb	r3, [r4, #2]
ARM GAS  C:\Users\TT\AppData\Local\Temp\cc8CnhxX.s 			page 9


 113:CANIMU.c      ****     WritePacketIDOnly(packetToAssemble->data, ID_IMU_QUERY_CALIB_STAT);
 343              		.loc 1 113 0
 344 0010 E01C     		adds	r0, r4, #3
 345 0012 1421     		movs	r1, #20
 346 0014 FFF7FEFF 		bl	WritePacketIDOnly
 347              	.LVL39:
 114:CANIMU.c      **** 
 115:CANIMU.c      **** }
 348              		.loc 1 115 0
 349              		@ sp needed
 350              	.LVL40:
 351 0018 10BD     		pop	{r4, pc}
 352              		.cfi_endproc
 353              	.LFE7:
 354              		.size	AssembleQueryCalibStatPacket, .-AssembleQueryCalibStatPacket
 355 001a C046     		.section	.text.AssembleSendCalibStatPacket,"ax",%progbits
 356              		.align	2
 357              		.global	AssembleSendCalibStatPacket
 358              		.code	16
 359              		.thumb_func
 360              		.type	AssembleSendCalibStatPacket, %function
 361              	AssembleSendCalibStatPacket:
 362              	.LFB8:
 116:CANIMU.c      **** 
 117:CANIMU.c      **** void AssembleSendCalibStatPacket(CANPacket *packetToAssemble,
 118:CANIMU.c      ****     uint8_t targetGroup,
 119:CANIMU.c      ****     uint8_t targetSerial,
 120:CANIMU.c      ****     uint8_t calibStat) 
 121:CANIMU.c      **** {
 363              		.loc 1 121 0
 364              		.cfi_startproc
 365              		@ args = 0, pretend = 0, frame = 0
 366              		@ frame_needed = 0, uses_anonymous_args = 0
 367              	.LVL41:
 368 0000 70B5     		push	{r4, r5, r6, lr}
 369              		.cfi_def_cfa_offset 16
 370              		.cfi_offset 4, -16
 371              		.cfi_offset 5, -12
 372              		.cfi_offset 6, -8
 373              		.cfi_offset 14, -4
 374 0002 0400     		movs	r4, r0
 375 0004 1D00     		movs	r5, r3
 122:CANIMU.c      ****     packetToAssemble->id = ConstructCANID(PACKET_PRIORITY_NORMAL, targetGroup, targetSerial);
 376              		.loc 1 122 0
 377 0006 0120     		movs	r0, #1
 378              	.LVL42:
 379 0008 FFF7FEFF 		bl	ConstructCANID
 380              	.LVL43:
 381 000c 2080     		strh	r0, [r4]
 123:CANIMU.c      ****     packetToAssemble->dlc = DLC_IMU_SEND_CALIB_STAT;
 382              		.loc 1 123 0
 383 000e 0223     		movs	r3, #2
 384 0010 A370     		strb	r3, [r4, #2]
 124:CANIMU.c      ****     int nextByte = WritePacketIDOnly(packetToAssemble->data, ID_IMU_SEND_CALIB_STAT);
 385              		.loc 1 124 0
 386 0012 E01C     		adds	r0, r4, #3
 387 0014 1521     		movs	r1, #21
ARM GAS  C:\Users\TT\AppData\Local\Temp\cc8CnhxX.s 			page 10


 388 0016 FFF7FEFF 		bl	WritePacketIDOnly
 389              	.LVL44:
 125:CANIMU.c      ****     packetToAssemble->data[1] = calibStat;
 390              		.loc 1 125 0
 391 001a 2571     		strb	r5, [r4, #4]
 126:CANIMU.c      ****         
 127:CANIMU.c      **** }
 392              		.loc 1 127 0
 393              		@ sp needed
 394              	.LVL45:
 395 001c 70BD     		pop	{r4, r5, r6, pc}
 396              		.cfi_endproc
 397              	.LFE8:
 398              		.size	AssembleSendCalibStatPacket, .-AssembleSendCalibStatPacket
 399 001e C046     		.section	.text.GetCalibStatFromPacket,"ax",%progbits
 400              		.align	2
 401              		.global	GetCalibStatFromPacket
 402              		.code	16
 403              		.thumb_func
 404              		.type	GetCalibStatFromPacket, %function
 405              	GetCalibStatFromPacket:
 406              	.LFB9:
 128:CANIMU.c      **** 
 129:CANIMU.c      **** uint8_t GetCalibStatFromPacket (CANPacket *packet)
 130:CANIMU.c      **** {
 407              		.loc 1 130 0
 408              		.cfi_startproc
 409              		@ args = 0, pretend = 0, frame = 0
 410              		@ frame_needed = 0, uses_anonymous_args = 0
 411              		@ link register save eliminated.
 412              	.LVL46:
 131:CANIMU.c      **** 
 132:CANIMU.c      ****     if (packet->data[0] != ID_IMU_QUERY_CALIB_STAT) {
 413              		.loc 1 132 0
 414 0000 C378     		ldrb	r3, [r0, #3]
 415 0002 142B     		cmp	r3, #20
 416 0004 01D1     		bne	.L16
 133:CANIMU.c      ****      
 134:CANIMU.c      ****         return 0;
 135:CANIMU.c      ****         
 136:CANIMU.c      ****     }
 137:CANIMU.c      ****     
 138:CANIMU.c      ****     return packet->data[1];
 417              		.loc 1 138 0
 418 0006 0079     		ldrb	r0, [r0, #4]
 419              	.LVL47:
 420 0008 00E0     		b	.L15
 421              	.LVL48:
 422              	.L16:
 134:CANIMU.c      ****         
 423              		.loc 1 134 0
 424 000a 0020     		movs	r0, #0
 425              	.LVL49:
 426              	.L15:
 139:CANIMU.c      ****     
 140:CANIMU.c      **** }
 427              		.loc 1 140 0
ARM GAS  C:\Users\TT\AppData\Local\Temp\cc8CnhxX.s 			page 11


 428              		@ sp needed
 429 000c 7047     		bx	lr
 430              		.cfi_endproc
 431              	.LFE9:
 432              		.size	GetCalibStatFromPacket, .-GetCalibStatFromPacket
 433 000e C046     		.section	.text.AssembleReadAccOffsetPacket,"ax",%progbits
 434              		.align	2
 435              		.global	AssembleReadAccOffsetPacket
 436              		.code	16
 437              		.thumb_func
 438              		.type	AssembleReadAccOffsetPacket, %function
 439              	AssembleReadAccOffsetPacket:
 440              	.LFB10:
 141:CANIMU.c      **** 
 142:CANIMU.c      **** void AssembleReadAccOffsetPacket(CANPacket *packetToAssemble,
 143:CANIMU.c      ****     uint8_t targetGroup,
 144:CANIMU.c      ****     uint8_t targetSerial)
 145:CANIMU.c      **** {
 441              		.loc 1 145 0
 442              		.cfi_startproc
 443              		@ args = 0, pretend = 0, frame = 0
 444              		@ frame_needed = 0, uses_anonymous_args = 0
 445              	.LVL50:
 446 0000 10B5     		push	{r4, lr}
 447              		.cfi_def_cfa_offset 8
 448              		.cfi_offset 4, -8
 449              		.cfi_offset 14, -4
 450 0002 0400     		movs	r4, r0
 146:CANIMU.c      ****  
 147:CANIMU.c      ****     packetToAssemble->id = ConstructCANID(PACKET_PRIORITY_NORMAL, targetGroup, targetSerial);
 451              		.loc 1 147 0
 452 0004 0120     		movs	r0, #1
 453              	.LVL51:
 454 0006 FFF7FEFF 		bl	ConstructCANID
 455              	.LVL52:
 456 000a 2080     		strh	r0, [r4]
 148:CANIMU.c      ****     packetToAssemble->dlc = DLC_IMU_READ_ACC_OFFSET;
 457              		.loc 1 148 0
 458 000c 0123     		movs	r3, #1
 459 000e A370     		strb	r3, [r4, #2]
 149:CANIMU.c      ****     WritePacketIDOnly(packetToAssemble->data, ID_IMU_READ_ACC_OFFSET);
 460              		.loc 1 149 0
 461 0010 E01C     		adds	r0, r4, #3
 462 0012 2121     		movs	r1, #33
 463 0014 FFF7FEFF 		bl	WritePacketIDOnly
 464              	.LVL53:
 150:CANIMU.c      ****     
 151:CANIMU.c      **** }
 465              		.loc 1 151 0
 466              		@ sp needed
 467              	.LVL54:
 468 0018 10BD     		pop	{r4, pc}
 469              		.cfi_endproc
 470              	.LFE10:
 471              		.size	AssembleReadAccOffsetPacket, .-AssembleReadAccOffsetPacket
 472 001a C046     		.section	.text.AssembleReadMagOffsetPacket,"ax",%progbits
 473              		.align	2
ARM GAS  C:\Users\TT\AppData\Local\Temp\cc8CnhxX.s 			page 12


 474              		.global	AssembleReadMagOffsetPacket
 475              		.code	16
 476              		.thumb_func
 477              		.type	AssembleReadMagOffsetPacket, %function
 478              	AssembleReadMagOffsetPacket:
 479              	.LFB11:
 152:CANIMU.c      **** 
 153:CANIMU.c      **** void AssembleReadMagOffsetPacket(CANPacket *packetToAssemble,
 154:CANIMU.c      ****     uint8_t targetGroup,
 155:CANIMU.c      ****     uint8_t targetSerial)
 156:CANIMU.c      **** {
 480              		.loc 1 156 0
 481              		.cfi_startproc
 482              		@ args = 0, pretend = 0, frame = 0
 483              		@ frame_needed = 0, uses_anonymous_args = 0
 484              	.LVL55:
 485 0000 10B5     		push	{r4, lr}
 486              		.cfi_def_cfa_offset 8
 487              		.cfi_offset 4, -8
 488              		.cfi_offset 14, -4
 489 0002 0400     		movs	r4, r0
 157:CANIMU.c      **** 
 158:CANIMU.c      ****     packetToAssemble->id = ConstructCANID(PACKET_PRIORITY_NORMAL, targetGroup, targetSerial);
 490              		.loc 1 158 0
 491 0004 0120     		movs	r0, #1
 492              	.LVL56:
 493 0006 FFF7FEFF 		bl	ConstructCANID
 494              	.LVL57:
 495 000a 2080     		strh	r0, [r4]
 159:CANIMU.c      ****     packetToAssemble->dlc = DLC_IMU_READ_MAG_OFFSET;
 496              		.loc 1 159 0
 497 000c 0123     		movs	r3, #1
 498 000e A370     		strb	r3, [r4, #2]
 160:CANIMU.c      ****     WritePacketIDOnly(packetToAssemble->data, ID_IMU_READ_MAG_OFFSET);
 499              		.loc 1 160 0
 500 0010 E01C     		adds	r0, r4, #3
 501 0012 2221     		movs	r1, #34
 502 0014 FFF7FEFF 		bl	WritePacketIDOnly
 503              	.LVL58:
 161:CANIMU.c      ****     
 162:CANIMU.c      **** }
 504              		.loc 1 162 0
 505              		@ sp needed
 506              	.LVL59:
 507 0018 10BD     		pop	{r4, pc}
 508              		.cfi_endproc
 509              	.LFE11:
 510              		.size	AssembleReadMagOffsetPacket, .-AssembleReadMagOffsetPacket
 511 001a C046     		.section	.text.AssembleReadGyroOffsetPacket,"ax",%progbits
 512              		.align	2
 513              		.global	AssembleReadGyroOffsetPacket
 514              		.code	16
 515              		.thumb_func
 516              		.type	AssembleReadGyroOffsetPacket, %function
 517              	AssembleReadGyroOffsetPacket:
 518              	.LFB12:
 163:CANIMU.c      **** 
ARM GAS  C:\Users\TT\AppData\Local\Temp\cc8CnhxX.s 			page 13


 164:CANIMU.c      **** void AssembleReadGyroOffsetPacket(CANPacket *packetToAssemble,
 165:CANIMU.c      ****     uint8_t targetGroup,
 166:CANIMU.c      ****     uint8_t targetSerial)
 167:CANIMU.c      **** {
 519              		.loc 1 167 0
 520              		.cfi_startproc
 521              		@ args = 0, pretend = 0, frame = 0
 522              		@ frame_needed = 0, uses_anonymous_args = 0
 523              	.LVL60:
 524 0000 10B5     		push	{r4, lr}
 525              		.cfi_def_cfa_offset 8
 526              		.cfi_offset 4, -8
 527              		.cfi_offset 14, -4
 528 0002 0400     		movs	r4, r0
 168:CANIMU.c      ****     
 169:CANIMU.c      ****     packetToAssemble->id = ConstructCANID(PACKET_PRIORITY_NORMAL, targetGroup, targetSerial);
 529              		.loc 1 169 0
 530 0004 0120     		movs	r0, #1
 531              	.LVL61:
 532 0006 FFF7FEFF 		bl	ConstructCANID
 533              	.LVL62:
 534 000a 2080     		strh	r0, [r4]
 170:CANIMU.c      ****     packetToAssemble->dlc = DLC_IMU_READ_GYRO_OFFSET;
 535              		.loc 1 170 0
 536 000c 0123     		movs	r3, #1
 537 000e A370     		strb	r3, [r4, #2]
 171:CANIMU.c      ****     WritePacketIDOnly(packetToAssemble->data, ID_IMU_READ_GYRO_OFFSET);
 538              		.loc 1 171 0
 539 0010 E01C     		adds	r0, r4, #3
 540 0012 2321     		movs	r1, #35
 541 0014 FFF7FEFF 		bl	WritePacketIDOnly
 542              	.LVL63:
 172:CANIMU.c      ****     
 173:CANIMU.c      **** }
 543              		.loc 1 173 0
 544              		@ sp needed
 545              	.LVL64:
 546 0018 10BD     		pop	{r4, pc}
 547              		.cfi_endproc
 548              	.LFE12:
 549              		.size	AssembleReadGyroOffsetPacket, .-AssembleReadGyroOffsetPacket
 550 001a C046     		.section	.text.AssembleReadRadiusOffsetPacket,"ax",%progbits
 551              		.align	2
 552              		.global	AssembleReadRadiusOffsetPacket
 553              		.code	16
 554              		.thumb_func
 555              		.type	AssembleReadRadiusOffsetPacket, %function
 556              	AssembleReadRadiusOffsetPacket:
 557              	.LFB13:
 174:CANIMU.c      **** 
 175:CANIMU.c      **** void AssembleReadRadiusOffsetPacket(CANPacket *packetToAssemble,
 176:CANIMU.c      ****     uint8_t targetGroup,
 177:CANIMU.c      ****     uint8_t targetSerial)
 178:CANIMU.c      **** 
 179:CANIMU.c      **** {
 558              		.loc 1 179 0
 559              		.cfi_startproc
ARM GAS  C:\Users\TT\AppData\Local\Temp\cc8CnhxX.s 			page 14


 560              		@ args = 0, pretend = 0, frame = 0
 561              		@ frame_needed = 0, uses_anonymous_args = 0
 562              	.LVL65:
 563 0000 10B5     		push	{r4, lr}
 564              		.cfi_def_cfa_offset 8
 565              		.cfi_offset 4, -8
 566              		.cfi_offset 14, -4
 567 0002 0400     		movs	r4, r0
 180:CANIMU.c      ****     
 181:CANIMU.c      ****     packetToAssemble->id = ConstructCANID(PACKET_PRIORITY_NORMAL, targetGroup, targetSerial);
 568              		.loc 1 181 0
 569 0004 0120     		movs	r0, #1
 570              	.LVL66:
 571 0006 FFF7FEFF 		bl	ConstructCANID
 572              	.LVL67:
 573 000a 2080     		strh	r0, [r4]
 182:CANIMU.c      ****     packetToAssemble->dlc = DLC_IMU_READ_RADIUS_OFFSET;
 574              		.loc 1 182 0
 575 000c 0123     		movs	r3, #1
 576 000e A370     		strb	r3, [r4, #2]
 183:CANIMU.c      ****     WritePacketIDOnly(packetToAssemble->data, ID_IMU_READ_RADIUS_OFFSET);
 577              		.loc 1 183 0
 578 0010 E01C     		adds	r0, r4, #3
 579 0012 2421     		movs	r1, #36
 580 0014 FFF7FEFF 		bl	WritePacketIDOnly
 581              	.LVL68:
 184:CANIMU.c      ****     
 185:CANIMU.c      **** }
 582              		.loc 1 185 0
 583              		@ sp needed
 584              	.LVL69:
 585 0018 10BD     		pop	{r4, pc}
 586              		.cfi_endproc
 587              	.LFE13:
 588              		.size	AssembleReadRadiusOffsetPacket, .-AssembleReadRadiusOffsetPacket
 589 001a C046     		.section	.text.AssembleWriteAccOffsetPacket,"ax",%progbits
 590              		.align	2
 591              		.global	AssembleWriteAccOffsetPacket
 592              		.code	16
 593              		.thumb_func
 594              		.type	AssembleWriteAccOffsetPacket, %function
 595              	AssembleWriteAccOffsetPacket:
 596              	.LFB14:
 186:CANIMU.c      **** 
 187:CANIMU.c      **** void AssembleWriteAccOffsetPacket(CANPacket *packetToAssemble,
 188:CANIMU.c      ****     uint8_t targetGroup,
 189:CANIMU.c      ****     uint8_t targetSerial,
 190:CANIMU.c      ****     int16_t xOffset,
 191:CANIMU.c      ****     int16_t yOffset,
 192:CANIMU.c      ****     int16_t zOffset)
 193:CANIMU.c      **** {
 597              		.loc 1 193 0
 598              		.cfi_startproc
 599              		@ args = 8, pretend = 0, frame = 8
 600              		@ frame_needed = 0, uses_anonymous_args = 0
 601              	.LVL70:
 602 0000 F0B5     		push	{r4, r5, r6, r7, lr}
ARM GAS  C:\Users\TT\AppData\Local\Temp\cc8CnhxX.s 			page 15


 603              		.cfi_def_cfa_offset 20
 604              		.cfi_offset 4, -20
 605              		.cfi_offset 5, -16
 606              		.cfi_offset 6, -12
 607              		.cfi_offset 7, -8
 608              		.cfi_offset 14, -4
 609 0002 83B0     		sub	sp, sp, #12
 610              		.cfi_def_cfa_offset 32
 611 0004 0400     		movs	r4, r0
 612 0006 0193     		str	r3, [sp, #4]
 613 0008 08AB     		add	r3, sp, #32
 614              	.LVL71:
 615 000a 0020     		movs	r0, #0
 616 000c 1E5E     		ldrsh	r6, [r3, r0]
 617              	.LVL72:
 618 000e 09AB     		add	r3, sp, #36
 619              	.LVL73:
 620 0010 0020     		movs	r0, #0
 621 0012 1F5E     		ldrsh	r7, [r3, r0]
 194:CANIMU.c      ****     
 195:CANIMU.c      ****     packetToAssemble->id = ConstructCANID(PACKET_PRIORITY_NORMAL, targetGroup, targetSerial);
 622              		.loc 1 195 0
 623 0014 0120     		movs	r0, #1
 624 0016 FFF7FEFF 		bl	ConstructCANID
 625              	.LVL74:
 626 001a 2080     		strh	r0, [r4]
 196:CANIMU.c      ****     packetToAssemble->dlc = DLC_IMU_WRITE_ACC_OFFSET;
 627              		.loc 1 196 0
 628 001c 0723     		movs	r3, #7
 629 001e A370     		strb	r3, [r4, #2]
 197:CANIMU.c      ****     int nextByte = WritePacketIDOnly(packetToAssemble->data, ID_IMU_WRITE_ACC_OFFSET);
 630              		.loc 1 197 0
 631 0020 0334     		adds	r4, r4, #3
 632              	.LVL75:
 633 0022 2521     		movs	r1, #37
 634 0024 2000     		movs	r0, r4
 635 0026 FFF7FEFF 		bl	WritePacketIDOnly
 636              	.LVL76:
 637 002a 0500     		movs	r5, r0
 638              	.LVL77:
 198:CANIMU.c      ****     PackShortIntoDataMSBFirst(packetToAssemble->data, xOffset, nextByte);
 639              		.loc 1 198 0
 640 002c 0200     		movs	r2, r0
 641 002e 0199     		ldr	r1, [sp, #4]
 642 0030 2000     		movs	r0, r4
 643              	.LVL78:
 644 0032 FFF7FEFF 		bl	PackShortIntoDataMSBFirst
 645              	.LVL79:
 199:CANIMU.c      ****     PackShortIntoDataMSBFirst(packetToAssemble->data, yOffset, nextByte + 2);
 646              		.loc 1 199 0
 647 0036 AA1C     		adds	r2, r5, #2
 648 0038 3100     		movs	r1, r6
 649 003a 2000     		movs	r0, r4
 650 003c FFF7FEFF 		bl	PackShortIntoDataMSBFirst
 651              	.LVL80:
 200:CANIMU.c      ****     PackShortIntoDataMSBFirst(packetToAssemble->data, zOffset, nextByte + 4);
 652              		.loc 1 200 0
ARM GAS  C:\Users\TT\AppData\Local\Temp\cc8CnhxX.s 			page 16


 653 0040 2A1D     		adds	r2, r5, #4
 654 0042 3900     		movs	r1, r7
 655 0044 2000     		movs	r0, r4
 656 0046 FFF7FEFF 		bl	PackShortIntoDataMSBFirst
 657              	.LVL81:
 201:CANIMU.c      ****     
 202:CANIMU.c      **** }
 658              		.loc 1 202 0
 659 004a 03B0     		add	sp, sp, #12
 660              		@ sp needed
 661              	.LVL82:
 662              	.LVL83:
 663 004c F0BD     		pop	{r4, r5, r6, r7, pc}
 664              		.cfi_endproc
 665              	.LFE14:
 666              		.size	AssembleWriteAccOffsetPacket, .-AssembleWriteAccOffsetPacket
 667 004e C046     		.section	.text.AssembleWriteMagOffsetPacket,"ax",%progbits
 668              		.align	2
 669              		.global	AssembleWriteMagOffsetPacket
 670              		.code	16
 671              		.thumb_func
 672              		.type	AssembleWriteMagOffsetPacket, %function
 673              	AssembleWriteMagOffsetPacket:
 674              	.LFB15:
 203:CANIMU.c      **** 
 204:CANIMU.c      **** void AssembleWriteMagOffsetPacket(CANPacket *packetToAssemble,
 205:CANIMU.c      ****     uint8_t targetGroup,
 206:CANIMU.c      ****     uint8_t targetSerial,
 207:CANIMU.c      ****     int16_t xOffset,
 208:CANIMU.c      ****     int16_t yOffset,
 209:CANIMU.c      ****     int16_t zOffset)
 210:CANIMU.c      **** {
 675              		.loc 1 210 0
 676              		.cfi_startproc
 677              		@ args = 8, pretend = 0, frame = 8
 678              		@ frame_needed = 0, uses_anonymous_args = 0
 679              	.LVL84:
 680 0000 F0B5     		push	{r4, r5, r6, r7, lr}
 681              		.cfi_def_cfa_offset 20
 682              		.cfi_offset 4, -20
 683              		.cfi_offset 5, -16
 684              		.cfi_offset 6, -12
 685              		.cfi_offset 7, -8
 686              		.cfi_offset 14, -4
 687 0002 83B0     		sub	sp, sp, #12
 688              		.cfi_def_cfa_offset 32
 689 0004 0400     		movs	r4, r0
 690 0006 0193     		str	r3, [sp, #4]
 691 0008 08AB     		add	r3, sp, #32
 692              	.LVL85:
 693 000a 0020     		movs	r0, #0
 694 000c 1E5E     		ldrsh	r6, [r3, r0]
 695              	.LVL86:
 696 000e 09AB     		add	r3, sp, #36
 697              	.LVL87:
 698 0010 0020     		movs	r0, #0
 699 0012 1F5E     		ldrsh	r7, [r3, r0]
ARM GAS  C:\Users\TT\AppData\Local\Temp\cc8CnhxX.s 			page 17


 211:CANIMU.c      ****     
 212:CANIMU.c      ****     packetToAssemble->id = ConstructCANID(PACKET_PRIORITY_NORMAL, targetGroup, targetSerial);
 700              		.loc 1 212 0
 701 0014 0120     		movs	r0, #1
 702 0016 FFF7FEFF 		bl	ConstructCANID
 703              	.LVL88:
 704 001a 2080     		strh	r0, [r4]
 213:CANIMU.c      ****     packetToAssemble->dlc = DLC_IMU_WRITE_MAG_OFFSET;
 705              		.loc 1 213 0
 706 001c 0723     		movs	r3, #7
 707 001e A370     		strb	r3, [r4, #2]
 214:CANIMU.c      ****     int nextByte = WritePacketIDOnly(packetToAssemble->data, ID_IMU_WRITE_MAG_OFFSET);
 708              		.loc 1 214 0
 709 0020 0334     		adds	r4, r4, #3
 710              	.LVL89:
 711 0022 2621     		movs	r1, #38
 712 0024 2000     		movs	r0, r4
 713 0026 FFF7FEFF 		bl	WritePacketIDOnly
 714              	.LVL90:
 715 002a 0500     		movs	r5, r0
 716              	.LVL91:
 215:CANIMU.c      ****     PackShortIntoDataMSBFirst(packetToAssemble->data, xOffset, nextByte);
 717              		.loc 1 215 0
 718 002c 0200     		movs	r2, r0
 719 002e 0199     		ldr	r1, [sp, #4]
 720 0030 2000     		movs	r0, r4
 721              	.LVL92:
 722 0032 FFF7FEFF 		bl	PackShortIntoDataMSBFirst
 723              	.LVL93:
 216:CANIMU.c      ****     PackShortIntoDataMSBFirst(packetToAssemble->data, yOffset, nextByte + 2);
 724              		.loc 1 216 0
 725 0036 AA1C     		adds	r2, r5, #2
 726 0038 3100     		movs	r1, r6
 727 003a 2000     		movs	r0, r4
 728 003c FFF7FEFF 		bl	PackShortIntoDataMSBFirst
 729              	.LVL94:
 217:CANIMU.c      ****     PackShortIntoDataMSBFirst(packetToAssemble->data, zOffset, nextByte + 4);
 730              		.loc 1 217 0
 731 0040 2A1D     		adds	r2, r5, #4
 732 0042 3900     		movs	r1, r7
 733 0044 2000     		movs	r0, r4
 734 0046 FFF7FEFF 		bl	PackShortIntoDataMSBFirst
 735              	.LVL95:
 218:CANIMU.c      ****     
 219:CANIMU.c      **** }
 736              		.loc 1 219 0
 737 004a 03B0     		add	sp, sp, #12
 738              		@ sp needed
 739              	.LVL96:
 740              	.LVL97:
 741 004c F0BD     		pop	{r4, r5, r6, r7, pc}
 742              		.cfi_endproc
 743              	.LFE15:
 744              		.size	AssembleWriteMagOffsetPacket, .-AssembleWriteMagOffsetPacket
 745 004e C046     		.section	.text.AssembleWriteGyroOffsetPacket,"ax",%progbits
 746              		.align	2
 747              		.global	AssembleWriteGyroOffsetPacket
ARM GAS  C:\Users\TT\AppData\Local\Temp\cc8CnhxX.s 			page 18


 748              		.code	16
 749              		.thumb_func
 750              		.type	AssembleWriteGyroOffsetPacket, %function
 751              	AssembleWriteGyroOffsetPacket:
 752              	.LFB16:
 220:CANIMU.c      **** 
 221:CANIMU.c      **** void AssembleWriteGyroOffsetPacket(CANPacket *packetToAssemble,
 222:CANIMU.c      ****     uint8_t targetGroup,
 223:CANIMU.c      ****     uint8_t targetSerial,
 224:CANIMU.c      ****     int16_t xOffset,
 225:CANIMU.c      ****     int16_t yOffset,
 226:CANIMU.c      ****     int16_t zOffset)
 227:CANIMU.c      **** {
 753              		.loc 1 227 0
 754              		.cfi_startproc
 755              		@ args = 8, pretend = 0, frame = 8
 756              		@ frame_needed = 0, uses_anonymous_args = 0
 757              	.LVL98:
 758 0000 F0B5     		push	{r4, r5, r6, r7, lr}
 759              		.cfi_def_cfa_offset 20
 760              		.cfi_offset 4, -20
 761              		.cfi_offset 5, -16
 762              		.cfi_offset 6, -12
 763              		.cfi_offset 7, -8
 764              		.cfi_offset 14, -4
 765 0002 83B0     		sub	sp, sp, #12
 766              		.cfi_def_cfa_offset 32
 767 0004 0400     		movs	r4, r0
 768 0006 0193     		str	r3, [sp, #4]
 769 0008 08AB     		add	r3, sp, #32
 770              	.LVL99:
 771 000a 0020     		movs	r0, #0
 772 000c 1E5E     		ldrsh	r6, [r3, r0]
 773              	.LVL100:
 774 000e 09AB     		add	r3, sp, #36
 775              	.LVL101:
 776 0010 0020     		movs	r0, #0
 777 0012 1F5E     		ldrsh	r7, [r3, r0]
 228:CANIMU.c      ****     
 229:CANIMU.c      ****     packetToAssemble->id = ConstructCANID(PACKET_PRIORITY_NORMAL, targetGroup, targetSerial);
 778              		.loc 1 229 0
 779 0014 0120     		movs	r0, #1
 780 0016 FFF7FEFF 		bl	ConstructCANID
 781              	.LVL102:
 782 001a 2080     		strh	r0, [r4]
 230:CANIMU.c      ****     packetToAssemble->dlc = DLC_IMU_WRITE_GYRO_OFFSET;
 783              		.loc 1 230 0
 784 001c 0723     		movs	r3, #7
 785 001e A370     		strb	r3, [r4, #2]
 231:CANIMU.c      ****     int nextByte = WritePacketIDOnly(packetToAssemble->data, ID_IMU_WRITE_GYRO_OFFSET);
 786              		.loc 1 231 0
 787 0020 0334     		adds	r4, r4, #3
 788              	.LVL103:
 789 0022 2721     		movs	r1, #39
 790 0024 2000     		movs	r0, r4
 791 0026 FFF7FEFF 		bl	WritePacketIDOnly
 792              	.LVL104:
ARM GAS  C:\Users\TT\AppData\Local\Temp\cc8CnhxX.s 			page 19


 793 002a 0500     		movs	r5, r0
 794              	.LVL105:
 232:CANIMU.c      ****     PackShortIntoDataMSBFirst(packetToAssemble->data, xOffset, nextByte);
 795              		.loc 1 232 0
 796 002c 0200     		movs	r2, r0
 797 002e 0199     		ldr	r1, [sp, #4]
 798 0030 2000     		movs	r0, r4
 799              	.LVL106:
 800 0032 FFF7FEFF 		bl	PackShortIntoDataMSBFirst
 801              	.LVL107:
 233:CANIMU.c      ****     PackShortIntoDataMSBFirst(packetToAssemble->data, yOffset, nextByte + 2);
 802              		.loc 1 233 0
 803 0036 AA1C     		adds	r2, r5, #2
 804 0038 3100     		movs	r1, r6
 805 003a 2000     		movs	r0, r4
 806 003c FFF7FEFF 		bl	PackShortIntoDataMSBFirst
 807              	.LVL108:
 234:CANIMU.c      ****     PackShortIntoDataMSBFirst(packetToAssemble->data, zOffset, nextByte + 4);
 808              		.loc 1 234 0
 809 0040 2A1D     		adds	r2, r5, #4
 810 0042 3900     		movs	r1, r7
 811 0044 2000     		movs	r0, r4
 812 0046 FFF7FEFF 		bl	PackShortIntoDataMSBFirst
 813              	.LVL109:
 235:CANIMU.c      ****     
 236:CANIMU.c      **** }
 814              		.loc 1 236 0
 815 004a 03B0     		add	sp, sp, #12
 816              		@ sp needed
 817              	.LVL110:
 818              	.LVL111:
 819 004c F0BD     		pop	{r4, r5, r6, r7, pc}
 820              		.cfi_endproc
 821              	.LFE16:
 822              		.size	AssembleWriteGyroOffsetPacket, .-AssembleWriteGyroOffsetPacket
 823 004e C046     		.section	.text.AssembleWriteRadiusOffsetPacket,"ax",%progbits
 824              		.align	2
 825              		.global	AssembleWriteRadiusOffsetPacket
 826              		.code	16
 827              		.thumb_func
 828              		.type	AssembleWriteRadiusOffsetPacket, %function
 829              	AssembleWriteRadiusOffsetPacket:
 830              	.LFB17:
 237:CANIMU.c      **** 
 238:CANIMU.c      **** void AssembleWriteRadiusOffsetPacket(CANPacket *packetToAssemble,
 239:CANIMU.c      ****     uint8_t targetGroup,
 240:CANIMU.c      ****     uint8_t targetSerial,
 241:CANIMU.c      ****     int16_t accOffset,
 242:CANIMU.c      ****     int16_t magOffset) 
 243:CANIMU.c      **** {
 831              		.loc 1 243 0
 832              		.cfi_startproc
 833              		@ args = 4, pretend = 0, frame = 0
 834              		@ frame_needed = 0, uses_anonymous_args = 0
 835              	.LVL112:
 836 0000 F8B5     		push	{r3, r4, r5, r6, r7, lr}
 837              		.cfi_def_cfa_offset 24
ARM GAS  C:\Users\TT\AppData\Local\Temp\cc8CnhxX.s 			page 20


 838              		.cfi_offset 3, -24
 839              		.cfi_offset 4, -20
 840              		.cfi_offset 5, -16
 841              		.cfi_offset 6, -12
 842              		.cfi_offset 7, -8
 843              		.cfi_offset 14, -4
 844 0002 0400     		movs	r4, r0
 845 0004 1E00     		movs	r6, r3
 846 0006 06AB     		add	r3, sp, #24
 847              	.LVL113:
 848 0008 0027     		movs	r7, #0
 849 000a DF5F     		ldrsh	r7, [r3, r7]
 850              	.LVL114:
 244:CANIMU.c      ****     
 245:CANIMU.c      ****     packetToAssemble->id = ConstructCANID(PACKET_PRIORITY_NORMAL, targetGroup, targetSerial);
 851              		.loc 1 245 0
 852 000c 0120     		movs	r0, #1
 853              	.LVL115:
 854 000e FFF7FEFF 		bl	ConstructCANID
 855              	.LVL116:
 856 0012 2080     		strh	r0, [r4]
 246:CANIMU.c      ****     packetToAssemble->dlc = DLC_IMU_WRITE_RADIUS_OFFSET;
 857              		.loc 1 246 0
 858 0014 0523     		movs	r3, #5
 859 0016 A370     		strb	r3, [r4, #2]
 247:CANIMU.c      ****     int nextByte = WritePacketIDOnly(packetToAssemble->data, ID_IMU_WRITE_RADIUS_OFFSET);
 860              		.loc 1 247 0
 861 0018 0334     		adds	r4, r4, #3
 862              	.LVL117:
 863 001a 2821     		movs	r1, #40
 864 001c 2000     		movs	r0, r4
 865 001e FFF7FEFF 		bl	WritePacketIDOnly
 866              	.LVL118:
 867 0022 0500     		movs	r5, r0
 868              	.LVL119:
 248:CANIMU.c      ****     PackShortIntoDataMSBFirst(packetToAssemble->data, accOffset, nextByte);
 869              		.loc 1 248 0
 870 0024 0200     		movs	r2, r0
 871 0026 3100     		movs	r1, r6
 872 0028 2000     		movs	r0, r4
 873              	.LVL120:
 874 002a FFF7FEFF 		bl	PackShortIntoDataMSBFirst
 875              	.LVL121:
 249:CANIMU.c      ****     PackShortIntoDataMSBFirst(packetToAssemble->data, magOffset, nextByte + 2);
 876              		.loc 1 249 0
 877 002e AA1C     		adds	r2, r5, #2
 878 0030 3900     		movs	r1, r7
 879 0032 2000     		movs	r0, r4
 880 0034 FFF7FEFF 		bl	PackShortIntoDataMSBFirst
 881              	.LVL122:
 250:CANIMU.c      ****     
 251:CANIMU.c      **** }
 882              		.loc 1 251 0
 883              		@ sp needed
 884              	.LVL123:
 885              	.LVL124:
 886 0038 F8BD     		pop	{r3, r4, r5, r6, r7, pc}
ARM GAS  C:\Users\TT\AppData\Local\Temp\cc8CnhxX.s 			page 21


 887              		.cfi_endproc
 888              	.LFE17:
 889              		.size	AssembleWriteRadiusOffsetPacket, .-AssembleWriteRadiusOffsetPacket
 890 003a C046     		.section	.text.AssembleSendAccOffsetPacket,"ax",%progbits
 891              		.align	2
 892              		.global	AssembleSendAccOffsetPacket
 893              		.code	16
 894              		.thumb_func
 895              		.type	AssembleSendAccOffsetPacket, %function
 896              	AssembleSendAccOffsetPacket:
 897              	.LFB18:
 252:CANIMU.c      **** 
 253:CANIMU.c      **** void AssembleSendAccOffsetPacket(CANPacket *packetToAssemble,
 254:CANIMU.c      ****     uint8_t targetGroup,
 255:CANIMU.c      ****     uint8_t targetSerial,
 256:CANIMU.c      ****     int16_t xOffset,
 257:CANIMU.c      ****     int16_t yOffset,
 258:CANIMU.c      ****     int16_t zOffset)
 259:CANIMU.c      **** {
 898              		.loc 1 259 0
 899              		.cfi_startproc
 900              		@ args = 8, pretend = 0, frame = 8
 901              		@ frame_needed = 0, uses_anonymous_args = 0
 902              	.LVL125:
 903 0000 F0B5     		push	{r4, r5, r6, r7, lr}
 904              		.cfi_def_cfa_offset 20
 905              		.cfi_offset 4, -20
 906              		.cfi_offset 5, -16
 907              		.cfi_offset 6, -12
 908              		.cfi_offset 7, -8
 909              		.cfi_offset 14, -4
 910 0002 83B0     		sub	sp, sp, #12
 911              		.cfi_def_cfa_offset 32
 912 0004 0400     		movs	r4, r0
 913 0006 0193     		str	r3, [sp, #4]
 914 0008 08AB     		add	r3, sp, #32
 915              	.LVL126:
 916 000a 0020     		movs	r0, #0
 917 000c 1E5E     		ldrsh	r6, [r3, r0]
 918              	.LVL127:
 919 000e 09AB     		add	r3, sp, #36
 920              	.LVL128:
 921 0010 0020     		movs	r0, #0
 922 0012 1F5E     		ldrsh	r7, [r3, r0]
 260:CANIMU.c      ****     
 261:CANIMU.c      ****     packetToAssemble->id = ConstructCANID(PACKET_PRIORITY_NORMAL, targetGroup, targetSerial);
 923              		.loc 1 261 0
 924 0014 0120     		movs	r0, #1
 925 0016 FFF7FEFF 		bl	ConstructCANID
 926              	.LVL129:
 927 001a 2080     		strh	r0, [r4]
 262:CANIMU.c      ****     packetToAssemble->dlc = DLC_IMU_SEND_ACC_OFFSET;
 928              		.loc 1 262 0
 929 001c 0723     		movs	r3, #7
 930 001e A370     		strb	r3, [r4, #2]
 263:CANIMU.c      ****     int nextByte = WritePacketIDOnly(packetToAssemble->data, ID_IMU_SEND_ACC_OFFSET);
 931              		.loc 1 263 0
ARM GAS  C:\Users\TT\AppData\Local\Temp\cc8CnhxX.s 			page 22


 932 0020 0334     		adds	r4, r4, #3
 933              	.LVL130:
 934 0022 2921     		movs	r1, #41
 935 0024 2000     		movs	r0, r4
 936 0026 FFF7FEFF 		bl	WritePacketIDOnly
 937              	.LVL131:
 938 002a 0500     		movs	r5, r0
 939              	.LVL132:
 264:CANIMU.c      ****     PackShortIntoDataMSBFirst(packetToAssemble->data, xOffset, nextByte);
 940              		.loc 1 264 0
 941 002c 0200     		movs	r2, r0
 942 002e 0199     		ldr	r1, [sp, #4]
 943 0030 2000     		movs	r0, r4
 944              	.LVL133:
 945 0032 FFF7FEFF 		bl	PackShortIntoDataMSBFirst
 946              	.LVL134:
 265:CANIMU.c      ****     PackShortIntoDataMSBFirst(packetToAssemble->data, yOffset, nextByte + 2);
 947              		.loc 1 265 0
 948 0036 AA1C     		adds	r2, r5, #2
 949 0038 3100     		movs	r1, r6
 950 003a 2000     		movs	r0, r4
 951 003c FFF7FEFF 		bl	PackShortIntoDataMSBFirst
 952              	.LVL135:
 266:CANIMU.c      ****     PackShortIntoDataMSBFirst(packetToAssemble->data, zOffset, nextByte + 4);
 953              		.loc 1 266 0
 954 0040 2A1D     		adds	r2, r5, #4
 955 0042 3900     		movs	r1, r7
 956 0044 2000     		movs	r0, r4
 957 0046 FFF7FEFF 		bl	PackShortIntoDataMSBFirst
 958              	.LVL136:
 267:CANIMU.c      ****     
 268:CANIMU.c      **** }
 959              		.loc 1 268 0
 960 004a 03B0     		add	sp, sp, #12
 961              		@ sp needed
 962              	.LVL137:
 963              	.LVL138:
 964 004c F0BD     		pop	{r4, r5, r6, r7, pc}
 965              		.cfi_endproc
 966              	.LFE18:
 967              		.size	AssembleSendAccOffsetPacket, .-AssembleSendAccOffsetPacket
 968 004e C046     		.section	.text.AssembleSendMagOffsetPacket,"ax",%progbits
 969              		.align	2
 970              		.global	AssembleSendMagOffsetPacket
 971              		.code	16
 972              		.thumb_func
 973              		.type	AssembleSendMagOffsetPacket, %function
 974              	AssembleSendMagOffsetPacket:
 975              	.LFB19:
 269:CANIMU.c      **** 
 270:CANIMU.c      **** void AssembleSendMagOffsetPacket(CANPacket *packetToAssemble,
 271:CANIMU.c      ****     uint8_t targetGroup,
 272:CANIMU.c      ****     uint8_t targetSerial,
 273:CANIMU.c      ****     int16_t xOffset,
 274:CANIMU.c      ****     int16_t yOffset,
 275:CANIMU.c      ****     int16_t zOffset)
 276:CANIMU.c      **** {
ARM GAS  C:\Users\TT\AppData\Local\Temp\cc8CnhxX.s 			page 23


 976              		.loc 1 276 0
 977              		.cfi_startproc
 978              		@ args = 8, pretend = 0, frame = 8
 979              		@ frame_needed = 0, uses_anonymous_args = 0
 980              	.LVL139:
 981 0000 F0B5     		push	{r4, r5, r6, r7, lr}
 982              		.cfi_def_cfa_offset 20
 983              		.cfi_offset 4, -20
 984              		.cfi_offset 5, -16
 985              		.cfi_offset 6, -12
 986              		.cfi_offset 7, -8
 987              		.cfi_offset 14, -4
 988 0002 83B0     		sub	sp, sp, #12
 989              		.cfi_def_cfa_offset 32
 990 0004 0400     		movs	r4, r0
 991 0006 0193     		str	r3, [sp, #4]
 992 0008 08AB     		add	r3, sp, #32
 993              	.LVL140:
 994 000a 0020     		movs	r0, #0
 995 000c 1E5E     		ldrsh	r6, [r3, r0]
 996              	.LVL141:
 997 000e 09AB     		add	r3, sp, #36
 998              	.LVL142:
 999 0010 0020     		movs	r0, #0
 1000 0012 1F5E     		ldrsh	r7, [r3, r0]
 277:CANIMU.c      ****     
 278:CANIMU.c      ****     packetToAssemble->id = ConstructCANID(PACKET_PRIORITY_NORMAL, targetGroup, targetSerial);
 1001              		.loc 1 278 0
 1002 0014 0120     		movs	r0, #1
 1003 0016 FFF7FEFF 		bl	ConstructCANID
 1004              	.LVL143:
 1005 001a 2080     		strh	r0, [r4]
 279:CANIMU.c      ****     packetToAssemble->dlc = DLC_IMU_SEND_MAG_OFFSET;
 1006              		.loc 1 279 0
 1007 001c 0723     		movs	r3, #7
 1008 001e A370     		strb	r3, [r4, #2]
 280:CANIMU.c      ****     int nextByte = WritePacketIDOnly(packetToAssemble->data, ID_IMU_SEND_MAG_OFFSET);
 1009              		.loc 1 280 0
 1010 0020 0334     		adds	r4, r4, #3
 1011              	.LVL144:
 1012 0022 2A21     		movs	r1, #42
 1013 0024 2000     		movs	r0, r4
 1014 0026 FFF7FEFF 		bl	WritePacketIDOnly
 1015              	.LVL145:
 1016 002a 0500     		movs	r5, r0
 1017              	.LVL146:
 281:CANIMU.c      ****     PackShortIntoDataMSBFirst(packetToAssemble->data, xOffset, nextByte);
 1018              		.loc 1 281 0
 1019 002c 0200     		movs	r2, r0
 1020 002e 0199     		ldr	r1, [sp, #4]
 1021 0030 2000     		movs	r0, r4
 1022              	.LVL147:
 1023 0032 FFF7FEFF 		bl	PackShortIntoDataMSBFirst
 1024              	.LVL148:
 282:CANIMU.c      ****     PackShortIntoDataMSBFirst(packetToAssemble->data, yOffset, nextByte + 2);
 1025              		.loc 1 282 0
 1026 0036 AA1C     		adds	r2, r5, #2
ARM GAS  C:\Users\TT\AppData\Local\Temp\cc8CnhxX.s 			page 24


 1027 0038 3100     		movs	r1, r6
 1028 003a 2000     		movs	r0, r4
 1029 003c FFF7FEFF 		bl	PackShortIntoDataMSBFirst
 1030              	.LVL149:
 283:CANIMU.c      ****     PackShortIntoDataMSBFirst(packetToAssemble->data, zOffset, nextByte + 4);
 1031              		.loc 1 283 0
 1032 0040 2A1D     		adds	r2, r5, #4
 1033 0042 3900     		movs	r1, r7
 1034 0044 2000     		movs	r0, r4
 1035 0046 FFF7FEFF 		bl	PackShortIntoDataMSBFirst
 1036              	.LVL150:
 284:CANIMU.c      ****     
 285:CANIMU.c      **** }
 1037              		.loc 1 285 0
 1038 004a 03B0     		add	sp, sp, #12
 1039              		@ sp needed
 1040              	.LVL151:
 1041              	.LVL152:
 1042 004c F0BD     		pop	{r4, r5, r6, r7, pc}
 1043              		.cfi_endproc
 1044              	.LFE19:
 1045              		.size	AssembleSendMagOffsetPacket, .-AssembleSendMagOffsetPacket
 1046 004e C046     		.section	.text.AssembleSendGyroOffsetPacket,"ax",%progbits
 1047              		.align	2
 1048              		.global	AssembleSendGyroOffsetPacket
 1049              		.code	16
 1050              		.thumb_func
 1051              		.type	AssembleSendGyroOffsetPacket, %function
 1052              	AssembleSendGyroOffsetPacket:
 1053              	.LFB20:
 286:CANIMU.c      **** 
 287:CANIMU.c      **** void AssembleSendGyroOffsetPacket(CANPacket *packetToAssemble,
 288:CANIMU.c      ****     uint8_t targetGroup,
 289:CANIMU.c      ****     uint8_t targetSerial,
 290:CANIMU.c      ****     int16_t xOffset,
 291:CANIMU.c      ****     int16_t yOffset,
 292:CANIMU.c      ****     int16_t zOffset)
 293:CANIMU.c      **** {
 1054              		.loc 1 293 0
 1055              		.cfi_startproc
 1056              		@ args = 8, pretend = 0, frame = 8
 1057              		@ frame_needed = 0, uses_anonymous_args = 0
 1058              	.LVL153:
 1059 0000 F0B5     		push	{r4, r5, r6, r7, lr}
 1060              		.cfi_def_cfa_offset 20
 1061              		.cfi_offset 4, -20
 1062              		.cfi_offset 5, -16
 1063              		.cfi_offset 6, -12
 1064              		.cfi_offset 7, -8
 1065              		.cfi_offset 14, -4
 1066 0002 83B0     		sub	sp, sp, #12
 1067              		.cfi_def_cfa_offset 32
 1068 0004 0400     		movs	r4, r0
 1069 0006 0193     		str	r3, [sp, #4]
 1070 0008 08AB     		add	r3, sp, #32
 1071              	.LVL154:
 1072 000a 0020     		movs	r0, #0
ARM GAS  C:\Users\TT\AppData\Local\Temp\cc8CnhxX.s 			page 25


 1073 000c 1E5E     		ldrsh	r6, [r3, r0]
 1074              	.LVL155:
 1075 000e 09AB     		add	r3, sp, #36
 1076              	.LVL156:
 1077 0010 0020     		movs	r0, #0
 1078 0012 1F5E     		ldrsh	r7, [r3, r0]
 294:CANIMU.c      ****     
 295:CANIMU.c      ****     packetToAssemble->id = ConstructCANID(PACKET_PRIORITY_NORMAL, targetGroup, targetSerial);
 1079              		.loc 1 295 0
 1080 0014 0120     		movs	r0, #1
 1081 0016 FFF7FEFF 		bl	ConstructCANID
 1082              	.LVL157:
 1083 001a 2080     		strh	r0, [r4]
 296:CANIMU.c      ****     packetToAssemble->dlc = DLC_IMU_SEND_GYRO_OFFSET;
 1084              		.loc 1 296 0
 1085 001c 0723     		movs	r3, #7
 1086 001e A370     		strb	r3, [r4, #2]
 297:CANIMU.c      ****     int nextByte = WritePacketIDOnly(packetToAssemble->data, ID_IMU_SEND_GYRO_OFFSET);
 1087              		.loc 1 297 0
 1088 0020 0334     		adds	r4, r4, #3
 1089              	.LVL158:
 1090 0022 2B21     		movs	r1, #43
 1091 0024 2000     		movs	r0, r4
 1092 0026 FFF7FEFF 		bl	WritePacketIDOnly
 1093              	.LVL159:
 1094 002a 0500     		movs	r5, r0
 1095              	.LVL160:
 298:CANIMU.c      ****     PackShortIntoDataMSBFirst(packetToAssemble->data, xOffset, nextByte);
 1096              		.loc 1 298 0
 1097 002c 0200     		movs	r2, r0
 1098 002e 0199     		ldr	r1, [sp, #4]
 1099 0030 2000     		movs	r0, r4
 1100              	.LVL161:
 1101 0032 FFF7FEFF 		bl	PackShortIntoDataMSBFirst
 1102              	.LVL162:
 299:CANIMU.c      ****     PackShortIntoDataMSBFirst(packetToAssemble->data, yOffset, nextByte + 2);
 1103              		.loc 1 299 0
 1104 0036 AA1C     		adds	r2, r5, #2
 1105 0038 3100     		movs	r1, r6
 1106 003a 2000     		movs	r0, r4
 1107 003c FFF7FEFF 		bl	PackShortIntoDataMSBFirst
 1108              	.LVL163:
 300:CANIMU.c      ****     PackShortIntoDataMSBFirst(packetToAssemble->data, zOffset, nextByte + 4);
 1109              		.loc 1 300 0
 1110 0040 2A1D     		adds	r2, r5, #4
 1111 0042 3900     		movs	r1, r7
 1112 0044 2000     		movs	r0, r4
 1113 0046 FFF7FEFF 		bl	PackShortIntoDataMSBFirst
 1114              	.LVL164:
 301:CANIMU.c      ****     
 302:CANIMU.c      **** }
 1115              		.loc 1 302 0
 1116 004a 03B0     		add	sp, sp, #12
 1117              		@ sp needed
 1118              	.LVL165:
 1119              	.LVL166:
 1120 004c F0BD     		pop	{r4, r5, r6, r7, pc}
ARM GAS  C:\Users\TT\AppData\Local\Temp\cc8CnhxX.s 			page 26


 1121              		.cfi_endproc
 1122              	.LFE20:
 1123              		.size	AssembleSendGyroOffsetPacket, .-AssembleSendGyroOffsetPacket
 1124 004e C046     		.section	.text.AssembleSendRadiusOffsetPacket,"ax",%progbits
 1125              		.align	2
 1126              		.global	AssembleSendRadiusOffsetPacket
 1127              		.code	16
 1128              		.thumb_func
 1129              		.type	AssembleSendRadiusOffsetPacket, %function
 1130              	AssembleSendRadiusOffsetPacket:
 1131              	.LFB21:
 303:CANIMU.c      **** 
 304:CANIMU.c      **** void AssembleSendRadiusOffsetPacket(CANPacket *packetToAssemble,
 305:CANIMU.c      ****     uint8_t targetGroup,
 306:CANIMU.c      ****     uint8_t targetSerial,
 307:CANIMU.c      ****     int16_t accOffset,
 308:CANIMU.c      ****     int16_t magOffset) 
 309:CANIMU.c      **** {
 1132              		.loc 1 309 0
 1133              		.cfi_startproc
 1134              		@ args = 4, pretend = 0, frame = 0
 1135              		@ frame_needed = 0, uses_anonymous_args = 0
 1136              	.LVL167:
 1137 0000 F8B5     		push	{r3, r4, r5, r6, r7, lr}
 1138              		.cfi_def_cfa_offset 24
 1139              		.cfi_offset 3, -24
 1140              		.cfi_offset 4, -20
 1141              		.cfi_offset 5, -16
 1142              		.cfi_offset 6, -12
 1143              		.cfi_offset 7, -8
 1144              		.cfi_offset 14, -4
 1145 0002 0400     		movs	r4, r0
 1146 0004 1E00     		movs	r6, r3
 1147 0006 06AB     		add	r3, sp, #24
 1148              	.LVL168:
 1149 0008 0027     		movs	r7, #0
 1150 000a DF5F     		ldrsh	r7, [r3, r7]
 1151              	.LVL169:
 310:CANIMU.c      ****     
 311:CANIMU.c      ****     packetToAssemble->id = ConstructCANID(PACKET_PRIORITY_NORMAL, targetGroup, targetSerial);
 1152              		.loc 1 311 0
 1153 000c 0120     		movs	r0, #1
 1154              	.LVL170:
 1155 000e FFF7FEFF 		bl	ConstructCANID
 1156              	.LVL171:
 1157 0012 2080     		strh	r0, [r4]
 312:CANIMU.c      ****     packetToAssemble->dlc = DLC_IMU_SEND_RADIUS_OFFSET;
 1158              		.loc 1 312 0
 1159 0014 0523     		movs	r3, #5
 1160 0016 A370     		strb	r3, [r4, #2]
 313:CANIMU.c      ****     int nextByte = WritePacketIDOnly(packetToAssemble->data, ID_IMU_SEND_RADIUS_OFFSET);
 1161              		.loc 1 313 0
 1162 0018 0334     		adds	r4, r4, #3
 1163              	.LVL172:
 1164 001a 2C21     		movs	r1, #44
 1165 001c 2000     		movs	r0, r4
 1166 001e FFF7FEFF 		bl	WritePacketIDOnly
ARM GAS  C:\Users\TT\AppData\Local\Temp\cc8CnhxX.s 			page 27


 1167              	.LVL173:
 1168 0022 0500     		movs	r5, r0
 1169              	.LVL174:
 314:CANIMU.c      ****     PackShortIntoDataMSBFirst(packetToAssemble->data, accOffset, nextByte);
 1170              		.loc 1 314 0
 1171 0024 0200     		movs	r2, r0
 1172 0026 3100     		movs	r1, r6
 1173 0028 2000     		movs	r0, r4
 1174              	.LVL175:
 1175 002a FFF7FEFF 		bl	PackShortIntoDataMSBFirst
 1176              	.LVL176:
 315:CANIMU.c      ****     PackShortIntoDataMSBFirst(packetToAssemble->data, magOffset, nextByte + 2);
 1177              		.loc 1 315 0
 1178 002e AA1C     		adds	r2, r5, #2
 1179 0030 3900     		movs	r1, r7
 1180 0032 2000     		movs	r0, r4
 1181 0034 FFF7FEFF 		bl	PackShortIntoDataMSBFirst
 1182              	.LVL177:
 316:CANIMU.c      ****     
 317:CANIMU.c      **** }
 1183              		.loc 1 317 0
 1184              		@ sp needed
 1185              	.LVL178:
 1186              	.LVL179:
 1187 0038 F8BD     		pop	{r3, r4, r5, r6, r7, pc}
 1188              		.cfi_endproc
 1189              	.LFE21:
 1190              		.size	AssembleSendRadiusOffsetPacket, .-AssembleSendRadiusOffsetPacket
 1191 003a C046     		.section	.text.GetOffsetFromPacket,"ax",%progbits
 1192              		.align	2
 1193              		.global	GetOffsetFromPacket
 1194              		.code	16
 1195              		.thumb_func
 1196              		.type	GetOffsetFromPacket, %function
 1197              	GetOffsetFromPacket:
 1198              	.LFB22:
 318:CANIMU.c      **** 
 319:CANIMU.c      **** IMUOffset GetOffsetFromPacket(CANPacket *packet)
 320:CANIMU.c      **** {
 1199              		.loc 1 320 0
 1200              		.cfi_startproc
 1201              		@ args = 0, pretend = 0, frame = 16
 1202              		@ frame_needed = 0, uses_anonymous_args = 0
 1203              	.LVL180:
 1204 0000 70B5     		push	{r4, r5, r6, lr}
 1205              		.cfi_def_cfa_offset 16
 1206              		.cfi_offset 4, -16
 1207              		.cfi_offset 5, -12
 1208              		.cfi_offset 6, -8
 1209              		.cfi_offset 14, -4
 1210 0002 84B0     		sub	sp, sp, #16
 1211              		.cfi_def_cfa_offset 32
 1212 0004 0500     		movs	r5, r0
 321:CANIMU.c      ****     
 322:CANIMU.c      ****     if (packet->data[0] != ID_IMU_READ_ACC_OFFSET && packet->data[0] != ID_IMU_READ_GYRO_OFFSET
 1213              		.loc 1 322 0
 1214 0006 CB78     		ldrb	r3, [r1, #3]
ARM GAS  C:\Users\TT\AppData\Local\Temp\cc8CnhxX.s 			page 28


 1215 0008 212B     		cmp	r3, #33
 1216 000a 0DD0     		beq	.L30
 1217              		.loc 1 322 0 is_stmt 0 discriminator 1
 1218 000c 232B     		cmp	r3, #35
 1219 000e 0BD0     		beq	.L30
 323:CANIMU.c      ****         && packet->data[0] != ID_IMU_READ_MAG_OFFSET) {
 1220              		.loc 1 323 0 is_stmt 1
 1221 0010 222B     		cmp	r3, #34
 1222 0012 09D0     		beq	.L30
 1223              	.LBB2:
 324:CANIMU.c      ****             
 325:CANIMU.c      ****         IMUOffset offset = {0, 0, 0};
 1224              		.loc 1 325 0
 1225 0014 0023     		movs	r3, #0
 1226 0016 6A46     		mov	r2, sp
 1227 0018 1380     		strh	r3, [r2]
 1228 001a 5380     		strh	r3, [r2, #2]
 1229 001c 9380     		strh	r3, [r2, #4]
 326:CANIMU.c      ****   
 327:CANIMU.c      ****         return offset;   
 1230              		.loc 1 327 0
 1231 001e 0622     		movs	r2, #6
 1232 0020 6946     		mov	r1, sp
 1233              	.LVL181:
 1234 0022 FFF7FEFF 		bl	memcpy
 1235              	.LVL182:
 1236 0026 18E0     		b	.L29
 1237              	.LVL183:
 1238              	.L30:
 1239              	.LBE2:
 328:CANIMU.c      ****             
 329:CANIMU.c      ****     }
 330:CANIMU.c      ****     
 331:CANIMU.c      ****     IMUOffset offsets;
 332:CANIMU.c      ****     
 333:CANIMU.c      ****     offsets.xOffset = (int16_t) DecodeBytesToIntMSBFirst(packet->data, 0, 1);
 1240              		.loc 1 333 0
 1241 0028 CC1C     		adds	r4, r1, #3
 1242 002a 0122     		movs	r2, #1
 1243 002c 0021     		movs	r1, #0
 1244              	.LVL184:
 1245 002e 2000     		movs	r0, r4
 1246              	.LVL185:
 1247 0030 FFF7FEFF 		bl	DecodeBytesToIntMSBFirst
 1248              	.LVL186:
 1249 0034 02AE     		add	r6, sp, #8
 1250 0036 3080     		strh	r0, [r6]
 334:CANIMU.c      ****     offsets.yOffset = (int16_t) DecodeBytesToIntMSBFirst(packet->data, 2, 3);
 1251              		.loc 1 334 0
 1252 0038 0322     		movs	r2, #3
 1253 003a 0221     		movs	r1, #2
 1254 003c 2000     		movs	r0, r4
 1255 003e FFF7FEFF 		bl	DecodeBytesToIntMSBFirst
 1256              	.LVL187:
 1257 0042 7080     		strh	r0, [r6, #2]
 335:CANIMU.c      ****     offsets.zOffset = (int16_t) DecodeBytesToIntMSBFirst(packet->data, 4, 5);
 1258              		.loc 1 335 0
ARM GAS  C:\Users\TT\AppData\Local\Temp\cc8CnhxX.s 			page 29


 1259 0044 0522     		movs	r2, #5
 1260 0046 0421     		movs	r1, #4
 1261 0048 2000     		movs	r0, r4
 1262 004a FFF7FEFF 		bl	DecodeBytesToIntMSBFirst
 1263              	.LVL188:
 1264 004e B080     		strh	r0, [r6, #4]
 336:CANIMU.c      ****     
 337:CANIMU.c      ****     return offsets;
 1265              		.loc 1 337 0
 1266 0050 0622     		movs	r2, #6
 1267 0052 3100     		movs	r1, r6
 1268 0054 2800     		movs	r0, r5
 1269 0056 FFF7FEFF 		bl	memcpy
 1270              	.LVL189:
 1271              	.L29:
 338:CANIMU.c      ****     
 339:CANIMU.c      **** }
 1272              		.loc 1 339 0
 1273 005a 2800     		movs	r0, r5
 1274 005c 04B0     		add	sp, sp, #16
 1275              		@ sp needed
 1276              	.LVL190:
 1277 005e 70BD     		pop	{r4, r5, r6, pc}
 1278              		.cfi_endproc
 1279              	.LFE22:
 1280              		.size	GetOffsetFromPacket, .-GetOffsetFromPacket
 1281              		.section	.text.GetRadiusOffsetFromPacket,"ax",%progbits
 1282              		.align	2
 1283              		.global	GetRadiusOffsetFromPacket
 1284              		.code	16
 1285              		.thumb_func
 1286              		.type	GetRadiusOffsetFromPacket, %function
 1287              	GetRadiusOffsetFromPacket:
 1288              	.LFB23:
 340:CANIMU.c      **** 
 341:CANIMU.c      **** IMURadiusOffset GetRadiusOffsetFromPacket(CANPacket *packet)
 342:CANIMU.c      **** {
 1289              		.loc 1 342 0
 1290              		.cfi_startproc
 1291              		@ args = 0, pretend = 0, frame = 16
 1292              		@ frame_needed = 0, uses_anonymous_args = 0
 1293              	.LVL191:
 1294 0000 30B5     		push	{r4, r5, lr}
 1295              		.cfi_def_cfa_offset 12
 1296              		.cfi_offset 4, -12
 1297              		.cfi_offset 5, -8
 1298              		.cfi_offset 14, -4
 1299 0002 85B0     		sub	sp, sp, #20
 1300              		.cfi_def_cfa_offset 32
 343:CANIMU.c      ****     
 344:CANIMU.c      ****     if (packet->data[0] != ID_IMU_READ_RADIUS_OFFSET) {
 1301              		.loc 1 344 0
 1302 0004 C378     		ldrb	r3, [r0, #3]
 1303 0006 242B     		cmp	r3, #36
 1304 0008 06D0     		beq	.L33
 1305              	.LBB3:
 345:CANIMU.c      ****      
ARM GAS  C:\Users\TT\AppData\Local\Temp\cc8CnhxX.s 			page 30


 346:CANIMU.c      ****         IMURadiusOffset offset = {0, 0};
 1306              		.loc 1 346 0
 1307 000a 01AB     		add	r3, sp, #4
 1308 000c 0022     		movs	r2, #0
 1309 000e 1A80     		strh	r2, [r3]
 1310 0010 5A80     		strh	r2, [r3, #2]
 347:CANIMU.c      ****         
 348:CANIMU.c      ****         return offset;
 1311              		.loc 1 348 0
 1312 0012 019B     		ldr	r3, [sp, #4]
 1313 0014 0393     		str	r3, [sp, #12]
 1314 0016 0FE0     		b	.L34
 1315              	.L33:
 1316              	.LBE3:
 349:CANIMU.c      ****         
 350:CANIMU.c      ****     }
 351:CANIMU.c      **** 
 352:CANIMU.c      ****     IMURadiusOffset offsets;
 353:CANIMU.c      ****     
 354:CANIMU.c      ****     offsets.accOffset = (int16_t) DecodeBytesToIntMSBFirst(packet->data, 0, 1);
 1317              		.loc 1 354 0
 1318 0018 C41C     		adds	r4, r0, #3
 1319 001a 0122     		movs	r2, #1
 1320 001c 0021     		movs	r1, #0
 1321 001e 2000     		movs	r0, r4
 1322              	.LVL192:
 1323 0020 FFF7FEFF 		bl	DecodeBytesToIntMSBFirst
 1324              	.LVL193:
 1325 0024 02AD     		add	r5, sp, #8
 1326 0026 2880     		strh	r0, [r5]
 355:CANIMU.c      ****     offsets.magOffset = (int16_t) DecodeBytesToIntMSBFirst(packet->data, 2, 3);
 1327              		.loc 1 355 0
 1328 0028 0322     		movs	r2, #3
 1329 002a 0221     		movs	r1, #2
 1330 002c 2000     		movs	r0, r4
 1331 002e FFF7FEFF 		bl	DecodeBytesToIntMSBFirst
 1332              	.LVL194:
 1333 0032 6880     		strh	r0, [r5, #2]
 356:CANIMU.c      ****     
 357:CANIMU.c      ****     return offsets;
 1334              		.loc 1 357 0
 1335 0034 029B     		ldr	r3, [sp, #8]
 1336 0036 0393     		str	r3, [sp, #12]
 1337              	.LVL195:
 1338              	.L34:
 1339 0038 03AB     		add	r3, sp, #12
 1340 003a 5888     		ldrh	r0, [r3, #2]
 1341 003c 0004     		lsls	r0, r0, #16
 1342 003e 1B88     		ldrh	r3, [r3]
 1343 0040 1843     		orrs	r0, r3
 358:CANIMU.c      ****     
 359:CANIMU.c      **** }
 1344              		.loc 1 359 0 discriminator 1
 1345 0042 05B0     		add	sp, sp, #20
 1346              		@ sp needed
 1347 0044 30BD     		pop	{r4, r5, pc}
 1348              		.cfi_endproc
ARM GAS  C:\Users\TT\AppData\Local\Temp\cc8CnhxX.s 			page 31


 1349              	.LFE23:
 1350              		.size	GetRadiusOffsetFromPacket, .-GetRadiusOffsetFromPacket
 1351 0046 C046     		.text
 1352              	.Letext0:
 1353              		.file 2 "c:\\program files (x86)\\cypress\\psoc creator\\4.4\\psoc creator\\import\\gnu\\arm\\5.4.
 1354              		.file 3 "c:\\program files (x86)\\cypress\\psoc creator\\4.4\\psoc creator\\import\\gnu\\arm\\5.4.
 1355              		.file 4 ".\\HindsightCAN/CANPacket.h"
 1356              		.file 5 "CANIMU.h"