ARM GAS  C:\Users\DAVISS~1\AppData\Local\Temp\ccDNfSJf.s 			page 1


   1              		.syntax unified
   2              		.cpu cortex-m0
   3              		.fpu softvfp
   4              		.eabi_attribute 20, 1
   5              		.eabi_attribute 21, 1
   6              		.eabi_attribute 23, 3
   7              		.eabi_attribute 24, 1
   8              		.eabi_attribute 25, 1
   9              		.eabi_attribute 26, 1
  10              		.eabi_attribute 30, 1
  11              		.eabi_attribute 34, 0
  12              		.eabi_attribute 18, 4
  13              		.thumb
  14              		.syntax unified
  15              		.file	"CANMotorUnit.c"
  16              		.text
  17              	.Ltext0:
  18              		.cfi_sections	.debug_frame
  19              		.section	.text.AssembleModeSetPacket,"ax",%progbits
  20              		.align	2
  21              		.global	AssembleModeSetPacket
  22              		.code	16
  23              		.thumb_func
  24              		.type	AssembleModeSetPacket, %function
  25              	AssembleModeSetPacket:
  26              	.LFB0:
  27              		.file 1 "HindsightCAN\\CANMotorUnit.c"
   1:HindsightCAN/CANMotorUnit.c **** /* File:         CANMotorUnit.c
   2:HindsightCAN/CANMotorUnit.c ****  * Authors:      Jaden Bottemiller, Benton Kwong, Dylan Tomberlin, Austin Chan.
   3:HindsightCAN/CANMotorUnit.c ****  * Organization: Husky Robotics Team
   4:HindsightCAN/CANMotorUnit.c ****  * 
   5:HindsightCAN/CANMotorUnit.c ****  * This file includes function definitions for CAN Packet manipulation
   6:HindsightCAN/CANMotorUnit.c ****  * using the Hindsight CAN Communication standard. Specific files
   7:HindsightCAN/CANMotorUnit.c ****  * for the motor unit boards.
   8:HindsightCAN/CANMotorUnit.c ****  * Documentation: https://huskyroboticsteam.slite.com/app/channels/iU0BryG7M9/collections/aXvWTcIR6
   9:HindsightCAN/CANMotorUnit.c ****  */
  10:HindsightCAN/CANMotorUnit.c **** 
  11:HindsightCAN/CANMotorUnit.c **** #include "CANPacket.h"
  12:HindsightCAN/CANMotorUnit.c **** #include "CANMotorUnit.h"
  13:HindsightCAN/CANMotorUnit.c **** #include "Port.h"
  14:HindsightCAN/CANMotorUnit.c **** 
  15:HindsightCAN/CANMotorUnit.c **** void AssembleModeSetPacket(CANPacket *packetToAssemble,
  16:HindsightCAN/CANMotorUnit.c ****     uint8_t targetDeviceGroup,
  17:HindsightCAN/CANMotorUnit.c ****     uint8_t targetDeviceSerial,
  18:HindsightCAN/CANMotorUnit.c ****     uint8_t mode)
  19:HindsightCAN/CANMotorUnit.c **** {
  28              		.loc 1 19 0
  29              		.cfi_startproc
  30              		@ args = 0, pretend = 0, frame = 0
  31              		@ frame_needed = 0, uses_anonymous_args = 0
  32              	.LVL0:
  33 0000 70B5     		push	{r4, r5, r6, lr}
  34              		.cfi_def_cfa_offset 16
  35              		.cfi_offset 4, -16
  36              		.cfi_offset 5, -12
  37              		.cfi_offset 6, -8
  38              		.cfi_offset 14, -4
ARM GAS  C:\Users\DAVISS~1\AppData\Local\Temp\ccDNfSJf.s 			page 2


  39 0002 0400     		movs	r4, r0
  40 0004 1D00     		movs	r5, r3
  20:HindsightCAN/CANMotorUnit.c ****     packetToAssemble->id = ConstructCANID(PRIO_MOTOR_UNIT_MODE_SEL, targetDeviceGroup, targetDevice
  41              		.loc 1 20 0
  42 0006 0120     		movs	r0, #1
  43              	.LVL1:
  44 0008 FFF7FEFF 		bl	ConstructCANID
  45              	.LVL2:
  46 000c 2080     		strh	r0, [r4]
  21:HindsightCAN/CANMotorUnit.c ****     packetToAssemble->dlc = DLC_MOTOR_UNIT_MODE_SEL;
  47              		.loc 1 21 0
  48 000e 0223     		movs	r3, #2
  49 0010 A370     		strb	r3, [r4, #2]
  22:HindsightCAN/CANMotorUnit.c ****     int nextByte = WritePacketIDOnly(packetToAssemble->data, ID_MOTOR_UNIT_MODE_SEL);
  50              		.loc 1 22 0
  51 0012 E01C     		adds	r0, r4, #3
  52 0014 0021     		movs	r1, #0
  53 0016 FFF7FEFF 		bl	WritePacketIDOnly
  54              	.LVL3:
  23:HindsightCAN/CANMotorUnit.c ****     packetToAssemble->data[nextByte] = mode;
  55              		.loc 1 23 0
  56 001a 2418     		adds	r4, r4, r0
  57              	.LVL4:
  58 001c E570     		strb	r5, [r4, #3]
  24:HindsightCAN/CANMotorUnit.c **** }
  59              		.loc 1 24 0
  60              		@ sp needed
  61 001e 70BD     		pop	{r4, r5, r6, pc}
  62              		.cfi_endproc
  63              	.LFE0:
  64              		.size	AssembleModeSetPacket, .-AssembleModeSetPacket
  65              		.section	.text.GetModeFromPacket,"ax",%progbits
  66              		.align	2
  67              		.global	GetModeFromPacket
  68              		.code	16
  69              		.thumb_func
  70              		.type	GetModeFromPacket, %function
  71              	GetModeFromPacket:
  72              	.LFB1:
  25:HindsightCAN/CANMotorUnit.c **** 
  26:HindsightCAN/CANMotorUnit.c **** uint8_t GetModeFromPacket(CANPacket *packet)
  27:HindsightCAN/CANMotorUnit.c **** {
  73              		.loc 1 27 0
  74              		.cfi_startproc
  75              		@ args = 0, pretend = 0, frame = 0
  76              		@ frame_needed = 0, uses_anonymous_args = 0
  77              		@ link register save eliminated.
  78              	.LVL5:
  28:HindsightCAN/CANMotorUnit.c ****     return packet->data[1];
  79              		.loc 1 28 0
  80 0000 0079     		ldrb	r0, [r0, #4]
  81              	.LVL6:
  29:HindsightCAN/CANMotorUnit.c **** }
  82              		.loc 1 29 0
  83              		@ sp needed
  84 0002 7047     		bx	lr
  85              		.cfi_endproc
ARM GAS  C:\Users\DAVISS~1\AppData\Local\Temp\ccDNfSJf.s 			page 3


  86              	.LFE1:
  87              		.size	GetModeFromPacket, .-GetModeFromPacket
  88              		.section	.text.AssemblePWMDirSetPacket,"ax",%progbits
  89              		.align	2
  90              		.global	AssemblePWMDirSetPacket
  91              		.code	16
  92              		.thumb_func
  93              		.type	AssemblePWMDirSetPacket, %function
  94              	AssemblePWMDirSetPacket:
  95              	.LFB2:
  30:HindsightCAN/CANMotorUnit.c **** 
  31:HindsightCAN/CANMotorUnit.c **** 
  32:HindsightCAN/CANMotorUnit.c **** void AssemblePWMDirSetPacket(CANPacket *packetToAssemble, 
  33:HindsightCAN/CANMotorUnit.c ****     uint8_t targetDeviceGroup,
  34:HindsightCAN/CANMotorUnit.c ****     uint8_t targetDeviceSerial,
  35:HindsightCAN/CANMotorUnit.c ****     int16_t PWMSet)
  36:HindsightCAN/CANMotorUnit.c **** {
  96              		.loc 1 36 0
  97              		.cfi_startproc
  98              		@ args = 0, pretend = 0, frame = 0
  99              		@ frame_needed = 0, uses_anonymous_args = 0
 100              	.LVL7:
 101 0000 70B5     		push	{r4, r5, r6, lr}
 102              		.cfi_def_cfa_offset 16
 103              		.cfi_offset 4, -16
 104              		.cfi_offset 5, -12
 105              		.cfi_offset 6, -8
 106              		.cfi_offset 14, -4
 107 0002 0400     		movs	r4, r0
 108 0004 1D00     		movs	r5, r3
  37:HindsightCAN/CANMotorUnit.c ****     packetToAssemble->id = ConstructCANID(PRIO_MOTOR_UNIT_PWM_DIR_SET, targetDeviceGroup, targetDev
 109              		.loc 1 37 0
 110 0006 0120     		movs	r0, #1
 111              	.LVL8:
 112 0008 FFF7FEFF 		bl	ConstructCANID
 113              	.LVL9:
 114 000c 2080     		strh	r0, [r4]
  38:HindsightCAN/CANMotorUnit.c ****     packetToAssemble->dlc = DLC_MOTOR_UNIT_PWM_DIR_SET;
 115              		.loc 1 38 0
 116 000e 0323     		movs	r3, #3
 117 0010 A370     		strb	r3, [r4, #2]
  39:HindsightCAN/CANMotorUnit.c ****     int nextByte = WritePacketIDOnly(packetToAssemble->data, DLC_MOTOR_UNIT_PWM_DIR_SET);
 118              		.loc 1 39 0
 119 0012 0334     		adds	r4, r4, #3
 120              	.LVL10:
 121 0014 0321     		movs	r1, #3
 122 0016 2000     		movs	r0, r4
 123 0018 FFF7FEFF 		bl	WritePacketIDOnly
 124              	.LVL11:
 125 001c 0200     		movs	r2, r0
 126              	.LVL12:
  40:HindsightCAN/CANMotorUnit.c ****     PackShortIntoDataMSBFirst(packetToAssemble->data, PWMSet, nextByte);
 127              		.loc 1 40 0
 128 001e 2900     		movs	r1, r5
 129 0020 2000     		movs	r0, r4
 130              	.LVL13:
 131 0022 FFF7FEFF 		bl	PackShortIntoDataMSBFirst
ARM GAS  C:\Users\DAVISS~1\AppData\Local\Temp\ccDNfSJf.s 			page 4


 132              	.LVL14:
  41:HindsightCAN/CANMotorUnit.c **** }
 133              		.loc 1 41 0
 134              		@ sp needed
 135              	.LVL15:
 136 0026 70BD     		pop	{r4, r5, r6, pc}
 137              		.cfi_endproc
 138              	.LFE2:
 139              		.size	AssemblePWMDirSetPacket, .-AssemblePWMDirSetPacket
 140              		.section	.text.GetPWMFromPacket,"ax",%progbits
 141              		.align	2
 142              		.global	GetPWMFromPacket
 143              		.code	16
 144              		.thumb_func
 145              		.type	GetPWMFromPacket, %function
 146              	GetPWMFromPacket:
 147              	.LFB3:
  42:HindsightCAN/CANMotorUnit.c **** 
  43:HindsightCAN/CANMotorUnit.c **** int32_t GetPWMFromPacket(CANPacket *packet)
  44:HindsightCAN/CANMotorUnit.c **** {
 148              		.loc 1 44 0
 149              		.cfi_startproc
 150              		@ args = 0, pretend = 0, frame = 0
 151              		@ frame_needed = 0, uses_anonymous_args = 0
 152              	.LVL16:
 153 0000 10B5     		push	{r4, lr}
 154              		.cfi_def_cfa_offset 8
 155              		.cfi_offset 4, -8
 156              		.cfi_offset 14, -4
  45:HindsightCAN/CANMotorUnit.c ****     return DecodeBytesToIntMSBFirst(packet->data, 1, 2);
 157              		.loc 1 45 0
 158 0002 0330     		adds	r0, r0, #3
 159              	.LVL17:
 160 0004 0222     		movs	r2, #2
 161 0006 0121     		movs	r1, #1
 162 0008 FFF7FEFF 		bl	DecodeBytesToIntMSBFirst
 163              	.LVL18:
  46:HindsightCAN/CANMotorUnit.c **** }
 164              		.loc 1 46 0
 165              		@ sp needed
 166 000c 10BD     		pop	{r4, pc}
 167              		.cfi_endproc
 168              	.LFE3:
 169              		.size	GetPWMFromPacket, .-GetPWMFromPacket
 170 000e C046     		.section	.text.GetDirectionFromPacket,"ax",%progbits
 171              		.align	2
 172              		.global	GetDirectionFromPacket
 173              		.code	16
 174              		.thumb_func
 175              		.type	GetDirectionFromPacket, %function
 176              	GetDirectionFromPacket:
 177              	.LFB4:
  47:HindsightCAN/CANMotorUnit.c **** 
  48:HindsightCAN/CANMotorUnit.c **** //Returns 2's compliment MSB (0 for stopped or forward, 1 for reverse)
  49:HindsightCAN/CANMotorUnit.c **** int32_t GetDirectionFromPacket(CANPacket *packet)
  50:HindsightCAN/CANMotorUnit.c **** {
 178              		.loc 1 50 0
ARM GAS  C:\Users\DAVISS~1\AppData\Local\Temp\ccDNfSJf.s 			page 5


 179              		.cfi_startproc
 180              		@ args = 0, pretend = 0, frame = 0
 181              		@ frame_needed = 0, uses_anonymous_args = 0
 182              		@ link register save eliminated.
 183              	.LVL19:
  51:HindsightCAN/CANMotorUnit.c ****     return ((packet->data[1]) >> 7) & 0x1;
 184              		.loc 1 51 0
 185 0000 0079     		ldrb	r0, [r0, #4]
 186              	.LVL20:
 187 0002 C009     		lsrs	r0, r0, #7
  52:HindsightCAN/CANMotorUnit.c **** }
 188              		.loc 1 52 0
 189              		@ sp needed
 190 0004 7047     		bx	lr
 191              		.cfi_endproc
 192              	.LFE4:
 193              		.size	GetDirectionFromPacket, .-GetDirectionFromPacket
 194 0006 C046     		.section	.text.AssemblePIDTargetSetPacket,"ax",%progbits
 195              		.align	2
 196              		.global	AssemblePIDTargetSetPacket
 197              		.code	16
 198              		.thumb_func
 199              		.type	AssemblePIDTargetSetPacket, %function
 200              	AssemblePIDTargetSetPacket:
 201              	.LFB5:
  53:HindsightCAN/CANMotorUnit.c **** 
  54:HindsightCAN/CANMotorUnit.c **** void AssemblePIDTargetSetPacket(CANPacket *packetToAssemble,
  55:HindsightCAN/CANMotorUnit.c ****     uint8_t targetDeviceGroup,
  56:HindsightCAN/CANMotorUnit.c ****     uint8_t targetDeviceSerial,
  57:HindsightCAN/CANMotorUnit.c ****     int32_t target)
  58:HindsightCAN/CANMotorUnit.c **** {
 202              		.loc 1 58 0
 203              		.cfi_startproc
 204              		@ args = 0, pretend = 0, frame = 0
 205              		@ frame_needed = 0, uses_anonymous_args = 0
 206              	.LVL21:
 207 0000 70B5     		push	{r4, r5, r6, lr}
 208              		.cfi_def_cfa_offset 16
 209              		.cfi_offset 4, -16
 210              		.cfi_offset 5, -12
 211              		.cfi_offset 6, -8
 212              		.cfi_offset 14, -4
 213 0002 0400     		movs	r4, r0
 214 0004 1D00     		movs	r5, r3
  59:HindsightCAN/CANMotorUnit.c ****     packetToAssemble->id = ConstructCANID(PACKET_PRIORITY_NORMAL, targetDeviceGroup, targetDeviceSe
 215              		.loc 1 59 0
 216 0006 0120     		movs	r0, #1
 217              	.LVL22:
 218 0008 FFF7FEFF 		bl	ConstructCANID
 219              	.LVL23:
 220 000c 2080     		strh	r0, [r4]
  60:HindsightCAN/CANMotorUnit.c ****     packetToAssemble->dlc = DLC_MOTOR_UNIT_PID_POS_TGT_SET;
 221              		.loc 1 60 0
 222 000e 0523     		movs	r3, #5
 223 0010 A370     		strb	r3, [r4, #2]
  61:HindsightCAN/CANMotorUnit.c ****     int nextByte = WritePacketIDOnly(packetToAssemble->data, ID_MOTOR_UNIT_PID_POS_TGT_SET);
 224              		.loc 1 61 0
ARM GAS  C:\Users\DAVISS~1\AppData\Local\Temp\ccDNfSJf.s 			page 6


 225 0012 0334     		adds	r4, r4, #3
 226              	.LVL24:
 227 0014 0421     		movs	r1, #4
 228 0016 2000     		movs	r0, r4
 229 0018 FFF7FEFF 		bl	WritePacketIDOnly
 230              	.LVL25:
 231 001c 0200     		movs	r2, r0
 232              	.LVL26:
  62:HindsightCAN/CANMotorUnit.c ****     PackIntIntoDataMSBFirst(packetToAssemble->data, target, nextByte);
 233              		.loc 1 62 0
 234 001e 2900     		movs	r1, r5
 235 0020 2000     		movs	r0, r4
 236              	.LVL27:
 237 0022 FFF7FEFF 		bl	PackIntIntoDataMSBFirst
 238              	.LVL28:
  63:HindsightCAN/CANMotorUnit.c **** }
 239              		.loc 1 63 0
 240              		@ sp needed
 241              	.LVL29:
 242              	.LVL30:
 243 0026 70BD     		pop	{r4, r5, r6, pc}
 244              		.cfi_endproc
 245              	.LFE5:
 246              		.size	AssemblePIDTargetSetPacket, .-AssemblePIDTargetSetPacket
 247              		.section	.text.GetPIDTargetFromPacket,"ax",%progbits
 248              		.align	2
 249              		.global	GetPIDTargetFromPacket
 250              		.code	16
 251              		.thumb_func
 252              		.type	GetPIDTargetFromPacket, %function
 253              	GetPIDTargetFromPacket:
 254              	.LFB6:
  64:HindsightCAN/CANMotorUnit.c **** 
  65:HindsightCAN/CANMotorUnit.c **** uint8_t GetPIDTargetFromPacket(CANPacket *packet)
  66:HindsightCAN/CANMotorUnit.c **** {
 255              		.loc 1 66 0
 256              		.cfi_startproc
 257              		@ args = 0, pretend = 0, frame = 0
 258              		@ frame_needed = 0, uses_anonymous_args = 0
 259              	.LVL31:
 260 0000 10B5     		push	{r4, lr}
 261              		.cfi_def_cfa_offset 8
 262              		.cfi_offset 4, -8
 263              		.cfi_offset 14, -4
  67:HindsightCAN/CANMotorUnit.c ****     return DecodeBytesToIntMSBFirst(packet->data, DLC_MOTOR_UNIT_PID_POS_TGT_SET - 4, DLC_MOTOR_UNI
 264              		.loc 1 67 0
 265 0002 0330     		adds	r0, r0, #3
 266              	.LVL32:
 267 0004 0522     		movs	r2, #5
 268 0006 0121     		movs	r1, #1
 269 0008 FFF7FEFF 		bl	DecodeBytesToIntMSBFirst
 270              	.LVL33:
 271 000c C0B2     		uxtb	r0, r0
  68:HindsightCAN/CANMotorUnit.c **** }
 272              		.loc 1 68 0
 273              		@ sp needed
 274 000e 10BD     		pop	{r4, pc}
ARM GAS  C:\Users\DAVISS~1\AppData\Local\Temp\ccDNfSJf.s 			page 7


 275              		.cfi_endproc
 276              	.LFE6:
 277              		.size	GetPIDTargetFromPacket, .-GetPIDTargetFromPacket
 278              		.section	.text.AssemblePSetPacket,"ax",%progbits
 279              		.align	2
 280              		.global	AssemblePSetPacket
 281              		.code	16
 282              		.thumb_func
 283              		.type	AssemblePSetPacket, %function
 284              	AssemblePSetPacket:
 285              	.LFB7:
  69:HindsightCAN/CANMotorUnit.c **** 
  70:HindsightCAN/CANMotorUnit.c **** void AssemblePSetPacket(CANPacket *packetToAssemble,
  71:HindsightCAN/CANMotorUnit.c ****     uint8_t targetDeviceGroup,
  72:HindsightCAN/CANMotorUnit.c ****     uint8_t targetDeviceSerial,
  73:HindsightCAN/CANMotorUnit.c ****     int32_t pCoef)
  74:HindsightCAN/CANMotorUnit.c **** {
 286              		.loc 1 74 0
 287              		.cfi_startproc
 288              		@ args = 0, pretend = 0, frame = 0
 289              		@ frame_needed = 0, uses_anonymous_args = 0
 290              	.LVL34:
 291 0000 70B5     		push	{r4, r5, r6, lr}
 292              		.cfi_def_cfa_offset 16
 293              		.cfi_offset 4, -16
 294              		.cfi_offset 5, -12
 295              		.cfi_offset 6, -8
 296              		.cfi_offset 14, -4
 297 0002 0400     		movs	r4, r0
 298 0004 1D00     		movs	r5, r3
  75:HindsightCAN/CANMotorUnit.c ****     packetToAssemble->id = ConstructCANID(PACKET_PRIORITY_NORMAL, targetDeviceGroup, targetDeviceSe
 299              		.loc 1 75 0
 300 0006 0120     		movs	r0, #1
 301              	.LVL35:
 302 0008 FFF7FEFF 		bl	ConstructCANID
 303              	.LVL36:
 304 000c 2080     		strh	r0, [r4]
  76:HindsightCAN/CANMotorUnit.c ****     packetToAssemble->dlc = DLC_MOTOR_UNIT_PID_P_SET;
 305              		.loc 1 76 0
 306 000e 0523     		movs	r3, #5
 307 0010 A370     		strb	r3, [r4, #2]
  77:HindsightCAN/CANMotorUnit.c ****     int nextByte = WritePacketIDOnly(packetToAssemble->data, ID_MOTOR_UNIT_PID_P_SET);
 308              		.loc 1 77 0
 309 0012 0334     		adds	r4, r4, #3
 310              	.LVL37:
 311 0014 0521     		movs	r1, #5
 312 0016 2000     		movs	r0, r4
 313 0018 FFF7FEFF 		bl	WritePacketIDOnly
 314              	.LVL38:
 315 001c 0200     		movs	r2, r0
 316              	.LVL39:
  78:HindsightCAN/CANMotorUnit.c ****     PackIntIntoDataMSBFirst(packetToAssemble->data, pCoef, nextByte);
 317              		.loc 1 78 0
 318 001e 2900     		movs	r1, r5
 319 0020 2000     		movs	r0, r4
 320              	.LVL40:
 321 0022 FFF7FEFF 		bl	PackIntIntoDataMSBFirst
ARM GAS  C:\Users\DAVISS~1\AppData\Local\Temp\ccDNfSJf.s 			page 8


 322              	.LVL41:
  79:HindsightCAN/CANMotorUnit.c **** }
 323              		.loc 1 79 0
 324              		@ sp needed
 325              	.LVL42:
 326              	.LVL43:
 327 0026 70BD     		pop	{r4, r5, r6, pc}
 328              		.cfi_endproc
 329              	.LFE7:
 330              		.size	AssemblePSetPacket, .-AssemblePSetPacket
 331              		.section	.text.GetPFromPacket,"ax",%progbits
 332              		.align	2
 333              		.global	GetPFromPacket
 334              		.code	16
 335              		.thumb_func
 336              		.type	GetPFromPacket, %function
 337              	GetPFromPacket:
 338              	.LFB8:
  80:HindsightCAN/CANMotorUnit.c **** 
  81:HindsightCAN/CANMotorUnit.c **** int32_t GetPFromPacket(CANPacket *packet)
  82:HindsightCAN/CANMotorUnit.c **** {
 339              		.loc 1 82 0
 340              		.cfi_startproc
 341              		@ args = 0, pretend = 0, frame = 0
 342              		@ frame_needed = 0, uses_anonymous_args = 0
 343              	.LVL44:
 344 0000 10B5     		push	{r4, lr}
 345              		.cfi_def_cfa_offset 8
 346              		.cfi_offset 4, -8
 347              		.cfi_offset 14, -4
  83:HindsightCAN/CANMotorUnit.c ****     return DecodeBytesToIntMSBFirst(packet->data, DLC_MOTOR_UNIT_PID_P_SET - 4, DLC_MOTOR_UNIT_PID_
 348              		.loc 1 83 0
 349 0002 0330     		adds	r0, r0, #3
 350              	.LVL45:
 351 0004 0522     		movs	r2, #5
 352 0006 0121     		movs	r1, #1
 353 0008 FFF7FEFF 		bl	DecodeBytesToIntMSBFirst
 354              	.LVL46:
  84:HindsightCAN/CANMotorUnit.c **** }
 355              		.loc 1 84 0
 356              		@ sp needed
 357 000c 10BD     		pop	{r4, pc}
 358              		.cfi_endproc
 359              	.LFE8:
 360              		.size	GetPFromPacket, .-GetPFromPacket
 361 000e C046     		.section	.text.AssembleISetPacket,"ax",%progbits
 362              		.align	2
 363              		.global	AssembleISetPacket
 364              		.code	16
 365              		.thumb_func
 366              		.type	AssembleISetPacket, %function
 367              	AssembleISetPacket:
 368              	.LFB9:
  85:HindsightCAN/CANMotorUnit.c **** 
  86:HindsightCAN/CANMotorUnit.c **** void AssembleISetPacket(CANPacket *packetToAssemble,
  87:HindsightCAN/CANMotorUnit.c ****     uint8_t targetDeviceGroup,
  88:HindsightCAN/CANMotorUnit.c ****     uint8_t targetDeviceSerial,
ARM GAS  C:\Users\DAVISS~1\AppData\Local\Temp\ccDNfSJf.s 			page 9


  89:HindsightCAN/CANMotorUnit.c ****     int32_t iCoef)
  90:HindsightCAN/CANMotorUnit.c **** {
 369              		.loc 1 90 0
 370              		.cfi_startproc
 371              		@ args = 0, pretend = 0, frame = 0
 372              		@ frame_needed = 0, uses_anonymous_args = 0
 373              	.LVL47:
 374 0000 70B5     		push	{r4, r5, r6, lr}
 375              		.cfi_def_cfa_offset 16
 376              		.cfi_offset 4, -16
 377              		.cfi_offset 5, -12
 378              		.cfi_offset 6, -8
 379              		.cfi_offset 14, -4
 380 0002 0400     		movs	r4, r0
 381 0004 1D00     		movs	r5, r3
  91:HindsightCAN/CANMotorUnit.c ****     packetToAssemble->id = ConstructCANID(PACKET_PRIORITY_NORMAL, targetDeviceGroup, targetDeviceSe
 382              		.loc 1 91 0
 383 0006 0120     		movs	r0, #1
 384              	.LVL48:
 385 0008 FFF7FEFF 		bl	ConstructCANID
 386              	.LVL49:
 387 000c 2080     		strh	r0, [r4]
  92:HindsightCAN/CANMotorUnit.c ****     packetToAssemble->dlc = DLC_MOTOR_UNIT_PID_I_SET;
 388              		.loc 1 92 0
 389 000e 0523     		movs	r3, #5
 390 0010 A370     		strb	r3, [r4, #2]
  93:HindsightCAN/CANMotorUnit.c ****     int nextByte = WritePacketIDOnly(packetToAssemble->data, ID_MOTOR_UNIT_PID_I_SET);
 391              		.loc 1 93 0
 392 0012 0334     		adds	r4, r4, #3
 393              	.LVL50:
 394 0014 0621     		movs	r1, #6
 395 0016 2000     		movs	r0, r4
 396 0018 FFF7FEFF 		bl	WritePacketIDOnly
 397              	.LVL51:
 398 001c 0200     		movs	r2, r0
 399              	.LVL52:
  94:HindsightCAN/CANMotorUnit.c ****     PackIntIntoDataMSBFirst(packetToAssemble->data, iCoef, nextByte);
 400              		.loc 1 94 0
 401 001e 2900     		movs	r1, r5
 402 0020 2000     		movs	r0, r4
 403              	.LVL53:
 404 0022 FFF7FEFF 		bl	PackIntIntoDataMSBFirst
 405              	.LVL54:
  95:HindsightCAN/CANMotorUnit.c **** }
 406              		.loc 1 95 0
 407              		@ sp needed
 408              	.LVL55:
 409              	.LVL56:
 410 0026 70BD     		pop	{r4, r5, r6, pc}
 411              		.cfi_endproc
 412              	.LFE9:
 413              		.size	AssembleISetPacket, .-AssembleISetPacket
 414              		.section	.text.GetIFromPacket,"ax",%progbits
 415              		.align	2
 416              		.global	GetIFromPacket
 417              		.code	16
 418              		.thumb_func
ARM GAS  C:\Users\DAVISS~1\AppData\Local\Temp\ccDNfSJf.s 			page 10


 419              		.type	GetIFromPacket, %function
 420              	GetIFromPacket:
 421              	.LFB10:
  96:HindsightCAN/CANMotorUnit.c **** 
  97:HindsightCAN/CANMotorUnit.c **** int32_t GetIFromPacket(CANPacket *packet)
  98:HindsightCAN/CANMotorUnit.c **** {
 422              		.loc 1 98 0
 423              		.cfi_startproc
 424              		@ args = 0, pretend = 0, frame = 0
 425              		@ frame_needed = 0, uses_anonymous_args = 0
 426              	.LVL57:
 427 0000 10B5     		push	{r4, lr}
 428              		.cfi_def_cfa_offset 8
 429              		.cfi_offset 4, -8
 430              		.cfi_offset 14, -4
  99:HindsightCAN/CANMotorUnit.c ****     return DecodeBytesToIntMSBFirst(packet->data, DLC_MOTOR_UNIT_PID_I_SET - 4, DLC_MOTOR_UNIT_PID_
 431              		.loc 1 99 0
 432 0002 0330     		adds	r0, r0, #3
 433              	.LVL58:
 434 0004 0522     		movs	r2, #5
 435 0006 0121     		movs	r1, #1
 436 0008 FFF7FEFF 		bl	DecodeBytesToIntMSBFirst
 437              	.LVL59:
 100:HindsightCAN/CANMotorUnit.c **** }
 438              		.loc 1 100 0
 439              		@ sp needed
 440 000c 10BD     		pop	{r4, pc}
 441              		.cfi_endproc
 442              	.LFE10:
 443              		.size	GetIFromPacket, .-GetIFromPacket
 444 000e C046     		.section	.text.AssembleDSetPacket,"ax",%progbits
 445              		.align	2
 446              		.global	AssembleDSetPacket
 447              		.code	16
 448              		.thumb_func
 449              		.type	AssembleDSetPacket, %function
 450              	AssembleDSetPacket:
 451              	.LFB11:
 101:HindsightCAN/CANMotorUnit.c **** 
 102:HindsightCAN/CANMotorUnit.c **** void AssembleDSetPacket(CANPacket *packetToAssemble,
 103:HindsightCAN/CANMotorUnit.c ****     uint8_t targetDeviceGroup,
 104:HindsightCAN/CANMotorUnit.c ****     uint8_t targetDeviceSerial,
 105:HindsightCAN/CANMotorUnit.c ****     int32_t dCoef)
 106:HindsightCAN/CANMotorUnit.c **** {
 452              		.loc 1 106 0
 453              		.cfi_startproc
 454              		@ args = 0, pretend = 0, frame = 0
 455              		@ frame_needed = 0, uses_anonymous_args = 0
 456              	.LVL60:
 457 0000 70B5     		push	{r4, r5, r6, lr}
 458              		.cfi_def_cfa_offset 16
 459              		.cfi_offset 4, -16
 460              		.cfi_offset 5, -12
 461              		.cfi_offset 6, -8
 462              		.cfi_offset 14, -4
 463 0002 0400     		movs	r4, r0
 464 0004 1D00     		movs	r5, r3
ARM GAS  C:\Users\DAVISS~1\AppData\Local\Temp\ccDNfSJf.s 			page 11


 107:HindsightCAN/CANMotorUnit.c ****     packetToAssemble->id = ConstructCANID(PACKET_PRIORITY_NORMAL, targetDeviceGroup, targetDeviceSe
 465              		.loc 1 107 0
 466 0006 0120     		movs	r0, #1
 467              	.LVL61:
 468 0008 FFF7FEFF 		bl	ConstructCANID
 469              	.LVL62:
 470 000c 2080     		strh	r0, [r4]
 108:HindsightCAN/CANMotorUnit.c ****     packetToAssemble->dlc = DLC_MOTOR_UNIT_PID_D_SET;
 471              		.loc 1 108 0
 472 000e 0523     		movs	r3, #5
 473 0010 A370     		strb	r3, [r4, #2]
 109:HindsightCAN/CANMotorUnit.c ****     int nextByte = WritePacketIDOnly(packetToAssemble->data, ID_MOTOR_UNIT_PID_D_SET);
 474              		.loc 1 109 0
 475 0012 0334     		adds	r4, r4, #3
 476              	.LVL63:
 477 0014 0721     		movs	r1, #7
 478 0016 2000     		movs	r0, r4
 479 0018 FFF7FEFF 		bl	WritePacketIDOnly
 480              	.LVL64:
 481 001c 0200     		movs	r2, r0
 482              	.LVL65:
 110:HindsightCAN/CANMotorUnit.c ****     PackIntIntoDataMSBFirst(packetToAssemble->data, dCoef, nextByte);
 483              		.loc 1 110 0
 484 001e 2900     		movs	r1, r5
 485 0020 2000     		movs	r0, r4
 486              	.LVL66:
 487 0022 FFF7FEFF 		bl	PackIntIntoDataMSBFirst
 488              	.LVL67:
 111:HindsightCAN/CANMotorUnit.c **** }
 489              		.loc 1 111 0
 490              		@ sp needed
 491              	.LVL68:
 492              	.LVL69:
 493 0026 70BD     		pop	{r4, r5, r6, pc}
 494              		.cfi_endproc
 495              	.LFE11:
 496              		.size	AssembleDSetPacket, .-AssembleDSetPacket
 497              		.section	.text.GetDFromPacket,"ax",%progbits
 498              		.align	2
 499              		.global	GetDFromPacket
 500              		.code	16
 501              		.thumb_func
 502              		.type	GetDFromPacket, %function
 503              	GetDFromPacket:
 504              	.LFB12:
 112:HindsightCAN/CANMotorUnit.c **** 
 113:HindsightCAN/CANMotorUnit.c **** int32_t GetDFromPacket(CANPacket *packet)
 114:HindsightCAN/CANMotorUnit.c **** {
 505              		.loc 1 114 0
 506              		.cfi_startproc
 507              		@ args = 0, pretend = 0, frame = 0
 508              		@ frame_needed = 0, uses_anonymous_args = 0
 509              	.LVL70:
 510 0000 10B5     		push	{r4, lr}
 511              		.cfi_def_cfa_offset 8
 512              		.cfi_offset 4, -8
 513              		.cfi_offset 14, -4
ARM GAS  C:\Users\DAVISS~1\AppData\Local\Temp\ccDNfSJf.s 			page 12


 115:HindsightCAN/CANMotorUnit.c ****     return DecodeBytesToIntMSBFirst(packet->data, DLC_MOTOR_UNIT_PID_D_SET - 4, DLC_MOTOR_UNIT_PID_
 514              		.loc 1 115 0
 515 0002 0330     		adds	r0, r0, #3
 516              	.LVL71:
 517 0004 0522     		movs	r2, #5
 518 0006 0121     		movs	r1, #1
 519 0008 FFF7FEFF 		bl	DecodeBytesToIntMSBFirst
 520              	.LVL72:
 116:HindsightCAN/CANMotorUnit.c **** }
 521              		.loc 1 116 0
 522              		@ sp needed
 523 000c 10BD     		pop	{r4, pc}
 524              		.cfi_endproc
 525              	.LFE12:
 526              		.size	GetDFromPacket, .-GetDFromPacket
 527 000e C046     		.section	.text.AssembleInitializePacket,"ax",%progbits
 528              		.align	2
 529              		.global	AssembleInitializePacket
 530              		.code	16
 531              		.thumb_func
 532              		.type	AssembleInitializePacket, %function
 533              	AssembleInitializePacket:
 534              	.LFB13:
 117:HindsightCAN/CANMotorUnit.c **** 
 118:HindsightCAN/CANMotorUnit.c **** void AssembleInitializePacket(CANPacket *packetToAssemble,
 119:HindsightCAN/CANMotorUnit.c ****     uint8_t targetDeviceGroup,
 120:HindsightCAN/CANMotorUnit.c ****     uint8_t targetDeviceSerial,
 121:HindsightCAN/CANMotorUnit.c ****     uint8_t initMode)
 122:HindsightCAN/CANMotorUnit.c **** {
 535              		.loc 1 122 0
 536              		.cfi_startproc
 537              		@ args = 0, pretend = 0, frame = 0
 538              		@ frame_needed = 0, uses_anonymous_args = 0
 539              	.LVL73:
 540 0000 70B5     		push	{r4, r5, r6, lr}
 541              		.cfi_def_cfa_offset 16
 542              		.cfi_offset 4, -16
 543              		.cfi_offset 5, -12
 544              		.cfi_offset 6, -8
 545              		.cfi_offset 14, -4
 546 0002 0400     		movs	r4, r0
 547 0004 1D00     		movs	r5, r3
 123:HindsightCAN/CANMotorUnit.c ****     packetToAssemble->id = ConstructCANID(PRIO_MOTOR_UNIT_INIT, targetDeviceGroup, targetDeviceSeri
 548              		.loc 1 123 0
 549 0006 0120     		movs	r0, #1
 550              	.LVL74:
 551 0008 FFF7FEFF 		bl	ConstructCANID
 552              	.LVL75:
 553 000c 2080     		strh	r0, [r4]
 124:HindsightCAN/CANMotorUnit.c ****     packetToAssemble->dlc = DLC_MOTOR_UNIT_INIT;
 554              		.loc 1 124 0
 555 000e 0223     		movs	r3, #2
 556 0010 A370     		strb	r3, [r4, #2]
 125:HindsightCAN/CANMotorUnit.c ****     int nextByte = WritePacketIDOnly(packetToAssemble->data, ID_MOTOR_UNIT_INIT);
 557              		.loc 1 125 0
 558 0012 E01C     		adds	r0, r4, #3
 559 0014 0821     		movs	r1, #8
ARM GAS  C:\Users\DAVISS~1\AppData\Local\Temp\ccDNfSJf.s 			page 13


 560 0016 FFF7FEFF 		bl	WritePacketIDOnly
 561              	.LVL76:
 126:HindsightCAN/CANMotorUnit.c ****     packetToAssemble->data[nextByte] = initMode;
 562              		.loc 1 126 0
 563 001a 2418     		adds	r4, r4, r0
 564              	.LVL77:
 565 001c E570     		strb	r5, [r4, #3]
 127:HindsightCAN/CANMotorUnit.c **** }
 566              		.loc 1 127 0
 567              		@ sp needed
 568 001e 70BD     		pop	{r4, r5, r6, pc}
 569              		.cfi_endproc
 570              	.LFE13:
 571              		.size	AssembleInitializePacket, .-AssembleInitializePacket
 572              		.section	.text.GetInitModeFromPacket,"ax",%progbits
 573              		.align	2
 574              		.global	GetInitModeFromPacket
 575              		.code	16
 576              		.thumb_func
 577              		.type	GetInitModeFromPacket, %function
 578              	GetInitModeFromPacket:
 579              	.LFB14:
 128:HindsightCAN/CANMotorUnit.c **** uint8_t GetInitModeFromPacket(CANPacket *packet)
 129:HindsightCAN/CANMotorUnit.c **** {
 580              		.loc 1 129 0
 581              		.cfi_startproc
 582              		@ args = 0, pretend = 0, frame = 0
 583              		@ frame_needed = 0, uses_anonymous_args = 0
 584              		@ link register save eliminated.
 585              	.LVL78:
 130:HindsightCAN/CANMotorUnit.c ****     return packet->data[1];
 586              		.loc 1 130 0
 587 0000 0079     		ldrb	r0, [r0, #4]
 588              	.LVL79:
 131:HindsightCAN/CANMotorUnit.c **** }
 589              		.loc 1 131 0
 590              		@ sp needed
 591 0002 7047     		bx	lr
 592              		.cfi_endproc
 593              	.LFE14:
 594              		.size	GetInitModeFromPacket, .-GetInitModeFromPacket
 595              		.section	.text.AssembleLimitSwitchAlertPacket,"ax",%progbits
 596              		.align	2
 597              		.global	AssembleLimitSwitchAlertPacket
 598              		.code	16
 599              		.thumb_func
 600              		.type	AssembleLimitSwitchAlertPacket, %function
 601              	AssembleLimitSwitchAlertPacket:
 602              	.LFB15:
 132:HindsightCAN/CANMotorUnit.c **** 
 133:HindsightCAN/CANMotorUnit.c **** void AssembleLimitSwitchAlertPacket(CANPacket *packetToAssemble,
 134:HindsightCAN/CANMotorUnit.c ****     uint8_t targetDeviceGroup,
 135:HindsightCAN/CANMotorUnit.c ****     uint8_t targetDeviceSerial,
 136:HindsightCAN/CANMotorUnit.c ****     uint8_t switches)
 137:HindsightCAN/CANMotorUnit.c **** {
 603              		.loc 1 137 0
 604              		.cfi_startproc
ARM GAS  C:\Users\DAVISS~1\AppData\Local\Temp\ccDNfSJf.s 			page 14


 605              		@ args = 0, pretend = 0, frame = 0
 606              		@ frame_needed = 0, uses_anonymous_args = 0
 607              	.LVL80:
 608 0000 70B5     		push	{r4, r5, r6, lr}
 609              		.cfi_def_cfa_offset 16
 610              		.cfi_offset 4, -16
 611              		.cfi_offset 5, -12
 612              		.cfi_offset 6, -8
 613              		.cfi_offset 14, -4
 614 0002 0400     		movs	r4, r0
 615 0004 1D00     		movs	r5, r3
 138:HindsightCAN/CANMotorUnit.c ****     packetToAssemble->id = ConstructCANID(PRIO_MOTOR_UNIT_LIM_ALERT, targetDeviceGroup, targetDevic
 616              		.loc 1 138 0
 617 0006 0020     		movs	r0, #0
 618              	.LVL81:
 619 0008 FFF7FEFF 		bl	ConstructCANID
 620              	.LVL82:
 621 000c 2080     		strh	r0, [r4]
 139:HindsightCAN/CANMotorUnit.c ****     packetToAssemble->dlc = DLC_MOTOR_UNIT_LIM_ALERT;
 622              		.loc 1 139 0
 623 000e 0423     		movs	r3, #4
 624 0010 A370     		strb	r3, [r4, #2]
 140:HindsightCAN/CANMotorUnit.c ****     int nextByte = WriteSenderSerialAndPacketID(packetToAssemble->data, ID_MOTOR_UNIT_LIM_ALERT);
 625              		.loc 1 140 0
 626 0012 E01C     		adds	r0, r4, #3
 627 0014 0921     		movs	r1, #9
 628 0016 FFF7FEFF 		bl	WriteSenderSerialAndPacketID
 629              	.LVL83:
 141:HindsightCAN/CANMotorUnit.c ****     packetToAssemble->data[nextByte] = switches; 
 630              		.loc 1 141 0
 631 001a 2418     		adds	r4, r4, r0
 632              	.LVL84:
 633 001c E570     		strb	r5, [r4, #3]
 142:HindsightCAN/CANMotorUnit.c **** }
 634              		.loc 1 142 0
 635              		@ sp needed
 636 001e 70BD     		pop	{r4, r5, r6, pc}
 637              		.cfi_endproc
 638              	.LFE15:
 639              		.size	AssembleLimitSwitchAlertPacket, .-AssembleLimitSwitchAlertPacket
 640              		.section	.text.GetLimStatusFromPacket,"ax",%progbits
 641              		.align	2
 642              		.global	GetLimStatusFromPacket
 643              		.code	16
 644              		.thumb_func
 645              		.type	GetLimStatusFromPacket, %function
 646              	GetLimStatusFromPacket:
 647              	.LFB16:
 143:HindsightCAN/CANMotorUnit.c **** uint8_t GetLimStatusFromPacket(CANPacket *packet)
 144:HindsightCAN/CANMotorUnit.c **** {
 648              		.loc 1 144 0
 649              		.cfi_startproc
 650              		@ args = 0, pretend = 0, frame = 0
 651              		@ frame_needed = 0, uses_anonymous_args = 0
 652              		@ link register save eliminated.
 653              	.LVL85:
 145:HindsightCAN/CANMotorUnit.c ****     return packet->data[1];
ARM GAS  C:\Users\DAVISS~1\AppData\Local\Temp\ccDNfSJf.s 			page 15


 654              		.loc 1 145 0
 655 0000 0079     		ldrb	r0, [r0, #4]
 656              	.LVL86:
 146:HindsightCAN/CANMotorUnit.c **** }
 657              		.loc 1 146 0
 658              		@ sp needed
 659 0002 7047     		bx	lr
 660              		.cfi_endproc
 661              	.LFE16:
 662              		.size	GetLimStatusFromPacket, .-GetLimStatusFromPacket
 663              		.section	.text.AssembleEncoderPPJRSetPacket,"ax",%progbits
 664              		.align	2
 665              		.global	AssembleEncoderPPJRSetPacket
 666              		.code	16
 667              		.thumb_func
 668              		.type	AssembleEncoderPPJRSetPacket, %function
 669              	AssembleEncoderPPJRSetPacket:
 670              	.LFB17:
 147:HindsightCAN/CANMotorUnit.c **** 
 148:HindsightCAN/CANMotorUnit.c **** void AssembleEncoderPPJRSetPacket(CANPacket *packetToAssemble,
 149:HindsightCAN/CANMotorUnit.c ****     uint8_t targetDeviceGroup,
 150:HindsightCAN/CANMotorUnit.c ****     uint8_t targetDeviceSerial,
 151:HindsightCAN/CANMotorUnit.c ****     uint32_t pulses)
 152:HindsightCAN/CANMotorUnit.c **** {
 671              		.loc 1 152 0
 672              		.cfi_startproc
 673              		@ args = 0, pretend = 0, frame = 0
 674              		@ frame_needed = 0, uses_anonymous_args = 0
 675              	.LVL87:
 676 0000 70B5     		push	{r4, r5, r6, lr}
 677              		.cfi_def_cfa_offset 16
 678              		.cfi_offset 4, -16
 679              		.cfi_offset 5, -12
 680              		.cfi_offset 6, -8
 681              		.cfi_offset 14, -4
 682 0002 0400     		movs	r4, r0
 683 0004 1D00     		movs	r5, r3
 153:HindsightCAN/CANMotorUnit.c ****     packetToAssemble->id = ConstructCANID(PRIO_MOTOR_UNIT_ENC_PPJR_SET, targetDeviceGroup, targetDe
 684              		.loc 1 153 0
 685 0006 0120     		movs	r0, #1
 686              	.LVL88:
 687 0008 FFF7FEFF 		bl	ConstructCANID
 688              	.LVL89:
 689 000c 2080     		strh	r0, [r4]
 154:HindsightCAN/CANMotorUnit.c ****     packetToAssemble->dlc = DLC_MOTOR_UNIT_ENC_PPJR_SET;
 690              		.loc 1 154 0
 691 000e 0523     		movs	r3, #5
 692 0010 A370     		strb	r3, [r4, #2]
 155:HindsightCAN/CANMotorUnit.c ****     int nextByte = WritePacketIDOnly(packetToAssemble->data, ID_MOTOR_UNIT_ENC_PPJR_SET);
 693              		.loc 1 155 0
 694 0012 0334     		adds	r4, r4, #3
 695              	.LVL90:
 696 0014 0A21     		movs	r1, #10
 697 0016 2000     		movs	r0, r4
 698 0018 FFF7FEFF 		bl	WritePacketIDOnly
 699              	.LVL91:
 700 001c 0200     		movs	r2, r0
ARM GAS  C:\Users\DAVISS~1\AppData\Local\Temp\ccDNfSJf.s 			page 16


 701              	.LVL92:
 156:HindsightCAN/CANMotorUnit.c ****     PackIntIntoDataMSBFirst(packetToAssemble->data, pulses, nextByte);
 702              		.loc 1 156 0
 703 001e 2900     		movs	r1, r5
 704 0020 2000     		movs	r0, r4
 705              	.LVL93:
 706 0022 FFF7FEFF 		bl	PackIntIntoDataMSBFirst
 707              	.LVL94:
 157:HindsightCAN/CANMotorUnit.c **** }
 708              		.loc 1 157 0
 709              		@ sp needed
 710              	.LVL95:
 711              	.LVL96:
 712 0026 70BD     		pop	{r4, r5, r6, pc}
 713              		.cfi_endproc
 714              	.LFE17:
 715              		.size	AssembleEncoderPPJRSetPacket, .-AssembleEncoderPPJRSetPacket
 716              		.section	.text.GetEncoderPPJRFromPacket,"ax",%progbits
 717              		.align	2
 718              		.global	GetEncoderPPJRFromPacket
 719              		.code	16
 720              		.thumb_func
 721              		.type	GetEncoderPPJRFromPacket, %function
 722              	GetEncoderPPJRFromPacket:
 723              	.LFB18:
 158:HindsightCAN/CANMotorUnit.c **** 
 159:HindsightCAN/CANMotorUnit.c **** uint32_t GetEncoderPPJRFromPacket(CANPacket *packet)
 160:HindsightCAN/CANMotorUnit.c **** {
 724              		.loc 1 160 0
 725              		.cfi_startproc
 726              		@ args = 0, pretend = 0, frame = 0
 727              		@ frame_needed = 0, uses_anonymous_args = 0
 728              	.LVL97:
 729 0000 10B5     		push	{r4, lr}
 730              		.cfi_def_cfa_offset 8
 731              		.cfi_offset 4, -8
 732              		.cfi_offset 14, -4
 161:HindsightCAN/CANMotorUnit.c ****     return DecodeBytesToIntMSBFirst(packet->data, 1, 4);
 733              		.loc 1 161 0
 734 0002 0330     		adds	r0, r0, #3
 735              	.LVL98:
 736 0004 0422     		movs	r2, #4
 737 0006 0121     		movs	r1, #1
 738 0008 FFF7FEFF 		bl	DecodeBytesToIntMSBFirst
 739              	.LVL99:
 162:HindsightCAN/CANMotorUnit.c **** }
 740              		.loc 1 162 0
 741              		@ sp needed
 742 000c 10BD     		pop	{r4, pc}
 743              		.cfi_endproc
 744              	.LFE18:
 745              		.size	GetEncoderPPJRFromPacket, .-GetEncoderPPJRFromPacket
 746 000e C046     		.section	.text.AssembleMaxJointRevolutionPacket,"ax",%progbits
 747              		.align	2
 748              		.global	AssembleMaxJointRevolutionPacket
 749              		.code	16
 750              		.thumb_func
ARM GAS  C:\Users\DAVISS~1\AppData\Local\Temp\ccDNfSJf.s 			page 17


 751              		.type	AssembleMaxJointRevolutionPacket, %function
 752              	AssembleMaxJointRevolutionPacket:
 753              	.LFB19:
 163:HindsightCAN/CANMotorUnit.c **** 
 164:HindsightCAN/CANMotorUnit.c **** void AssembleMaxJointRevolutionPacket(CANPacket *packetToAssemble,
 165:HindsightCAN/CANMotorUnit.c ****     uint8_t targetDeviceGroup,
 166:HindsightCAN/CANMotorUnit.c ****     uint8_t targetDeviceSerial,
 167:HindsightCAN/CANMotorUnit.c ****     uint32_t revolutions)
 168:HindsightCAN/CANMotorUnit.c **** {
 754              		.loc 1 168 0
 755              		.cfi_startproc
 756              		@ args = 0, pretend = 0, frame = 0
 757              		@ frame_needed = 0, uses_anonymous_args = 0
 758              	.LVL100:
 759 0000 70B5     		push	{r4, r5, r6, lr}
 760              		.cfi_def_cfa_offset 16
 761              		.cfi_offset 4, -16
 762              		.cfi_offset 5, -12
 763              		.cfi_offset 6, -8
 764              		.cfi_offset 14, -4
 765 0002 0400     		movs	r4, r0
 766 0004 1D00     		movs	r5, r3
 169:HindsightCAN/CANMotorUnit.c ****     packetToAssemble->id = ConstructCANID(PRIO_MOTOR_UNIT_MAX_JNT_REV_SET, targetDeviceGroup, targe
 767              		.loc 1 169 0
 768 0006 0120     		movs	r0, #1
 769              	.LVL101:
 770 0008 FFF7FEFF 		bl	ConstructCANID
 771              	.LVL102:
 772 000c 2080     		strh	r0, [r4]
 170:HindsightCAN/CANMotorUnit.c ****     packetToAssemble->dlc = DLC_MOTOR_UNIT_MAX_JNT_REV_SET;
 773              		.loc 1 170 0
 774 000e 0223     		movs	r3, #2
 775 0010 A370     		strb	r3, [r4, #2]
 171:HindsightCAN/CANMotorUnit.c ****     int nextByte = WritePacketIDOnly(packetToAssemble->data, ID_MOTOR_UNIT_MAX_JNT_REV_SET);
 776              		.loc 1 171 0
 777 0012 0334     		adds	r4, r4, #3
 778              	.LVL103:
 779 0014 0B21     		movs	r1, #11
 780 0016 2000     		movs	r0, r4
 781 0018 FFF7FEFF 		bl	WritePacketIDOnly
 782              	.LVL104:
 783 001c 0200     		movs	r2, r0
 784              	.LVL105:
 172:HindsightCAN/CANMotorUnit.c ****     PackIntIntoDataMSBFirst(packetToAssemble->data, revolutions, nextByte);
 785              		.loc 1 172 0
 786 001e 2900     		movs	r1, r5
 787 0020 2000     		movs	r0, r4
 788              	.LVL106:
 789 0022 FFF7FEFF 		bl	PackIntIntoDataMSBFirst
 790              	.LVL107:
 173:HindsightCAN/CANMotorUnit.c ****     
 174:HindsightCAN/CANMotorUnit.c **** }
 791              		.loc 1 174 0
 792              		@ sp needed
 793              	.LVL108:
 794              	.LVL109:
 795 0026 70BD     		pop	{r4, r5, r6, pc}
ARM GAS  C:\Users\DAVISS~1\AppData\Local\Temp\ccDNfSJf.s 			page 18


 796              		.cfi_endproc
 797              	.LFE19:
 798              		.size	AssembleMaxJointRevolutionPacket, .-AssembleMaxJointRevolutionPacket
 799              		.section	.text.GetMaxJointRevolutionsFromPacket,"ax",%progbits
 800              		.align	2
 801              		.global	GetMaxJointRevolutionsFromPacket
 802              		.code	16
 803              		.thumb_func
 804              		.type	GetMaxJointRevolutionsFromPacket, %function
 805              	GetMaxJointRevolutionsFromPacket:
 806              	.LFB20:
 175:HindsightCAN/CANMotorUnit.c **** uint32_t GetMaxJointRevolutionsFromPacket(CANPacket *packet)
 176:HindsightCAN/CANMotorUnit.c **** {
 807              		.loc 1 176 0
 808              		.cfi_startproc
 809              		@ args = 0, pretend = 0, frame = 0
 810              		@ frame_needed = 0, uses_anonymous_args = 0
 811              	.LVL110:
 812 0000 10B5     		push	{r4, lr}
 813              		.cfi_def_cfa_offset 8
 814              		.cfi_offset 4, -8
 815              		.cfi_offset 14, -4
 177:HindsightCAN/CANMotorUnit.c ****     return DecodeBytesToIntMSBFirst(packet->data, 1, 4);
 816              		.loc 1 177 0
 817 0002 0330     		adds	r0, r0, #3
 818              	.LVL111:
 819 0004 0422     		movs	r2, #4
 820 0006 0121     		movs	r1, #1
 821 0008 FFF7FEFF 		bl	DecodeBytesToIntMSBFirst
 822              	.LVL112:
 178:HindsightCAN/CANMotorUnit.c **** }
 823              		.loc 1 178 0
 824              		@ sp needed
 825 000c 10BD     		pop	{r4, pc}
 826              		.cfi_endproc
 827              	.LFE20:
 828              		.size	GetMaxJointRevolutionsFromPacket, .-GetMaxJointRevolutionsFromPacket
 829 000e C046     		.section	.text.AssembleEncoderInitializePacket,"ax",%progbits
 830              		.align	2
 831              		.global	AssembleEncoderInitializePacket
 832              		.code	16
 833              		.thumb_func
 834              		.type	AssembleEncoderInitializePacket, %function
 835              	AssembleEncoderInitializePacket:
 836              	.LFB21:
 179:HindsightCAN/CANMotorUnit.c **** 
 180:HindsightCAN/CANMotorUnit.c **** void AssembleEncoderInitializePacket(CANPacket *packetToAssemble,
 181:HindsightCAN/CANMotorUnit.c ****     uint8_t targetDeviceGroup,
 182:HindsightCAN/CANMotorUnit.c ****     uint8_t targetDeviceSerial,
 183:HindsightCAN/CANMotorUnit.c ****     uint8_t encoderType,
 184:HindsightCAN/CANMotorUnit.c ****     uint8_t angleDirection,
 185:HindsightCAN/CANMotorUnit.c ****     uint8_t zeroAngle)
 186:HindsightCAN/CANMotorUnit.c **** {
 837              		.loc 1 186 0
 838              		.cfi_startproc
 839              		@ args = 8, pretend = 0, frame = 0
 840              		@ frame_needed = 0, uses_anonymous_args = 0
ARM GAS  C:\Users\DAVISS~1\AppData\Local\Temp\ccDNfSJf.s 			page 19


 841              	.LVL113:
 842 0000 F8B5     		push	{r3, r4, r5, r6, r7, lr}
 843              		.cfi_def_cfa_offset 24
 844              		.cfi_offset 3, -24
 845              		.cfi_offset 4, -20
 846              		.cfi_offset 5, -16
 847              		.cfi_offset 6, -12
 848              		.cfi_offset 7, -8
 849              		.cfi_offset 14, -4
 850 0002 0400     		movs	r4, r0
 851 0004 1F00     		movs	r7, r3
 852 0006 06AB     		add	r3, sp, #24
 853              	.LVL114:
 854 0008 1E78     		ldrb	r6, [r3]
 855 000a 07AB     		add	r3, sp, #28
 856              	.LVL115:
 857 000c 1D78     		ldrb	r5, [r3]
 187:HindsightCAN/CANMotorUnit.c ****     packetToAssemble->id = ConstructCANID(PRIO_MOTOR_UNIT_ENC_INIT, targetDeviceGroup, targetDevice
 858              		.loc 1 187 0
 859 000e 0120     		movs	r0, #1
 860              	.LVL116:
 861 0010 FFF7FEFF 		bl	ConstructCANID
 862              	.LVL117:
 863 0014 2080     		strh	r0, [r4]
 188:HindsightCAN/CANMotorUnit.c ****     packetToAssemble->dlc = DLC_MOTOR_UNIT_ENC_INIT;
 864              		.loc 1 188 0
 865 0016 0223     		movs	r3, #2
 866 0018 A370     		strb	r3, [r4, #2]
 189:HindsightCAN/CANMotorUnit.c ****     int nextByte = WritePacketIDOnly(packetToAssemble->data, ID_MOTOR_UNIT_ENC_INIT);
 867              		.loc 1 189 0
 868 001a E01C     		adds	r0, r4, #3
 869 001c 0C21     		movs	r1, #12
 870 001e FFF7FEFF 		bl	WritePacketIDOnly
 871              	.LVL118:
 190:HindsightCAN/CANMotorUnit.c ****     packetToAssemble->data[nextByte] = 0;
 872              		.loc 1 190 0
 873 0022 2318     		adds	r3, r4, r0
 874 0024 0022     		movs	r2, #0
 875 0026 DA70     		strb	r2, [r3, #3]
 191:HindsightCAN/CANMotorUnit.c ****     if(encoderType)
 876              		.loc 1 191 0
 877 0028 002F     		cmp	r7, #0
 878 002a 01D0     		beq	.L23
 192:HindsightCAN/CANMotorUnit.c ****     {
 193:HindsightCAN/CANMotorUnit.c ****         packetToAssemble->data[nextByte] |= 0b100;
 879              		.loc 1 193 0
 880 002c 0432     		adds	r2, r2, #4
 881 002e DA70     		strb	r2, [r3, #3]
 882              	.L23:
 194:HindsightCAN/CANMotorUnit.c ****     }
 195:HindsightCAN/CANMotorUnit.c ****     if(angleDirection)
 883              		.loc 1 195 0
 884 0030 002E     		cmp	r6, #0
 885 0032 04D0     		beq	.L24
 196:HindsightCAN/CANMotorUnit.c ****     {
 197:HindsightCAN/CANMotorUnit.c ****         packetToAssemble->data[nextByte] |= 0b010;
 886              		.loc 1 197 0
ARM GAS  C:\Users\DAVISS~1\AppData\Local\Temp\ccDNfSJf.s 			page 20


 887 0034 2218     		adds	r2, r4, r0
 888 0036 D178     		ldrb	r1, [r2, #3]
 889 0038 0223     		movs	r3, #2
 890 003a 0B43     		orrs	r3, r1
 891 003c D370     		strb	r3, [r2, #3]
 892              	.L24:
 198:HindsightCAN/CANMotorUnit.c ****     }
 199:HindsightCAN/CANMotorUnit.c ****     if(zeroAngle)
 893              		.loc 1 199 0
 894 003e 002D     		cmp	r5, #0
 895 0040 04D0     		beq	.L22
 200:HindsightCAN/CANMotorUnit.c ****     {
 201:HindsightCAN/CANMotorUnit.c ****         packetToAssemble->data[nextByte] |= 0b001;
 896              		.loc 1 201 0
 897 0042 2018     		adds	r0, r4, r0
 898              	.LVL119:
 899 0044 C278     		ldrb	r2, [r0, #3]
 900 0046 0123     		movs	r3, #1
 901 0048 1343     		orrs	r3, r2
 902 004a C370     		strb	r3, [r0, #3]
 903              	.L22:
 202:HindsightCAN/CANMotorUnit.c ****     }
 203:HindsightCAN/CANMotorUnit.c **** }
 904              		.loc 1 203 0
 905              		@ sp needed
 906              	.LVL120:
 907 004c F8BD     		pop	{r3, r4, r5, r6, r7, pc}
 908              		.cfi_endproc
 909              	.LFE21:
 910              		.size	AssembleEncoderInitializePacket, .-AssembleEncoderInitializePacket
 911 004e C046     		.section	.text.GetEncoderTypeFromPacket,"ax",%progbits
 912              		.align	2
 913              		.global	GetEncoderTypeFromPacket
 914              		.code	16
 915              		.thumb_func
 916              		.type	GetEncoderTypeFromPacket, %function
 917              	GetEncoderTypeFromPacket:
 918              	.LFB22:
 204:HindsightCAN/CANMotorUnit.c **** 
 205:HindsightCAN/CANMotorUnit.c **** uint8_t GetEncoderTypeFromPacket(CANPacket *packet)
 206:HindsightCAN/CANMotorUnit.c **** {
 919              		.loc 1 206 0
 920              		.cfi_startproc
 921              		@ args = 0, pretend = 0, frame = 0
 922              		@ frame_needed = 0, uses_anonymous_args = 0
 923              		@ link register save eliminated.
 924              	.LVL121:
 207:HindsightCAN/CANMotorUnit.c ****     return(packet->data[1] & 0b100);
 925              		.loc 1 207 0
 926 0000 0379     		ldrb	r3, [r0, #4]
 927 0002 0420     		movs	r0, #4
 928              	.LVL122:
 929 0004 1840     		ands	r0, r3
 208:HindsightCAN/CANMotorUnit.c **** }
 930              		.loc 1 208 0
 931              		@ sp needed
 932 0006 7047     		bx	lr
ARM GAS  C:\Users\DAVISS~1\AppData\Local\Temp\ccDNfSJf.s 			page 21


 933              		.cfi_endproc
 934              	.LFE22:
 935              		.size	GetEncoderTypeFromPacket, .-GetEncoderTypeFromPacket
 936              		.section	.text.GetEncoderDirectionFromPacket,"ax",%progbits
 937              		.align	2
 938              		.global	GetEncoderDirectionFromPacket
 939              		.code	16
 940              		.thumb_func
 941              		.type	GetEncoderDirectionFromPacket, %function
 942              	GetEncoderDirectionFromPacket:
 943              	.LFB23:
 209:HindsightCAN/CANMotorUnit.c **** uint8_t GetEncoderDirectionFromPacket(CANPacket *packet)
 210:HindsightCAN/CANMotorUnit.c **** {
 944              		.loc 1 210 0
 945              		.cfi_startproc
 946              		@ args = 0, pretend = 0, frame = 0
 947              		@ frame_needed = 0, uses_anonymous_args = 0
 948              		@ link register save eliminated.
 949              	.LVL123:
 211:HindsightCAN/CANMotorUnit.c ****     return(packet->data[1] & 0b010);
 950              		.loc 1 211 0
 951 0000 0379     		ldrb	r3, [r0, #4]
 952 0002 0220     		movs	r0, #2
 953              	.LVL124:
 954 0004 1840     		ands	r0, r3
 212:HindsightCAN/CANMotorUnit.c **** }
 955              		.loc 1 212 0
 956              		@ sp needed
 957 0006 7047     		bx	lr
 958              		.cfi_endproc
 959              	.LFE23:
 960              		.size	GetEncoderDirectionFromPacket, .-GetEncoderDirectionFromPacket
 961              		.section	.text.GetEncoderZeroFromPacket,"ax",%progbits
 962              		.align	2
 963              		.global	GetEncoderZeroFromPacket
 964              		.code	16
 965              		.thumb_func
 966              		.type	GetEncoderZeroFromPacket, %function
 967              	GetEncoderZeroFromPacket:
 968              	.LFB24:
 213:HindsightCAN/CANMotorUnit.c **** uint8_t GetEncoderZeroFromPacket(CANPacket *packet)
 214:HindsightCAN/CANMotorUnit.c **** {
 969              		.loc 1 214 0
 970              		.cfi_startproc
 971              		@ args = 0, pretend = 0, frame = 0
 972              		@ frame_needed = 0, uses_anonymous_args = 0
 973              		@ link register save eliminated.
 974              	.LVL125:
 215:HindsightCAN/CANMotorUnit.c ****     return(packet->data[1] & 0b001);
 975              		.loc 1 215 0
 976 0000 0379     		ldrb	r3, [r0, #4]
 977 0002 0120     		movs	r0, #1
 978              	.LVL126:
 979 0004 1840     		ands	r0, r3
 216:HindsightCAN/CANMotorUnit.c **** }
 980              		.loc 1 216 0
 981              		@ sp needed
ARM GAS  C:\Users\DAVISS~1\AppData\Local\Temp\ccDNfSJf.s 			page 22


 982 0006 7047     		bx	lr
 983              		.cfi_endproc
 984              	.LFE24:
 985              		.size	GetEncoderZeroFromPacket, .-GetEncoderZeroFromPacket
 986              		.text
 987              	.Letext0:
 988              		.file 2 "x:\\programs\\cypress\\psoc creator\\4.4\\psoc creator\\import\\gnu\\arm\\5.4.1\\arm-none
 989              		.file 3 "x:\\programs\\cypress\\psoc creator\\4.4\\psoc creator\\import\\gnu\\arm\\5.4.1\\arm-none
 990              		.file 4 "HindsightCAN\\CANPacket.h"