ARM GAS  C:\Users\TT\AppData\Local\Temp\ccNe8fWh.s 			page 1


   1              		.syntax unified
   2              		.cpu cortex-m0
   3              		.fpu softvfp
   4              		.eabi_attribute 20, 1
   5              		.eabi_attribute 21, 1
   6              		.eabi_attribute 23, 3
   7              		.eabi_attribute 24, 1
   8              		.eabi_attribute 25, 1
   9              		.eabi_attribute 26, 1
  10              		.eabi_attribute 30, 1
  11              		.eabi_attribute 34, 0
  12              		.eabi_attribute 18, 4
  13              		.thumb
  14              		.syntax unified
  15              		.file	"CANPacket.c"
  16              		.text
  17              	.Ltext0:
  18              		.cfi_sections	.debug_frame
  19              		.section	.text.ConstructCANID,"ax",%progbits
  20              		.align	2
  21              		.global	ConstructCANID
  22              		.code	16
  23              		.thumb_func
  24              		.type	ConstructCANID, %function
  25              	ConstructCANID:
  26              	.LFB0:
  27              		.file 1 "HindsightCAN\\CANPacket.c"
   1:HindsightCAN/CANPacket.c **** /* File:         CANPacket.c
   2:HindsightCAN/CANPacket.c ****  * Authors:      Jaden Bottemiller, Benton Kwong, Dylan Tomberlin.
   3:HindsightCAN/CANPacket.c ****  * Organization: Husky Robotics Team
   4:HindsightCAN/CANPacket.c ****  * 
   5:HindsightCAN/CANPacket.c ****  * This file includes fuction definitions for CAN Packet manipulation
   6:HindsightCAN/CANPacket.c ****  * using the Hindsight CAN Communication standard.
   7:HindsightCAN/CANPacket.c ****  * Documentation: https://huskyroboticsteam.slite.com/app/channels/iU0BryG7M9/collections/aXvWTcIR6
   8:HindsightCAN/CANPacket.c ****  */
   9:HindsightCAN/CANPacket.c **** 
  10:HindsightCAN/CANPacket.c **** #include "CANPacket.h"
  11:HindsightCAN/CANPacket.c **** #include "Port.h"
  12:HindsightCAN/CANPacket.c **** 
  13:HindsightCAN/CANPacket.c **** // Constructs a CAN ID according to standards set by electronics subsystem
  14:HindsightCAN/CANPacket.c **** // for hindsight (PY2020 rover). Not compatible with Orpheus (PY2019)
  15:HindsightCAN/CANPacket.c **** // Inputs: 
  16:HindsightCAN/CANPacket.c **** //      priority:   A byte determing if the packet should be prioritized
  17:HindsightCAN/CANPacket.c **** //                  High priority would mean setting this value to 0
  18:HindsightCAN/CANPacket.c **** //                  Low priority would mean setting this value to 1
  19:HindsightCAN/CANPacket.c **** //      devGroup:   ID of device group
  20:HindsightCAN/CANPacket.c **** //      devSerial:  Serial value of device in the device group
  21:HindsightCAN/CANPacket.c **** // Output:
  22:HindsightCAN/CANPacket.c **** //      CANID:      CAN ID with correct formatting        
  23:HindsightCAN/CANPacket.c **** uint16_t ConstructCANID(uint8_t priority, uint8_t devGroup, uint8_t devSerial)
  24:HindsightCAN/CANPacket.c **** {
  28              		.loc 1 24 0
  29              		.cfi_startproc
  30              		@ args = 0, pretend = 0, frame = 0
  31              		@ frame_needed = 0, uses_anonymous_args = 0
  32              		@ link register save eliminated.
  33              	.LVL0:
ARM GAS  C:\Users\TT\AppData\Local\Temp\ccNe8fWh.s 			page 2


  25:HindsightCAN/CANPacket.c ****     uint16_t CANID = 0x0000;
  26:HindsightCAN/CANPacket.c ****     CANID = CANID | ((priority & 0x01) << 10);
  34              		.loc 1 26 0
  35 0000 8002     		lsls	r0, r0, #10
  36              	.LVL1:
  37 0002 8023     		movs	r3, #128
  38 0004 DB00     		lsls	r3, r3, #3
  39 0006 1840     		ands	r0, r3
  40              	.LVL2:
  27:HindsightCAN/CANPacket.c ****     CANID = CANID | ((devGroup & 0x0F) << 6);
  41              		.loc 1 27 0
  42 0008 8901     		lsls	r1, r1, #6
  43              	.LVL3:
  44 000a 403B     		subs	r3, r3, #64
  45 000c 1940     		ands	r1, r3
  46 000e 0143     		orrs	r1, r0
  47              	.LVL4:
  28:HindsightCAN/CANPacket.c ****     CANID = CANID | (devSerial & 0x3F);
  48              		.loc 1 28 0
  49 0010 3F20     		movs	r0, #63
  50 0012 0240     		ands	r2, r0
  51              	.LVL5:
  52 0014 1143     		orrs	r1, r2
  53              	.LVL6:
  54 0016 0800     		movs	r0, r1
  55              	.LVL7:
  29:HindsightCAN/CANPacket.c **** 
  30:HindsightCAN/CANPacket.c ****     return CANID;
  31:HindsightCAN/CANPacket.c **** }
  56              		.loc 1 31 0
  57              		@ sp needed
  58 0018 7047     		bx	lr
  59              		.cfi_endproc
  60              	.LFE0:
  61              		.size	ConstructCANID, .-ConstructCANID
  62 001a C046     		.section	.text.ConstructCANPacket,"ax",%progbits
  63              		.align	2
  64              		.global	ConstructCANPacket
  65              		.code	16
  66              		.thumb_func
  67              		.type	ConstructCANPacket, %function
  68              	ConstructCANPacket:
  69              	.LFB1:
  32:HindsightCAN/CANPacket.c **** 
  33:HindsightCAN/CANPacket.c **** // Creates a CANPacket that can be used by fuctions in this file
  34:HindsightCAN/CANPacket.c **** // Inputs:
  35:HindsightCAN/CANPacket.c **** //      id:         CAN ID for the packet
  36:HindsightCAN/CANPacket.c **** //      dlc:        Data length for the packet. It's the number of bytes used
  37:HindsightCAN/CANPacket.c **** //                  in data payload for packet
  38:HindsightCAN/CANPacket.c **** //      data:       An array of bytes used for sending data over CAN
  39:HindsightCAN/CANPacket.c **** // Outputs:
  40:HindsightCAN/CANPacket.c **** //      CANPacket:  A struct used for storing the parts needed for a CAN Packet
  41:HindsightCAN/CANPacket.c **** CANPacket ConstructCANPacket(uint16_t id, uint8_t dlc, uint8_t* data)
  42:HindsightCAN/CANPacket.c **** {
  70              		.loc 1 42 0
  71              		.cfi_startproc
  72              		@ args = 0, pretend = 0, frame = 0
ARM GAS  C:\Users\TT\AppData\Local\Temp\ccNe8fWh.s 			page 3


  73              		@ frame_needed = 0, uses_anonymous_args = 0
  74              	.LVL8:
  75 0000 30B5     		push	{r4, r5, lr}
  76              		.cfi_def_cfa_offset 12
  77              		.cfi_offset 4, -12
  78              		.cfi_offset 5, -8
  79              		.cfi_offset 14, -4
  43:HindsightCAN/CANPacket.c ****     CANPacket cp;
  44:HindsightCAN/CANPacket.c ****     cp.id = id;
  80              		.loc 1 44 0
  81 0002 0180     		strh	r1, [r0]
  45:HindsightCAN/CANPacket.c ****     cp.dlc = dlc;   
  82              		.loc 1 45 0
  83 0004 8270     		strb	r2, [r0, #2]
  84              	.LVL9:
  85              	.LBB2:
  46:HindsightCAN/CANPacket.c ****     for(int i = 0; i < dlc; i++)
  86              		.loc 1 46 0
  87 0006 0021     		movs	r1, #0
  88              	.LVL10:
  89 0008 03E0     		b	.L3
  90              	.LVL11:
  91              	.L4:
  47:HindsightCAN/CANPacket.c ****     {
  48:HindsightCAN/CANPacket.c ****         cp.data[i] = data[i];
  92              		.loc 1 48 0 discriminator 3
  93 000a 5D5C     		ldrb	r5, [r3, r1]
  94 000c 4418     		adds	r4, r0, r1
  95 000e E570     		strb	r5, [r4, #3]
  46:HindsightCAN/CANPacket.c ****     for(int i = 0; i < dlc; i++)
  96              		.loc 1 46 0 discriminator 3
  97 0010 0131     		adds	r1, r1, #1
  98              	.LVL12:
  99              	.L3:
  46:HindsightCAN/CANPacket.c ****     for(int i = 0; i < dlc; i++)
 100              		.loc 1 46 0 is_stmt 0 discriminator 1
 101 0012 9142     		cmp	r1, r2
 102 0014 F9DB     		blt	.L4
 103              	.LBE2:
  49:HindsightCAN/CANPacket.c ****     }
  50:HindsightCAN/CANPacket.c **** 
  51:HindsightCAN/CANPacket.c ****     return cp;
  52:HindsightCAN/CANPacket.c **** }
 104              		.loc 1 52 0 is_stmt 1
 105              		@ sp needed
 106 0016 30BD     		pop	{r4, r5, pc}
 107              		.cfi_endproc
 108              	.LFE1:
 109              		.size	ConstructCANPacket, .-ConstructCANPacket
 110              		.section	.text.WriteSenderSerialAndPacketID,"ax",%progbits
 111              		.align	2
 112              		.global	WriteSenderSerialAndPacketID
 113              		.code	16
 114              		.thumb_func
 115              		.type	WriteSenderSerialAndPacketID, %function
 116              	WriteSenderSerialAndPacketID:
 117              	.LFB2:
ARM GAS  C:\Users\TT\AppData\Local\Temp\ccNe8fWh.s 			page 4


  53:HindsightCAN/CANPacket.c **** 
  54:HindsightCAN/CANPacket.c **** // Writes sender group, serial number, and packet ID to data bytes. Writes to bytes 0 and 1 in data
  55:HindsightCAN/CANPacket.c **** // DO NOT OVERWRITE BYTES 0 AND 1 AFTER CALLING THIS FUNCTION.
  56:HindsightCAN/CANPacket.c **** // Inputs:
  57:HindsightCAN/CANPacket.c **** //      data:           Data to write to.
  58:HindsightCAN/CANPacket.c **** //TODO, upon approval from @jaden, delete senderGroup and senderSerial params, as these are handled
  59:HindsightCAN/CANPacket.c **** //      senderGroup:    Device group the sender device is a part of.
  60:HindsightCAN/CANPacket.c **** //      senderSerial:   Device serial number for sender.
  61:HindsightCAN/CANPacket.c **** //      packetID:       ID for packet to be sent.
  62:HindsightCAN/CANPacket.c **** // Output:
  63:HindsightCAN/CANPacket.c **** //                      Index of next byte in `data` that can be written
  64:HindsightCAN/CANPacket.c **** int WriteSenderSerialAndPacketID(uint8_t *data, uint8_t packetID)
  65:HindsightCAN/CANPacket.c **** {
 118              		.loc 1 65 0
 119              		.cfi_startproc
 120              		@ args = 0, pretend = 0, frame = 0
 121              		@ frame_needed = 0, uses_anonymous_args = 0
 122              	.LVL13:
 123 0000 10B5     		push	{r4, lr}
 124              		.cfi_def_cfa_offset 8
 125              		.cfi_offset 4, -8
 126              		.cfi_offset 14, -4
 127 0002 0400     		movs	r4, r0
  66:HindsightCAN/CANPacket.c ****     data[0] = packetID;
 128              		.loc 1 66 0
 129 0004 0170     		strb	r1, [r0]
  67:HindsightCAN/CANPacket.c ****     data[1] = getLocalDeviceGroup();
 130              		.loc 1 67 0
 131 0006 FFF7FEFF 		bl	getLocalDeviceGroup
 132              	.LVL14:
 133 000a 6070     		strb	r0, [r4, #1]
  68:HindsightCAN/CANPacket.c ****     data[2] = getLocalDeviceSerial();
 134              		.loc 1 68 0
 135 000c FFF7FEFF 		bl	getLocalDeviceSerial
 136              	.LVL15:
 137 0010 A070     		strb	r0, [r4, #2]
  69:HindsightCAN/CANPacket.c ****     return 3;
  70:HindsightCAN/CANPacket.c **** }
 138              		.loc 1 70 0
 139 0012 0320     		movs	r0, #3
 140              		@ sp needed
 141              	.LVL16:
 142 0014 10BD     		pop	{r4, pc}
 143              		.cfi_endproc
 144              	.LFE2:
 145              		.size	WriteSenderSerialAndPacketID, .-WriteSenderSerialAndPacketID
 146 0016 C046     		.section	.text.WritePacketIDOnly,"ax",%progbits
 147              		.align	2
 148              		.global	WritePacketIDOnly
 149              		.code	16
 150              		.thumb_func
 151              		.type	WritePacketIDOnly, %function
 152              	WritePacketIDOnly:
 153              	.LFB3:
  71:HindsightCAN/CANPacket.c **** 
  72:HindsightCAN/CANPacket.c **** // Writes packet ID to data bytes. Writes to byte 0 data.
  73:HindsightCAN/CANPacket.c **** // DO NOT OVERWRITE BYTE 0 AFTER CALLING THIS FUNCTION.
ARM GAS  C:\Users\TT\AppData\Local\Temp\ccNe8fWh.s 			page 5


  74:HindsightCAN/CANPacket.c **** // Inputs:
  75:HindsightCAN/CANPacket.c **** //      data:           Data to write to.
  76:HindsightCAN/CANPacket.c **** //      packetID:       ID for packet to be sent.
  77:HindsightCAN/CANPacket.c **** // Outputs:
  78:HindsightCAN/CANPacket.c **** //                      Index to next byte in `data` that can be written;
  79:HindsightCAN/CANPacket.c **** int WritePacketIDOnly(uint8_t *data, uint8_t packetID)
  80:HindsightCAN/CANPacket.c **** {
 154              		.loc 1 80 0
 155              		.cfi_startproc
 156              		@ args = 0, pretend = 0, frame = 0
 157              		@ frame_needed = 0, uses_anonymous_args = 0
 158              		@ link register save eliminated.
 159              	.LVL17:
  81:HindsightCAN/CANPacket.c ****     data[0] =  packetID;
 160              		.loc 1 81 0
 161 0000 0170     		strb	r1, [r0]
  82:HindsightCAN/CANPacket.c ****     return 1;
  83:HindsightCAN/CANPacket.c **** }
 162              		.loc 1 83 0
 163 0002 0120     		movs	r0, #1
 164              	.LVL18:
 165              		@ sp needed
 166 0004 7047     		bx	lr
 167              		.cfi_endproc
 168              	.LFE3:
 169              		.size	WritePacketIDOnly, .-WritePacketIDOnly
 170 0006 C046     		.section	.text.GetPacketPriority,"ax",%progbits
 171              		.align	2
 172              		.global	GetPacketPriority
 173              		.code	16
 174              		.thumb_func
 175              		.type	GetPacketPriority, %function
 176              	GetPacketPriority:
 177              	.LFB4:
  84:HindsightCAN/CANPacket.c **** 
  85:HindsightCAN/CANPacket.c **** // Gets the priority  of a given packet
  86:HindsightCAN/CANPacket.c **** // Inputs:
  87:HindsightCAN/CANPacket.c **** //      packet:     CAN Packet to analyze
  88:HindsightCAN/CANPacket.c **** // Outputs:
  89:HindsightCAN/CANPacket.c **** //      priority    byte representing packet priority,
  90:HindsightCAN/CANPacket.c **** //                  (0 for high, 1 for low)
  91:HindsightCAN/CANPacket.c **** uint8_t GetPacketPriority(CANPacket *packet)
  92:HindsightCAN/CANPacket.c **** {
 178              		.loc 1 92 0
 179              		.cfi_startproc
 180              		@ args = 0, pretend = 0, frame = 0
 181              		@ frame_needed = 0, uses_anonymous_args = 0
 182              		@ link register save eliminated.
 183              	.LVL19:
  93:HindsightCAN/CANPacket.c ****     return (packet->id >> 10) & 0x1;
 184              		.loc 1 93 0
 185 0000 0088     		ldrh	r0, [r0]
 186              	.LVL20:
 187 0002 800A     		lsrs	r0, r0, #10
 188 0004 0123     		movs	r3, #1
 189 0006 1840     		ands	r0, r3
  94:HindsightCAN/CANPacket.c **** }
ARM GAS  C:\Users\TT\AppData\Local\Temp\ccNe8fWh.s 			page 6


 190              		.loc 1 94 0
 191              		@ sp needed
 192 0008 7047     		bx	lr
 193              		.cfi_endproc
 194              	.LFE4:
 195              		.size	GetPacketPriority, .-GetPacketPriority
 196 000a C046     		.section	.text.GetDeviceSerialNumber,"ax",%progbits
 197              		.align	2
 198              		.global	GetDeviceSerialNumber
 199              		.code	16
 200              		.thumb_func
 201              		.type	GetDeviceSerialNumber, %function
 202              	GetDeviceSerialNumber:
 203              	.LFB5:
  95:HindsightCAN/CANPacket.c **** 
  96:HindsightCAN/CANPacket.c **** // Gets the device serial number from CAN packet
  97:HindsightCAN/CANPacket.c **** // Inputs:
  98:HindsightCAN/CANPacket.c **** //      packet:     CAN Packet to analyze
  99:HindsightCAN/CANPacket.c **** // Outputs:
 100:HindsightCAN/CANPacket.c **** //                  A byte representing the device
 101:HindsightCAN/CANPacket.c **** //                  serial number.
 102:HindsightCAN/CANPacket.c **** uint8_t GetDeviceSerialNumber(CANPacket *packet)
 103:HindsightCAN/CANPacket.c **** {
 204              		.loc 1 103 0
 205              		.cfi_startproc
 206              		@ args = 0, pretend = 0, frame = 0
 207              		@ frame_needed = 0, uses_anonymous_args = 0
 208              		@ link register save eliminated.
 209              	.LVL21:
 104:HindsightCAN/CANPacket.c ****     uint8_t id = (packet->id & 0x00FF);
 210              		.loc 1 104 0
 211 0000 0378     		ldrb	r3, [r0]
 212              	.LVL22:
 105:HindsightCAN/CANPacket.c ****     // Strip fo only serial number portion of id
 106:HindsightCAN/CANPacket.c ****     return id & 0x3F;
 213              		.loc 1 106 0
 214 0002 3F20     		movs	r0, #63
 215              	.LVL23:
 216 0004 1840     		ands	r0, r3
 107:HindsightCAN/CANPacket.c **** }
 217              		.loc 1 107 0
 218              		@ sp needed
 219 0006 7047     		bx	lr
 220              		.cfi_endproc
 221              	.LFE5:
 222              		.size	GetDeviceSerialNumber, .-GetDeviceSerialNumber
 223              		.section	.text.GetSenderDeviceSerialNumber,"ax",%progbits
 224              		.align	2
 225              		.global	GetSenderDeviceSerialNumber
 226              		.code	16
 227              		.thumb_func
 228              		.type	GetSenderDeviceSerialNumber, %function
 229              	GetSenderDeviceSerialNumber:
 230              	.LFB6:
 108:HindsightCAN/CANPacket.c **** 
 109:HindsightCAN/CANPacket.c **** // Returns Sender device serial number as 
 110:HindsightCAN/CANPacket.c **** //      packet:       CAN packet from which to resolve serial number
ARM GAS  C:\Users\TT\AppData\Local\Temp\ccNe8fWh.s 			page 7


 111:HindsightCAN/CANPacket.c **** // Outputs:
 112:HindsightCAN/CANPacket.c **** //                  A byte representing the sender device number
 113:HindsightCAN/CANPacket.c **** uint8_t GetSenderDeviceSerialNumber(CANPacket *packet)
 114:HindsightCAN/CANPacket.c **** {
 231              		.loc 1 114 0
 232              		.cfi_startproc
 233              		@ args = 0, pretend = 0, frame = 0
 234              		@ frame_needed = 0, uses_anonymous_args = 0
 235              		@ link register save eliminated.
 236              	.LVL24:
 115:HindsightCAN/CANPacket.c ****     return packet->data[2];
 237              		.loc 1 115 0
 238 0000 4079     		ldrb	r0, [r0, #5]
 239              	.LVL25:
 116:HindsightCAN/CANPacket.c **** }
 240              		.loc 1 116 0
 241              		@ sp needed
 242 0002 7047     		bx	lr
 243              		.cfi_endproc
 244              	.LFE6:
 245              		.size	GetSenderDeviceSerialNumber, .-GetSenderDeviceSerialNumber
 246              		.section	.text.GetDeviceGroupCode,"ax",%progbits
 247              		.align	2
 248              		.global	GetDeviceGroupCode
 249              		.code	16
 250              		.thumb_func
 251              		.type	GetDeviceGroupCode, %function
 252              	GetDeviceGroupCode:
 253              	.LFB7:
 117:HindsightCAN/CANPacket.c **** 
 118:HindsightCAN/CANPacket.c **** // Gets the device group code from CAN packet
 119:HindsightCAN/CANPacket.c **** // Inputs:
 120:HindsightCAN/CANPacket.c **** //      packet:     CAN Packet to analyze
 121:HindsightCAN/CANPacket.c **** // Outputs:
 122:HindsightCAN/CANPacket.c **** //                  A byte representing the device
 123:HindsightCAN/CANPacket.c **** //                  group code.
 124:HindsightCAN/CANPacket.c **** uint8_t GetDeviceGroupCode(CANPacket *packet)
 125:HindsightCAN/CANPacket.c **** {
 254              		.loc 1 125 0
 255              		.cfi_startproc
 256              		@ args = 0, pretend = 0, frame = 0
 257              		@ frame_needed = 0, uses_anonymous_args = 0
 258              		@ link register save eliminated.
 259              	.LVL26:
 126:HindsightCAN/CANPacket.c ****     uint8_t group = 0;
 127:HindsightCAN/CANPacket.c ****     int id = packet->id;
 260              		.loc 1 127 0
 261 0000 0088     		ldrh	r0, [r0]
 262              	.LVL27:
 128:HindsightCAN/CANPacket.c ****     group = (uint8_t) ((id & 0x03C0) >> 6);
 263              		.loc 1 128 0
 264 0002 8011     		asrs	r0, r0, #6
 265              	.LVL28:
 266 0004 0F23     		movs	r3, #15
 267 0006 1840     		ands	r0, r3
 268              	.LVL29:
 129:HindsightCAN/CANPacket.c ****     return group;
ARM GAS  C:\Users\TT\AppData\Local\Temp\ccNe8fWh.s 			page 8


 130:HindsightCAN/CANPacket.c **** }
 269              		.loc 1 130 0
 270              		@ sp needed
 271 0008 7047     		bx	lr
 272              		.cfi_endproc
 273              	.LFE7:
 274              		.size	GetDeviceGroupCode, .-GetDeviceGroupCode
 275 000a C046     		.section	.text.GetSenderDeviceGroupCode,"ax",%progbits
 276              		.align	2
 277              		.global	GetSenderDeviceGroupCode
 278              		.code	16
 279              		.thumb_func
 280              		.type	GetSenderDeviceGroupCode, %function
 281              	GetSenderDeviceGroupCode:
 282              	.LFB8:
 131:HindsightCAN/CANPacket.c **** 
 132:HindsightCAN/CANPacket.c **** // Gets the sender device group number from the payload data
 133:HindsightCAN/CANPacket.c **** // Inputs:
 134:HindsightCAN/CANPacket.c **** //      data:       Address of the byte array of the payload from CAN packet
 135:HindsightCAN/CANPacket.c **** // Outputs:
 136:HindsightCAN/CANPacket.c **** //                  A byte representing the sender device number
 137:HindsightCAN/CANPacket.c **** uint8_t GetSenderDeviceGroupCode(CANPacket *packet)
 138:HindsightCAN/CANPacket.c **** {
 283              		.loc 1 138 0
 284              		.cfi_startproc
 285              		@ args = 0, pretend = 0, frame = 0
 286              		@ frame_needed = 0, uses_anonymous_args = 0
 287              		@ link register save eliminated.
 288              	.LVL30:
 139:HindsightCAN/CANPacket.c ****     return packet->data[1];
 289              		.loc 1 139 0
 290 0000 0079     		ldrb	r0, [r0, #4]
 291              	.LVL31:
 140:HindsightCAN/CANPacket.c **** }
 292              		.loc 1 140 0
 293              		@ sp needed
 294 0002 7047     		bx	lr
 295              		.cfi_endproc
 296              	.LFE8:
 297              		.size	GetSenderDeviceGroupCode, .-GetSenderDeviceGroupCode
 298              		.section	.text.PacketIsInGroup,"ax",%progbits
 299              		.align	2
 300              		.global	PacketIsInGroup
 301              		.code	16
 302              		.thumb_func
 303              		.type	PacketIsInGroup, %function
 304              	PacketIsInGroup:
 305              	.LFB9:
 141:HindsightCAN/CANPacket.c **** 
 142:HindsightCAN/CANPacket.c **** // Ensures that the given packet is of a specified group
 143:HindsightCAN/CANPacket.c **** // Inputs:
 144:HindsightCAN/CANPacket.c **** //      packet:         CAN Packet to check
 145:HindsightCAN/CANPacket.c **** //      expectedType:   ExpectedType of CAN packet
 146:HindsightCAN/CANPacket.c **** // Outputs:
 147:HindsightCAN/CANPacket.c **** //                  0 if packet not of expectedType,
 148:HindsightCAN/CANPacket.c **** //                  Other int otherwise
 149:HindsightCAN/CANPacket.c **** int PacketIsInGroup(CANPacket *packet, uint8_t expectedType) 
ARM GAS  C:\Users\TT\AppData\Local\Temp\ccNe8fWh.s 			page 9


 150:HindsightCAN/CANPacket.c **** {
 306              		.loc 1 150 0
 307              		.cfi_startproc
 308              		@ args = 0, pretend = 0, frame = 0
 309              		@ frame_needed = 0, uses_anonymous_args = 0
 310              	.LVL32:
 311 0000 10B5     		push	{r4, lr}
 312              		.cfi_def_cfa_offset 8
 313              		.cfi_offset 4, -8
 314              		.cfi_offset 14, -4
 315 0002 0C00     		movs	r4, r1
 151:HindsightCAN/CANPacket.c ****     return GetDeviceGroupCode(packet) == expectedType;
 316              		.loc 1 151 0
 317 0004 FFF7FEFF 		bl	GetDeviceGroupCode
 318              	.LVL33:
 319 0008 001B     		subs	r0, r0, r4
 320 000a 4342     		rsbs	r3, r0, #0
 321 000c 5841     		adcs	r0, r0, r3
 322 000e C0B2     		uxtb	r0, r0
 152:HindsightCAN/CANPacket.c **** }
 323              		.loc 1 152 0
 324              		@ sp needed
 325 0010 10BD     		pop	{r4, pc}
 326              		.cfi_endproc
 327              	.LFE9:
 328              		.size	PacketIsInGroup, .-PacketIsInGroup
 329 0012 C046     		.section	.text.SenderPacketIsInGroup,"ax",%progbits
 330              		.align	2
 331              		.global	SenderPacketIsInGroup
 332              		.code	16
 333              		.thumb_func
 334              		.type	SenderPacketIsInGroup, %function
 335              	SenderPacketIsInGroup:
 336              	.LFB10:
 153:HindsightCAN/CANPacket.c **** 
 154:HindsightCAN/CANPacket.c **** int SenderPacketIsInGroup(CANPacket *packet, uint8_t expectedType)
 155:HindsightCAN/CANPacket.c **** {
 337              		.loc 1 155 0
 338              		.cfi_startproc
 339              		@ args = 0, pretend = 0, frame = 0
 340              		@ frame_needed = 0, uses_anonymous_args = 0
 341              	.LVL34:
 342 0000 10B5     		push	{r4, lr}
 343              		.cfi_def_cfa_offset 8
 344              		.cfi_offset 4, -8
 345              		.cfi_offset 14, -4
 346 0002 0C00     		movs	r4, r1
 156:HindsightCAN/CANPacket.c ****     return GetSenderDeviceGroupCode(packet) == expectedType;
 347              		.loc 1 156 0
 348 0004 FFF7FEFF 		bl	GetSenderDeviceGroupCode
 349              	.LVL35:
 350 0008 001B     		subs	r0, r0, r4
 351 000a 4342     		rsbs	r3, r0, #0
 352 000c 5841     		adcs	r0, r0, r3
 353 000e C0B2     		uxtb	r0, r0
 157:HindsightCAN/CANPacket.c **** }
 354              		.loc 1 157 0
ARM GAS  C:\Users\TT\AppData\Local\Temp\ccNe8fWh.s 			page 10


 355              		@ sp needed
 356 0010 10BD     		pop	{r4, pc}
 357              		.cfi_endproc
 358              	.LFE10:
 359              		.size	SenderPacketIsInGroup, .-SenderPacketIsInGroup
 360 0012 C046     		.section	.text.SenderPacketIsOfDevice,"ax",%progbits
 361              		.align	2
 362              		.global	SenderPacketIsOfDevice
 363              		.code	16
 364              		.thumb_func
 365              		.type	SenderPacketIsOfDevice, %function
 366              	SenderPacketIsOfDevice:
 367              	.LFB11:
 158:HindsightCAN/CANPacket.c **** 
 159:HindsightCAN/CANPacket.c **** int SenderPacketIsOfDevice(CANPacket *packet, uint8_t expectedType)
 160:HindsightCAN/CANPacket.c **** {
 368              		.loc 1 160 0
 369              		.cfi_startproc
 370              		@ args = 0, pretend = 0, frame = 0
 371              		@ frame_needed = 0, uses_anonymous_args = 0
 372              	.LVL36:
 373 0000 10B5     		push	{r4, lr}
 374              		.cfi_def_cfa_offset 8
 375              		.cfi_offset 4, -8
 376              		.cfi_offset 14, -4
 377 0002 0C00     		movs	r4, r1
 161:HindsightCAN/CANPacket.c ****     return GetSenderDeviceSerialNumber(packet) == expectedType;
 378              		.loc 1 161 0
 379 0004 FFF7FEFF 		bl	GetSenderDeviceSerialNumber
 380              	.LVL37:
 381 0008 001B     		subs	r0, r0, r4
 382 000a 4342     		rsbs	r3, r0, #0
 383 000c 5841     		adcs	r0, r0, r3
 384 000e C0B2     		uxtb	r0, r0
 162:HindsightCAN/CANPacket.c **** }
 385              		.loc 1 162 0
 386              		@ sp needed
 387 0010 10BD     		pop	{r4, pc}
 388              		.cfi_endproc
 389              	.LFE11:
 390              		.size	SenderPacketIsOfDevice, .-SenderPacketIsOfDevice
 391 0012 C046     		.section	.text.GetPacketID,"ax",%progbits
 392              		.align	2
 393              		.global	GetPacketID
 394              		.code	16
 395              		.thumb_func
 396              		.type	GetPacketID, %function
 397              	GetPacketID:
 398              	.LFB12:
 163:HindsightCAN/CANPacket.c **** 
 164:HindsightCAN/CANPacket.c **** int GetPacketID(CANPacket *packet)
 165:HindsightCAN/CANPacket.c **** {
 399              		.loc 1 165 0
 400              		.cfi_startproc
 401              		@ args = 0, pretend = 0, frame = 0
 402              		@ frame_needed = 0, uses_anonymous_args = 0
 403              		@ link register save eliminated.
ARM GAS  C:\Users\TT\AppData\Local\Temp\ccNe8fWh.s 			page 11


 404              	.LVL38:
 166:HindsightCAN/CANPacket.c ****     return packet->data[0];
 405              		.loc 1 166 0
 406 0000 C078     		ldrb	r0, [r0, #3]
 407              	.LVL39:
 167:HindsightCAN/CANPacket.c **** }
 408              		.loc 1 167 0
 409              		@ sp needed
 410 0002 7047     		bx	lr
 411              		.cfi_endproc
 412              	.LFE12:
 413              		.size	GetPacketID, .-GetPacketID
 414              		.section	.text.PacketIsOfID,"ax",%progbits
 415              		.align	2
 416              		.global	PacketIsOfID
 417              		.code	16
 418              		.thumb_func
 419              		.type	PacketIsOfID, %function
 420              	PacketIsOfID:
 421              	.LFB13:
 168:HindsightCAN/CANPacket.c **** 
 169:HindsightCAN/CANPacket.c **** int PacketIsOfID(CANPacket *packet, uint8_t expectedID)
 170:HindsightCAN/CANPacket.c **** {
 422              		.loc 1 170 0
 423              		.cfi_startproc
 424              		@ args = 0, pretend = 0, frame = 0
 425              		@ frame_needed = 0, uses_anonymous_args = 0
 426              	.LVL40:
 427 0000 10B5     		push	{r4, lr}
 428              		.cfi_def_cfa_offset 8
 429              		.cfi_offset 4, -8
 430              		.cfi_offset 14, -4
 431 0002 0C00     		movs	r4, r1
 171:HindsightCAN/CANPacket.c ****     return GetPacketID(packet) == expectedID;
 432              		.loc 1 171 0
 433 0004 FFF7FEFF 		bl	GetPacketID
 434              	.LVL41:
 435 0008 201A     		subs	r0, r4, r0
 436 000a 4442     		rsbs	r4, r0, #0
 437 000c 6041     		adcs	r0, r0, r4
 438 000e C0B2     		uxtb	r0, r0
 172:HindsightCAN/CANPacket.c **** }
 439              		.loc 1 172 0
 440              		@ sp needed
 441 0010 10BD     		pop	{r4, pc}
 442              		.cfi_endproc
 443              	.LFE13:
 444              		.size	PacketIsOfID, .-PacketIsOfID
 445 0012 C046     		.section	.text.TargetsDevice,"ax",%progbits
 446              		.align	2
 447              		.global	TargetsDevice
 448              		.code	16
 449              		.thumb_func
 450              		.type	TargetsDevice, %function
 451              	TargetsDevice:
 452              	.LFB14:
 173:HindsightCAN/CANPacket.c **** 
ARM GAS  C:\Users\TT\AppData\Local\Temp\ccNe8fWh.s 			page 12


 174:HindsightCAN/CANPacket.c **** // Determines if a given packet targets a specific device
 175:HindsightCAN/CANPacket.c **** // Useful for determing if a packet should be interpreted by
 176:HindsightCAN/CANPacket.c **** // the device
 177:HindsightCAN/CANPacket.c **** // Inputs:
 178:HindsightCAN/CANPacket.c **** //      packet:                     CAN Packet to check
 179:HindsightCAN/CANPacket.c **** //      targetDeviceGroup:          Device group of target device
 180:HindsightCAN/CANPacket.c **** //      targetDeviceSerialNumber:   Serial number of target device
 181:HindsightCAN/CANPacket.c **** // Outputs:
 182:HindsightCAN/CANPacket.c **** //                  Returns 0 if packet does not target device
 183:HindsightCAN/CANPacket.c **** //                  Returns any other int if packet does
 184:HindsightCAN/CANPacket.c **** int TargetsDevice(CANPacket *packet, uint8_t targetDeviceGroup, uint8_t targetDeviceSerialNumber)
 185:HindsightCAN/CANPacket.c **** {
 453              		.loc 1 185 0
 454              		.cfi_startproc
 455              		@ args = 0, pretend = 0, frame = 0
 456              		@ frame_needed = 0, uses_anonymous_args = 0
 457              	.LVL42:
 458 0000 70B5     		push	{r4, r5, r6, lr}
 459              		.cfi_def_cfa_offset 16
 460              		.cfi_offset 4, -16
 461              		.cfi_offset 5, -12
 462              		.cfi_offset 6, -8
 463              		.cfi_offset 14, -4
 464 0002 0400     		movs	r4, r0
 465 0004 0D00     		movs	r5, r1
 466 0006 1600     		movs	r6, r2
 186:HindsightCAN/CANPacket.c ****     uint8_t packetGroup = GetDeviceGroupCode(packet);
 467              		.loc 1 186 0
 468 0008 FFF7FEFF 		bl	GetDeviceGroupCode
 469              	.LVL43:
 187:HindsightCAN/CANPacket.c ****     if (packetGroup == targetDeviceGroup) 
 470              		.loc 1 187 0
 471 000c A842     		cmp	r0, r5
 472 000e 08D1     		bne	.L18
 473              	.LBB3:
 188:HindsightCAN/CANPacket.c ****     {
 189:HindsightCAN/CANPacket.c ****         uint8_t serialNumber = GetDeviceSerialNumber(packet);
 474              		.loc 1 189 0
 475 0010 2000     		movs	r0, r4
 476              	.LVL44:
 477 0012 FFF7FEFF 		bl	GetDeviceSerialNumber
 478              	.LVL45:
 190:HindsightCAN/CANPacket.c ****         // Return if serial number matches target
 191:HindsightCAN/CANPacket.c ****         // Otherwise only return true if packet is broadcast to group
 192:HindsightCAN/CANPacket.c ****         return serialNumber == DEVICE_SERIAL_BROADCAST || serialNumber == targetDeviceSerialNumber;
 479              		.loc 1 192 0
 480 0016 0028     		cmp	r0, #0
 481 0018 07D0     		beq	.L20
 482              		.loc 1 192 0 is_stmt 0 discriminator 2
 483 001a B042     		cmp	r0, r6
 484 001c 07D1     		bne	.L21
 485              		.loc 1 192 0
 486 001e 0120     		movs	r0, #1
 487              	.LVL46:
 488 0020 06E0     		b	.L19
 489              	.LVL47:
 490              	.L18:
ARM GAS  C:\Users\TT\AppData\Local\Temp\ccNe8fWh.s 			page 13


 491              	.LBE3:
 193:HindsightCAN/CANPacket.c ****     }
 194:HindsightCAN/CANPacket.c ****     // Otherwise only return true if packet is broadcast to all devices
 195:HindsightCAN/CANPacket.c ****     return packetGroup == DEVICE_GROUP_BROADCAST;
 492              		.loc 1 195 0 is_stmt 1
 493 0022 4342     		rsbs	r3, r0, #0
 494 0024 5841     		adcs	r0, r0, r3
 495              	.LVL48:
 496 0026 C0B2     		uxtb	r0, r0
 497 0028 02E0     		b	.L19
 498              	.LVL49:
 499              	.L20:
 500              	.LBB4:
 192:HindsightCAN/CANPacket.c ****     }
 501              		.loc 1 192 0
 502 002a 0120     		movs	r0, #1
 503              	.LVL50:
 504 002c 00E0     		b	.L19
 505              	.LVL51:
 506              	.L21:
 507 002e 0020     		movs	r0, #0
 508              	.LVL52:
 509              	.L19:
 510              	.LBE4:
 196:HindsightCAN/CANPacket.c **** }
 511              		.loc 1 196 0
 512              		@ sp needed
 513              	.LVL53:
 514 0030 70BD     		pop	{r4, r5, r6, pc}
 515              		.cfi_endproc
 516              	.LFE14:
 517              		.size	TargetsDevice, .-TargetsDevice
 518 0032 C046     		.section	.text.PackIntIntoDataMSBFirst,"ax",%progbits
 519              		.align	2
 520              		.global	PackIntIntoDataMSBFirst
 521              		.code	16
 522              		.thumb_func
 523              		.type	PackIntIntoDataMSBFirst, %function
 524              	PackIntIntoDataMSBFirst:
 525              	.LFB15:
 197:HindsightCAN/CANPacket.c **** 
 198:HindsightCAN/CANPacket.c **** void PackIntIntoDataMSBFirst(uint8_t *data, int32_t dataToPack, int startIndex)
 199:HindsightCAN/CANPacket.c **** {
 526              		.loc 1 199 0
 527              		.cfi_startproc
 528              		@ args = 0, pretend = 0, frame = 0
 529              		@ frame_needed = 0, uses_anonymous_args = 0
 530              	.LVL54:
 531 0000 10B5     		push	{r4, lr}
 532              		.cfi_def_cfa_offset 8
 533              		.cfi_offset 4, -8
 534              		.cfi_offset 14, -4
 200:HindsightCAN/CANPacket.c ****     data[startIndex]     = (dataToPack & 0xFF000000) >> 24;
 535              		.loc 1 200 0
 536 0002 0B0E     		lsrs	r3, r1, #24
 537 0004 8354     		strb	r3, [r0, r2]
 201:HindsightCAN/CANPacket.c ****     data[startIndex + 1] = (dataToPack & 0x00FF0000) >> 16;
ARM GAS  C:\Users\TT\AppData\Local\Temp\ccNe8fWh.s 			page 14


 538              		.loc 1 201 0
 539 0006 531C     		adds	r3, r2, #1
 540 0008 0C14     		asrs	r4, r1, #16
 541 000a C454     		strb	r4, [r0, r3]
 202:HindsightCAN/CANPacket.c ****     data[startIndex + 2] = (dataToPack & 0x0000FF00) >> 8;
 542              		.loc 1 202 0
 543 000c 931C     		adds	r3, r2, #2
 544 000e 0C12     		asrs	r4, r1, #8
 545 0010 C454     		strb	r4, [r0, r3]
 203:HindsightCAN/CANPacket.c ****     data[startIndex + 3] = (dataToPack & 0x000000FF);
 546              		.loc 1 203 0
 547 0012 0332     		adds	r2, r2, #3
 548              	.LVL55:
 549 0014 8154     		strb	r1, [r0, r2]
 204:HindsightCAN/CANPacket.c **** }
 550              		.loc 1 204 0
 551              		@ sp needed
 552 0016 10BD     		pop	{r4, pc}
 553              		.cfi_endproc
 554              	.LFE15:
 555              		.size	PackIntIntoDataMSBFirst, .-PackIntIntoDataMSBFirst
 556              		.section	.text.PackShortIntoDataMSBFirst,"ax",%progbits
 557              		.align	2
 558              		.global	PackShortIntoDataMSBFirst
 559              		.code	16
 560              		.thumb_func
 561              		.type	PackShortIntoDataMSBFirst, %function
 562              	PackShortIntoDataMSBFirst:
 563              	.LFB16:
 205:HindsightCAN/CANPacket.c **** 
 206:HindsightCAN/CANPacket.c **** void PackShortIntoDataMSBFirst(uint8_t *data, int16_t dataToPack, int startIndex)
 207:HindsightCAN/CANPacket.c **** {
 564              		.loc 1 207 0
 565              		.cfi_startproc
 566              		@ args = 0, pretend = 0, frame = 0
 567              		@ frame_needed = 0, uses_anonymous_args = 0
 568              		@ link register save eliminated.
 569              	.LVL56:
 208:HindsightCAN/CANPacket.c **** 	data[startIndex + 0] = (dataToPack & 0xFF00) >> 8;
 570              		.loc 1 208 0
 571 0000 0B12     		asrs	r3, r1, #8
 572 0002 8354     		strb	r3, [r0, r2]
 209:HindsightCAN/CANPacket.c **** 	data[startIndex + 1] = (dataToPack & 0x00FF);
 573              		.loc 1 209 0
 574 0004 0132     		adds	r2, r2, #1
 575              	.LVL57:
 576 0006 8154     		strb	r1, [r0, r2]
 210:HindsightCAN/CANPacket.c **** }
 577              		.loc 1 210 0
 578              		@ sp needed
 579 0008 7047     		bx	lr
 580              		.cfi_endproc
 581              	.LFE16:
 582              		.size	PackShortIntoDataMSBFirst, .-PackShortIntoDataMSBFirst
 583 000a C046     		.section	.text.DecodeBytesToIntMSBFirst,"ax",%progbits
 584              		.align	2
 585              		.global	DecodeBytesToIntMSBFirst
ARM GAS  C:\Users\TT\AppData\Local\Temp\ccNe8fWh.s 			page 15


 586              		.code	16
 587              		.thumb_func
 588              		.type	DecodeBytesToIntMSBFirst, %function
 589              	DecodeBytesToIntMSBFirst:
 590              	.LFB17:
 211:HindsightCAN/CANPacket.c **** 
 212:HindsightCAN/CANPacket.c **** int32_t DecodeBytesToIntMSBFirst(uint8_t *data, int startIndex, int endIndex)
 213:HindsightCAN/CANPacket.c **** {
 591              		.loc 1 213 0
 592              		.cfi_startproc
 593              		@ args = 0, pretend = 0, frame = 0
 594              		@ frame_needed = 0, uses_anonymous_args = 0
 595              	.LVL58:
 596 0000 70B5     		push	{r4, r5, r6, lr}
 597              		.cfi_def_cfa_offset 16
 598              		.cfi_offset 4, -16
 599              		.cfi_offset 5, -12
 600              		.cfi_offset 6, -8
 601              		.cfi_offset 14, -4
 602 0002 0600     		movs	r6, r0
 603              	.LVL59:
 214:HindsightCAN/CANPacket.c ****     int length = 4;
 215:HindsightCAN/CANPacket.c ****     int32_t decodedData = 0; 
 216:HindsightCAN/CANPacket.c **** 
 217:HindsightCAN/CANPacket.c ****     if (endIndex > 0 && startIndex >= 0) {
 604              		.loc 1 217 0
 605 0004 002A     		cmp	r2, #0
 606 0006 09DD     		ble	.L29
 607              		.loc 1 217 0 is_stmt 0 discriminator 1
 608 0008 0029     		cmp	r1, #0
 609 000a 09DB     		blt	.L30
 218:HindsightCAN/CANPacket.c ****         length = endIndex - startIndex + 1;
 610              		.loc 1 218 0 is_stmt 1
 611 000c 521A     		subs	r2, r2, r1
 612              	.LVL60:
 613 000e 0132     		adds	r2, r2, #1
 614              	.LVL61:
 219:HindsightCAN/CANPacket.c ****         if (length > 4) { length = 4; }
 615              		.loc 1 219 0
 616 0010 042A     		cmp	r2, #4
 617 0012 00DD     		ble	.L26
 618 0014 0422     		movs	r2, #4
 619              	.LVL62:
 620              	.L26:
 220:HindsightCAN/CANPacket.c ****         if (length < 1) { length = 0; }
 621              		.loc 1 220 0
 622 0016 002A     		cmp	r2, #0
 623 0018 05DC     		bgt	.L25
 624 001a 03E0     		b	.L32
 625              	.LVL63:
 626              	.L29:
 214:HindsightCAN/CANPacket.c ****     int32_t decodedData = 0; 
 627              		.loc 1 214 0
 628 001c 0422     		movs	r2, #4
 629              	.LVL64:
 630 001e 02E0     		b	.L25
 631              	.LVL65:
ARM GAS  C:\Users\TT\AppData\Local\Temp\ccNe8fWh.s 			page 16


 632              	.L30:
 633 0020 0422     		movs	r2, #4
 634              	.LVL66:
 635 0022 00E0     		b	.L25
 636              	.LVL67:
 637              	.L32:
 638              		.loc 1 220 0
 639 0024 0022     		movs	r2, #0
 640              	.LVL68:
 641              	.L25:
 642              	.LBB5:
 221:HindsightCAN/CANPacket.c ****     }
 222:HindsightCAN/CANPacket.c **** 
 223:HindsightCAN/CANPacket.c ****     for (int i = 0; i < length; i++) 
 643              		.loc 1 223 0
 644 0026 0024     		movs	r4, #0
 645              	.LBE5:
 215:HindsightCAN/CANPacket.c **** 
 646              		.loc 1 215 0
 647 0028 0020     		movs	r0, #0
 648              	.LVL69:
 649              	.LBB6:
 650              		.loc 1 223 0
 651 002a 07E0     		b	.L27
 652              	.LVL70:
 653              	.L28:
 224:HindsightCAN/CANPacket.c ****     {
 225:HindsightCAN/CANPacket.c ****         decodedData |= data[startIndex + i] << (8 * (length-1-i));
 654              		.loc 1 225 0 discriminator 3
 655 002c 6318     		adds	r3, r4, r1
 656 002e F55C     		ldrb	r5, [r6, r3]
 657 0030 531E     		subs	r3, r2, #1
 658 0032 1B1B     		subs	r3, r3, r4
 659 0034 DB00     		lsls	r3, r3, #3
 660 0036 9D40     		lsls	r5, r5, r3
 661 0038 2843     		orrs	r0, r5
 662              	.LVL71:
 223:HindsightCAN/CANPacket.c ****     {
 663              		.loc 1 223 0 discriminator 3
 664 003a 0134     		adds	r4, r4, #1
 665              	.LVL72:
 666              	.L27:
 223:HindsightCAN/CANPacket.c ****     {
 667              		.loc 1 223 0 is_stmt 0 discriminator 1
 668 003c A242     		cmp	r2, r4
 669 003e F5DC     		bgt	.L28
 670              	.LBE6:
 226:HindsightCAN/CANPacket.c ****     }
 227:HindsightCAN/CANPacket.c ****     return decodedData;
 228:HindsightCAN/CANPacket.c **** }...
 671              		.loc 1 228 0 is_stmt 1
 672              		@ sp needed
 673              	.LVL73:
 674              	.LVL74:
 675 0040 70BD     		pop	{r4, r5, r6, pc}
 676              		.cfi_endproc
 677              	.LFE17:
ARM GAS  C:\Users\TT\AppData\Local\Temp\ccNe8fWh.s 			page 17


 678              		.size	DecodeBytesToIntMSBFirst, .-DecodeBytesToIntMSBFirst
 679 0042 C046     		.text
 680              	.Letext0:
 681              		.file 2 "c:\\program files (x86)\\cypress\\psoc creator\\4.4\\psoc creator\\import\\gnu\\arm\\5.4.
 682              		.file 3 "c:\\program files (x86)\\cypress\\psoc creator\\4.4\\psoc creator\\import\\gnu\\arm\\5.4.
 683              		.file 4 "HindsightCAN\\CANPacket.h"
 684              		.file 5 "HindsightCAN\\Port.h"