ARM GAS  C:\Users\TT\AppData\Local\Temp\ccDoYqb1.s 			page 1


   1              		.syntax unified
   2              		.cpu cortex-m0
   3              		.fpu softvfp
   4              		.eabi_attribute 20, 1
   5              		.eabi_attribute 21, 1
   6              		.eabi_attribute 23, 3
   7              		.eabi_attribute 24, 1
   8              		.eabi_attribute 25, 1
   9              		.eabi_attribute 26, 1
  10              		.eabi_attribute 30, 1
  11              		.eabi_attribute 34, 0
  12              		.eabi_attribute 18, 4
  13              		.thumb
  14              		.syntax unified
  15              		.file	"GPS.c"
  16              		.text
  17              	.Ltext0:
  18              		.cfi_sections	.debug_frame
  19              		.section	.text.gps_init,"ax",%progbits
  20              		.align	2
  21              		.global	gps_init
  22              		.code	16
  23              		.thumb_func
  24              		.type	gps_init, %function
  25              	gps_init:
  26              	.LFB34:
  27              		.file 1 "MTK3339-Sensor-Driver\\GPS.c"
   1:MTK3339-Sensor-Driver/GPS.c **** #include "GPS.h"
   2:MTK3339-Sensor-Driver/GPS.c **** #include "project.h"
   3:MTK3339-Sensor-Driver/GPS.c **** 
   4:MTK3339-Sensor-Driver/GPS.c **** #define GPS_Send GPS_UART_UartPutString
   5:MTK3339-Sensor-Driver/GPS.c **** #define DEBUG_Send USB_DEBUG_UartPutString
   6:MTK3339-Sensor-Driver/GPS.c **** 
   7:MTK3339-Sensor-Driver/GPS.c **** 
   8:MTK3339-Sensor-Driver/GPS.c **** //  =========================================================
   9:MTK3339-Sensor-Driver/GPS.c **** //  ||                       gps_init				 	   ||
  10:MTK3339-Sensor-Driver/GPS.c **** //  =========================================================
  11:MTK3339-Sensor-Driver/GPS.c **** void gps_init( void )
  12:MTK3339-Sensor-Driver/GPS.c **** {
  28              		.loc 1 12 0
  29              		.cfi_startproc
  30              		@ args = 0, pretend = 0, frame = 0
  31              		@ frame_needed = 0, uses_anonymous_args = 0
  32 0000 10B5     		push	{r4, lr}
  33              		.cfi_def_cfa_offset 8
  34              		.cfi_offset 4, -8
  35              		.cfi_offset 14, -4
  13:MTK3339-Sensor-Driver/GPS.c ****     UART_CLOCK_Start();
  36              		.loc 1 13 0
  37 0002 FF20     		movs	r0, #255
  38 0004 FFF7FEFF 		bl	UART_CLOCK_StartEx
  39              	.LVL0:
  14:MTK3339-Sensor-Driver/GPS.c ****     GPS_UART_Start(); //initializes the UART communications
  40              		.loc 1 14 0
  41 0008 FFF7FEFF 		bl	GPS_UART_Start
  42              	.LVL1:
  15:MTK3339-Sensor-Driver/GPS.c ****     
ARM GAS  C:\Users\TT\AppData\Local\Temp\ccDoYqb1.s 			page 2


  16:MTK3339-Sensor-Driver/GPS.c **** 	GPS_Send(PMTK_CMD_HOT_START); //Initializes GPS into "hot start" mode
  43              		.loc 1 16 0
  44 000c 0848     		ldr	r0, .L2
  45 000e FFF7FEFF 		bl	GPS_UART_UartPutString
  46              	.LVL2:
  17:MTK3339-Sensor-Driver/GPS.c ****     GPS_Send(PMTK_SET_NMEA_UPDATE_10HZ); //sets transmission rate to 10Hz
  47              		.loc 1 17 0
  48 0012 0848     		ldr	r0, .L2+4
  49 0014 FFF7FEFF 		bl	GPS_UART_UartPutString
  50              	.LVL3:
  18:MTK3339-Sensor-Driver/GPS.c ****     GPS_Send(PMTK_SET_NMEA_OUTPUT_GGAONLY); //sets custom output parameters to shorten packet size
  51              		.loc 1 18 0
  52 0018 0748     		ldr	r0, .L2+8
  53 001a FFF7FEFF 		bl	GPS_UART_UartPutString
  54              	.LVL4:
  19:MTK3339-Sensor-Driver/GPS.c ****     
  20:MTK3339-Sensor-Driver/GPS.c ****     GPS_Send(PMTK_SET_NMEA_BAUD_57600); //increases baudrate of GPS to turbocharge the data transfe
  55              		.loc 1 20 0
  56 001e 0748     		ldr	r0, .L2+12
  57 0020 FFF7FEFF 		bl	GPS_UART_UartPutString
  58              	.LVL5:
  21:MTK3339-Sensor-Driver/GPS.c ****     UART_CLOCK_SetDivider(416); //sets baudrate of UART to match GPS
  59              		.loc 1 21 0
  60 0024 0021     		movs	r1, #0
  61 0026 D020     		movs	r0, #208
  62 0028 4000     		lsls	r0, r0, #1
  63 002a FFF7FEFF 		bl	UART_CLOCK_SetFractionalDividerRegister
  64              	.LVL6:
  22:MTK3339-Sensor-Driver/GPS.c **** }
  65              		.loc 1 22 0
  66              		@ sp needed
  67 002e 10BD     		pop	{r4, pc}
  68              	.L3:
  69              		.align	2
  70              	.L2:
  71 0030 00000000 		.word	.LC0
  72 0034 14000000 		.word	.LC2
  73 0038 2C000000 		.word	.LC4
  74 003c 68000000 		.word	.LC6
  75              		.cfi_endproc
  76              	.LFE34:
  77              		.size	gps_init, .-gps_init
  78              		.section	.text.gps_parseHex,"ax",%progbits
  79              		.align	2
  80              		.global	gps_parseHex
  81              		.code	16
  82              		.thumb_func
  83              		.type	gps_parseHex, %function
  84              	gps_parseHex:
  85              	.LFB35:
  23:MTK3339-Sensor-Driver/GPS.c **** 
  24:MTK3339-Sensor-Driver/GPS.c **** 
  25:MTK3339-Sensor-Driver/GPS.c **** //  =========================================================
  26:MTK3339-Sensor-Driver/GPS.c **** //  ||                      gps_parseHex			 	   ||
  27:MTK3339-Sensor-Driver/GPS.c **** //  =========================================================
  28:MTK3339-Sensor-Driver/GPS.c **** char gps_parseHex(char c) 
  29:MTK3339-Sensor-Driver/GPS.c **** {
ARM GAS  C:\Users\TT\AppData\Local\Temp\ccDoYqb1.s 			page 3


  86              		.loc 1 29 0
  87              		.cfi_startproc
  88              		@ args = 0, pretend = 0, frame = 0
  89              		@ frame_needed = 0, uses_anonymous_args = 0
  90              		@ link register save eliminated.
  91              	.LVL7:
  30:MTK3339-Sensor-Driver/GPS.c ****     if ( c < '0' )
  92              		.loc 1 30 0
  93 0000 2F28     		cmp	r0, #47
  94 0002 0BD9     		bls	.L7
  31:MTK3339-Sensor-Driver/GPS.c ****       return 0;
  32:MTK3339-Sensor-Driver/GPS.c ****     if ( c <= '9' )
  95              		.loc 1 32 0
  96 0004 3928     		cmp	r0, #57
  97 0006 02D8     		bhi	.L6
  33:MTK3339-Sensor-Driver/GPS.c ****       return c - '0';
  98              		.loc 1 33 0
  99 0008 3038     		subs	r0, r0, #48
 100              	.LVL8:
 101 000a C0B2     		uxtb	r0, r0
 102 000c 0BE0     		b	.L5
 103              	.LVL9:
 104              	.L6:
  34:MTK3339-Sensor-Driver/GPS.c ****     if ( c < 'A' )
 105              		.loc 1 34 0
 106 000e 4028     		cmp	r0, #64
 107 0010 06D9     		bls	.L8
  35:MTK3339-Sensor-Driver/GPS.c ****        return 0;
  36:MTK3339-Sensor-Driver/GPS.c ****     if ( c <= 'F' )
 108              		.loc 1 36 0
 109 0012 4628     		cmp	r0, #70
 110 0014 06D8     		bhi	.L9
  37:MTK3339-Sensor-Driver/GPS.c ****        return ( c - 'A' ) + 10;
 111              		.loc 1 37 0
 112 0016 3738     		subs	r0, r0, #55
 113              	.LVL10:
 114 0018 C0B2     		uxtb	r0, r0
 115 001a 04E0     		b	.L5
 116              	.LVL11:
 117              	.L7:
  31:MTK3339-Sensor-Driver/GPS.c ****     if ( c <= '9' )
 118              		.loc 1 31 0
 119 001c 0020     		movs	r0, #0
 120              	.LVL12:
 121 001e 02E0     		b	.L5
 122              	.LVL13:
 123              	.L8:
  35:MTK3339-Sensor-Driver/GPS.c ****        return 0;
 124              		.loc 1 35 0
 125 0020 0020     		movs	r0, #0
 126              	.LVL14:
 127 0022 00E0     		b	.L5
 128              	.LVL15:
 129              	.L9:
  38:MTK3339-Sensor-Driver/GPS.c **** 	return 0;
 130              		.loc 1 38 0
 131 0024 0020     		movs	r0, #0
ARM GAS  C:\Users\TT\AppData\Local\Temp\ccDoYqb1.s 			page 4


 132              	.LVL16:
 133              	.L5:
  39:MTK3339-Sensor-Driver/GPS.c **** }
 134              		.loc 1 39 0
 135              		@ sp needed
 136 0026 7047     		bx	lr
 137              		.cfi_endproc
 138              	.LFE35:
 139              		.size	gps_parseHex, .-gps_parseHex
 140              		.section	.text.gps_parseChecksum,"ax",%progbits
 141              		.align	2
 142              		.global	gps_parseChecksum
 143              		.code	16
 144              		.thumb_func
 145              		.type	gps_parseChecksum, %function
 146              	gps_parseChecksum:
 147              	.LFB36:
  40:MTK3339-Sensor-Driver/GPS.c **** 
  41:MTK3339-Sensor-Driver/GPS.c **** 
  42:MTK3339-Sensor-Driver/GPS.c **** //  =========================================================
  43:MTK3339-Sensor-Driver/GPS.c **** //  ||                   gps_parseChecksum				   ||
  44:MTK3339-Sensor-Driver/GPS.c **** //  =========================================================
  45:MTK3339-Sensor-Driver/GPS.c **** char gps_parseChecksum( char* checksum )
  46:MTK3339-Sensor-Driver/GPS.c **** {
 148              		.loc 1 46 0
 149              		.cfi_startproc
 150              		@ args = 0, pretend = 0, frame = 0
 151              		@ frame_needed = 0, uses_anonymous_args = 0
 152              	.LVL17:
 153 0000 70B5     		push	{r4, r5, r6, lr}
 154              		.cfi_def_cfa_offset 16
 155              		.cfi_offset 4, -16
 156              		.cfi_offset 5, -12
 157              		.cfi_offset 6, -8
 158              		.cfi_offset 14, -4
 159 0002 0500     		movs	r5, r0
 160              	.LVL18:
  47:MTK3339-Sensor-Driver/GPS.c **** 	char hex = 0;
  48:MTK3339-Sensor-Driver/GPS.c **** 	hex += 16 * gps_parseHex( checksum[0] );
 161              		.loc 1 48 0
 162 0004 0078     		ldrb	r0, [r0]
 163              	.LVL19:
 164 0006 FFF7FEFF 		bl	gps_parseHex
 165              	.LVL20:
 166 000a 0001     		lsls	r0, r0, #4
 167 000c C4B2     		uxtb	r4, r0
 168              	.LVL21:
  49:MTK3339-Sensor-Driver/GPS.c **** 	hex += gps_parseHex( checksum[1] );
 169              		.loc 1 49 0
 170 000e 6878     		ldrb	r0, [r5, #1]
 171 0010 FFF7FEFF 		bl	gps_parseHex
 172              	.LVL22:
 173 0014 2018     		adds	r0, r4, r0
 174 0016 C0B2     		uxtb	r0, r0
 175              	.LVL23:
  50:MTK3339-Sensor-Driver/GPS.c **** 	return hex;
  51:MTK3339-Sensor-Driver/GPS.c **** }
ARM GAS  C:\Users\TT\AppData\Local\Temp\ccDoYqb1.s 			page 5


 176              		.loc 1 51 0
 177              		@ sp needed
 178              	.LVL24:
 179 0018 70BD     		pop	{r4, r5, r6, pc}
 180              		.cfi_endproc
 181              	.LFE36:
 182              		.size	gps_parseChecksum, .-gps_parseChecksum
 183 001a C046     		.section	.text.gps_calcNMEAChecksum,"ax",%progbits
 184              		.align	2
 185              		.global	gps_calcNMEAChecksum
 186              		.code	16
 187              		.thumb_func
 188              		.type	gps_calcNMEAChecksum, %function
 189              	gps_calcNMEAChecksum:
 190              	.LFB37:
  52:MTK3339-Sensor-Driver/GPS.c **** 
  53:MTK3339-Sensor-Driver/GPS.c **** 
  54:MTK3339-Sensor-Driver/GPS.c **** //  =========================================================
  55:MTK3339-Sensor-Driver/GPS.c **** //  ||                 gps_calcNMEAChecksum				   ||
  56:MTK3339-Sensor-Driver/GPS.c **** //  =========================================================
  57:MTK3339-Sensor-Driver/GPS.c **** char gps_calcNMEAChecksum( char* str )
  58:MTK3339-Sensor-Driver/GPS.c **** {
 191              		.loc 1 58 0
 192              		.cfi_startproc
 193              		@ args = 0, pretend = 0, frame = 0
 194              		@ frame_needed = 0, uses_anonymous_args = 0
 195              	.LVL25:
 196 0000 10B5     		push	{r4, lr}
 197              		.cfi_def_cfa_offset 8
 198              		.cfi_offset 4, -8
 199              		.cfi_offset 14, -4
 200 0002 0400     		movs	r4, r0
 201              	.LVL26:
  59:MTK3339-Sensor-Driver/GPS.c **** 	int len, sum, i;
  60:MTK3339-Sensor-Driver/GPS.c **** 	
  61:MTK3339-Sensor-Driver/GPS.c **** 	sum = 0;
  62:MTK3339-Sensor-Driver/GPS.c **** 	len = strlen( str );
 202              		.loc 1 62 0
 203 0004 FFF7FEFF 		bl	strlen
 204              	.LVL27:
  63:MTK3339-Sensor-Driver/GPS.c **** 	for ( i = 0; i < len - 4; i++ )
 205              		.loc 1 63 0
 206 0008 0023     		movs	r3, #0
  61:MTK3339-Sensor-Driver/GPS.c **** 	len = strlen( str );
 207              		.loc 1 61 0
 208 000a 0022     		movs	r2, #0
 209              		.loc 1 63 0
 210 000c 03E0     		b	.L12
 211              	.LVL28:
 212              	.L13:
  64:MTK3339-Sensor-Driver/GPS.c **** 		sum ^= str[ i + 1 ];
 213              		.loc 1 64 0 discriminator 3
 214 000e E118     		adds	r1, r4, r3
 215 0010 4978     		ldrb	r1, [r1, #1]
 216 0012 4A40     		eors	r2, r1
 217              	.LVL29:
  63:MTK3339-Sensor-Driver/GPS.c **** 	for ( i = 0; i < len - 4; i++ )
ARM GAS  C:\Users\TT\AppData\Local\Temp\ccDoYqb1.s 			page 6


 218              		.loc 1 63 0 discriminator 3
 219 0014 0133     		adds	r3, r3, #1
 220              	.LVL30:
 221              	.L12:
  63:MTK3339-Sensor-Driver/GPS.c **** 	for ( i = 0; i < len - 4; i++ )
 222              		.loc 1 63 0 is_stmt 0 discriminator 1
 223 0016 011F     		subs	r1, r0, #4
 224 0018 8B42     		cmp	r3, r1
 225 001a F8DB     		blt	.L13
  65:MTK3339-Sensor-Driver/GPS.c **** 	return sum;	
 226              		.loc 1 65 0 is_stmt 1
 227 001c D0B2     		uxtb	r0, r2
 228              	.LVL31:
  66:MTK3339-Sensor-Driver/GPS.c **** }
 229              		.loc 1 66 0
 230              		@ sp needed
 231              	.LVL32:
 232 001e 10BD     		pop	{r4, pc}
 233              		.cfi_endproc
 234              	.LFE37:
 235              		.size	gps_calcNMEAChecksum, .-gps_calcNMEAChecksum
 236              		.section	.text.gps_validateNMEA,"ax",%progbits
 237              		.align	2
 238              		.global	gps_validateNMEA
 239              		.code	16
 240              		.thumb_func
 241              		.type	gps_validateNMEA, %function
 242              	gps_validateNMEA:
 243              	.LFB38:
  67:MTK3339-Sensor-Driver/GPS.c **** 
  68:MTK3339-Sensor-Driver/GPS.c **** 
  69:MTK3339-Sensor-Driver/GPS.c **** //  =========================================================
  70:MTK3339-Sensor-Driver/GPS.c **** //  ||                   gps_validateNMEA				   ||
  71:MTK3339-Sensor-Driver/GPS.c **** //  =========================================================
  72:MTK3339-Sensor-Driver/GPS.c **** int gps_validateNMEA( char* nmea )
  73:MTK3339-Sensor-Driver/GPS.c **** {
 244              		.loc 1 73 0
 245              		.cfi_startproc
 246              		@ args = 0, pretend = 0, frame = 0
 247              		@ frame_needed = 0, uses_anonymous_args = 0
 248              	.LVL33:
 249 0000 70B5     		push	{r4, r5, r6, lr}
 250              		.cfi_def_cfa_offset 16
 251              		.cfi_offset 4, -16
 252              		.cfi_offset 5, -12
 253              		.cfi_offset 6, -8
 254              		.cfi_offset 14, -4
 255 0002 0400     		movs	r4, r0
  74:MTK3339-Sensor-Driver/GPS.c **** 	char targetChecksum = gps_parseChecksum( nmea + ( strlen(nmea) - 2 ) );
 256              		.loc 1 74 0
 257 0004 FFF7FEFF 		bl	strlen
 258              	.LVL34:
 259 0008 0238     		subs	r0, r0, #2
 260 000a 2018     		adds	r0, r4, r0
 261 000c FFF7FEFF 		bl	gps_parseChecksum
 262              	.LVL35:
 263 0010 0500     		movs	r5, r0
ARM GAS  C:\Users\TT\AppData\Local\Temp\ccDoYqb1.s 			page 7


 264              	.LVL36:
  75:MTK3339-Sensor-Driver/GPS.c **** 
  76:MTK3339-Sensor-Driver/GPS.c **** 	if ( targetChecksum == gps_calcNMEAChecksum( nmea ) )
 265              		.loc 1 76 0
 266 0012 2000     		movs	r0, r4
 267 0014 FFF7FEFF 		bl	gps_calcNMEAChecksum
 268              	.LVL37:
 269 0018 8542     		cmp	r5, r0
 270 001a 01D1     		bne	.L16
  77:MTK3339-Sensor-Driver/GPS.c **** 		return 1;
 271              		.loc 1 77 0
 272 001c 0120     		movs	r0, #1
 273 001e 00E0     		b	.L15
 274              	.L16:
  78:MTK3339-Sensor-Driver/GPS.c **** 	return 0;
 275              		.loc 1 78 0
 276 0020 0020     		movs	r0, #0
 277              	.L15:
  79:MTK3339-Sensor-Driver/GPS.c **** }
 278              		.loc 1 79 0
 279              		@ sp needed
 280              	.LVL38:
 281              	.LVL39:
 282 0022 70BD     		pop	{r4, r5, r6, pc}
 283              		.cfi_endproc
 284              	.LFE38:
 285              		.size	gps_validateNMEA, .-gps_validateNMEA
 286              		.section	.text.gps_parseNMEA,"ax",%progbits
 287              		.align	2
 288              		.global	gps_parseNMEA
 289              		.code	16
 290              		.thumb_func
 291              		.type	gps_parseNMEA, %function
 292              	gps_parseNMEA:
 293              	.LFB39:
  80:MTK3339-Sensor-Driver/GPS.c **** 
  81:MTK3339-Sensor-Driver/GPS.c **** 
  82:MTK3339-Sensor-Driver/GPS.c **** //  =========================================================
  83:MTK3339-Sensor-Driver/GPS.c **** //  ||                    gps_parseNMEA				   ||
  84:MTK3339-Sensor-Driver/GPS.c **** //  =========================================================
  85:MTK3339-Sensor-Driver/GPS.c **** int gps_parseNMEA( char* nmea, struct GPS_Str_Data *gps )
  86:MTK3339-Sensor-Driver/GPS.c **** {
 294              		.loc 1 86 0
 295              		.cfi_startproc
 296              		@ args = 0, pretend = 0, frame = 0
 297              		@ frame_needed = 0, uses_anonymous_args = 0
 298              	.LVL40:
 299 0000 70B5     		push	{r4, r5, r6, lr}
 300              		.cfi_def_cfa_offset 16
 301              		.cfi_offset 4, -16
 302              		.cfi_offset 5, -12
 303              		.cfi_offset 6, -8
 304              		.cfi_offset 14, -4
 305 0002 0C00     		movs	r4, r1
  87:MTK3339-Sensor-Driver/GPS.c **** 	char *ptr, *nmeaStart;
  88:MTK3339-Sensor-Driver/GPS.c **** 
  89:MTK3339-Sensor-Driver/GPS.c **** 	// Validate NMEA sentence header
ARM GAS  C:\Users\TT\AppData\Local\Temp\ccDoYqb1.s 			page 8


  90:MTK3339-Sensor-Driver/GPS.c **** 	if ( ( nmeaStart = strstr ( nmea, "$GPGGA" ) ) == NULL )
 306              		.loc 1 90 0
 307 0004 2049     		ldr	r1, .L20
 308              	.LVL41:
 309 0006 FFF7FEFF 		bl	strstr
 310              	.LVL42:
 311 000a 051E     		subs	r5, r0, #0
 312              	.LVL43:
 313 000c 3AD0     		beq	.L19
  91:MTK3339-Sensor-Driver/GPS.c **** 		return 0;
  92:MTK3339-Sensor-Driver/GPS.c ****     
  93:MTK3339-Sensor-Driver/GPS.c **** 	// validate Checksum
  94:MTK3339-Sensor-Driver/GPS.c **** 	if (!gps_validateNMEA( nmeaStart ) )
 314              		.loc 1 94 0
 315 000e FFF7FEFF 		bl	gps_validateNMEA
 316              	.LVL44:
 317 0012 0028     		cmp	r0, #0
 318 0014 37D0     		beq	.L18
  95:MTK3339-Sensor-Driver/GPS.c **** 		return 0;
  96:MTK3339-Sensor-Driver/GPS.c **** 
  97:MTK3339-Sensor-Driver/GPS.c **** 	// Separate the sentence by commas	
  98:MTK3339-Sensor-Driver/GPS.c **** 	ptr = strtok ( nmeaStart, "," );
 319              		.loc 1 98 0
 320 0016 1D4E     		ldr	r6, .L20+4
 321 0018 3100     		movs	r1, r6
 322 001a 2800     		movs	r0, r5
 323 001c FFF7FEFF 		bl	strtok
 324              	.LVL45:
  99:MTK3339-Sensor-Driver/GPS.c **** 
 100:MTK3339-Sensor-Driver/GPS.c **** 	// FastFwd to latitude
 101:MTK3339-Sensor-Driver/GPS.c **** 	ptr = strtok ( NULL, "," );
 325              		.loc 1 101 0
 326 0020 3100     		movs	r1, r6
 327 0022 0020     		movs	r0, #0
 328 0024 FFF7FEFF 		bl	strtok
 329              	.LVL46:
 102:MTK3339-Sensor-Driver/GPS.c **** 	ptr = strtok ( NULL, "," );
 330              		.loc 1 102 0
 331 0028 3100     		movs	r1, r6
 332 002a 0020     		movs	r0, #0
 333 002c FFF7FEFF 		bl	strtok
 334              	.LVL47:
 335 0030 0100     		movs	r1, r0
 336              	.LVL48:
 103:MTK3339-Sensor-Driver/GPS.c **** 	strcpy( gps->latitude, ptr );
 337              		.loc 1 103 0
 338 0032 2000     		movs	r0, r4
 339              	.LVL49:
 340 0034 FFF7FEFF 		bl	strcpy
 341              	.LVL50:
 104:MTK3339-Sensor-Driver/GPS.c **** 
 105:MTK3339-Sensor-Driver/GPS.c **** 	// Latitude cardinal
 106:MTK3339-Sensor-Driver/GPS.c **** 	ptr = strtok ( NULL, "," );
 342              		.loc 1 106 0
 343 0038 3100     		movs	r1, r6
 344 003a 0020     		movs	r0, #0
 345 003c FFF7FEFF 		bl	strtok
ARM GAS  C:\Users\TT\AppData\Local\Temp\ccDoYqb1.s 			page 9


 346              	.LVL51:
 347 0040 0100     		movs	r1, r0
 348              	.LVL52:
 107:MTK3339-Sensor-Driver/GPS.c **** 	strcpy( gps->latCardinal, ptr );
 349              		.loc 1 107 0
 350 0042 2000     		movs	r0, r4
 351              	.LVL53:
 352 0044 2030     		adds	r0, r0, #32
 353 0046 FFF7FEFF 		bl	strcpy
 354              	.LVL54:
 108:MTK3339-Sensor-Driver/GPS.c **** 
 109:MTK3339-Sensor-Driver/GPS.c **** 	// Longitude
 110:MTK3339-Sensor-Driver/GPS.c **** 	ptr = strtok ( NULL, "," );
 355              		.loc 1 110 0
 356 004a 3100     		movs	r1, r6
 357 004c 0020     		movs	r0, #0
 358 004e FFF7FEFF 		bl	strtok
 359              	.LVL55:
 360 0052 0100     		movs	r1, r0
 361              	.LVL56:
 111:MTK3339-Sensor-Driver/GPS.c **** 	strcpy( gps->longitude, ptr );
 362              		.loc 1 111 0
 363 0054 2000     		movs	r0, r4
 364              	.LVL57:
 365 0056 1030     		adds	r0, r0, #16
 366 0058 FFF7FEFF 		bl	strcpy
 367              	.LVL58:
 112:MTK3339-Sensor-Driver/GPS.c ****     
 113:MTK3339-Sensor-Driver/GPS.c **** 	// Longitude cardinal
 114:MTK3339-Sensor-Driver/GPS.c **** 	ptr = strtok ( NULL, "," );
 368              		.loc 1 114 0
 369 005c 3100     		movs	r1, r6
 370 005e 0020     		movs	r0, #0
 371 0060 FFF7FEFF 		bl	strtok
 372              	.LVL59:
 373 0064 0100     		movs	r1, r0
 374              	.LVL60:
 115:MTK3339-Sensor-Driver/GPS.c **** 	strcpy( gps->lonCardinal, ptr );
 375              		.loc 1 115 0
 376 0066 2000     		movs	r0, r4
 377              	.LVL61:
 378 0068 2230     		adds	r0, r0, #34
 379 006a FFF7FEFF 		bl	strcpy
 380              	.LVL62:
 116:MTK3339-Sensor-Driver/GPS.c ****     
 117:MTK3339-Sensor-Driver/GPS.c **** 	// Fix
 118:MTK3339-Sensor-Driver/GPS.c **** 	ptr = strtok ( NULL, "," );
 381              		.loc 1 118 0
 382 006e 3100     		movs	r1, r6
 383 0070 0020     		movs	r0, #0
 384 0072 FFF7FEFF 		bl	strtok
 385              	.LVL63:
 386 0076 0100     		movs	r1, r0
 387              	.LVL64:
 119:MTK3339-Sensor-Driver/GPS.c **** 	strcpy( gps->fix, ptr );
 388              		.loc 1 119 0
 389 0078 2000     		movs	r0, r4
ARM GAS  C:\Users\TT\AppData\Local\Temp\ccDoYqb1.s 			page 10


 390              	.LVL65:
 391 007a 2430     		adds	r0, r0, #36
 392 007c FFF7FEFF 		bl	strcpy
 393              	.LVL66:
 120:MTK3339-Sensor-Driver/GPS.c **** 	return 1;
 394              		.loc 1 120 0
 395 0080 0120     		movs	r0, #1
 396 0082 00E0     		b	.L18
 397              	.LVL67:
 398              	.L19:
  91:MTK3339-Sensor-Driver/GPS.c ****     
 399              		.loc 1 91 0
 400 0084 0020     		movs	r0, #0
 401              	.LVL68:
 402              	.L18:
 121:MTK3339-Sensor-Driver/GPS.c **** }
 403              		.loc 1 121 0
 404              		@ sp needed
 405              	.LVL69:
 406              	.LVL70:
 407 0086 70BD     		pop	{r4, r5, r6, pc}
 408              	.L21:
 409              		.align	2
 410              	.L20:
 411 0088 84000000 		.word	.LC8
 412 008c 8C000000 		.word	.LC10
 413              		.cfi_endproc
 414              	.LFE39:
 415              		.size	gps_parseNMEA, .-gps_parseNMEA
 416              		.global	__aeabi_ddiv
 417              		.global	__aeabi_d2iz
 418              		.global	__aeabi_i2d
 419              		.global	__aeabi_dsub
 420              		.global	__aeabi_dadd
 421              		.section	.text.gps_minsToDec,"ax",%progbits
 422              		.align	2
 423              		.global	gps_minsToDec
 424              		.code	16
 425              		.thumb_func
 426              		.type	gps_minsToDec, %function
 427              	gps_minsToDec:
 428              	.LFB42:
 122:MTK3339-Sensor-Driver/GPS.c **** 
 123:MTK3339-Sensor-Driver/GPS.c **** 
 124:MTK3339-Sensor-Driver/GPS.c **** //  =========================================================
 125:MTK3339-Sensor-Driver/GPS.c **** //  ||                    gps_parseData					   ||
 126:MTK3339-Sensor-Driver/GPS.c **** //  =========================================================
 127:MTK3339-Sensor-Driver/GPS.c **** struct GPS_Data gps_parseData( struct GPS_Str_Data *strData )
 128:MTK3339-Sensor-Driver/GPS.c **** {
 129:MTK3339-Sensor-Driver/GPS.c **** 	// Convert the struct of strings to a struct of integral types
 130:MTK3339-Sensor-Driver/GPS.c **** 	struct GPS_Data gpsData;
 131:MTK3339-Sensor-Driver/GPS.c **** 	
 132:MTK3339-Sensor-Driver/GPS.c **** 	// ===== Latitude =====
 133:MTK3339-Sensor-Driver/GPS.c **** 	gpsData.latitude = atof( strData->latitude );
 134:MTK3339-Sensor-Driver/GPS.c **** 	// Negate if Southern hempisphere	
 135:MTK3339-Sensor-Driver/GPS.c **** 	if ( strData->latCardinal[0] == 'S' )
 136:MTK3339-Sensor-Driver/GPS.c **** 		gpsData.latitude *= -1;
ARM GAS  C:\Users\TT\AppData\Local\Temp\ccDoYqb1.s 			page 11


 137:MTK3339-Sensor-Driver/GPS.c **** 
 138:MTK3339-Sensor-Driver/GPS.c **** 	// Convert from NMEA Minute form to pure decimal
 139:MTK3339-Sensor-Driver/GPS.c **** 	gpsData.latitude =  gps_minsToDec( gpsData.latitude );
 140:MTK3339-Sensor-Driver/GPS.c **** 
 141:MTK3339-Sensor-Driver/GPS.c **** 	// ===== Longitude =====
 142:MTK3339-Sensor-Driver/GPS.c **** 	gpsData.longitude = atof( strData->longitude );
 143:MTK3339-Sensor-Driver/GPS.c **** 	// Negate if Western hempisphere	
 144:MTK3339-Sensor-Driver/GPS.c **** 	if ( strData->lonCardinal[0] == 'W' )
 145:MTK3339-Sensor-Driver/GPS.c **** 		gpsData.longitude *= -1;
 146:MTK3339-Sensor-Driver/GPS.c **** 
 147:MTK3339-Sensor-Driver/GPS.c **** 	// Convert from NMEA Minute form to pure decimal
 148:MTK3339-Sensor-Driver/GPS.c **** 	gpsData.longitude =  gps_minsToDec( gpsData.longitude );
 149:MTK3339-Sensor-Driver/GPS.c **** 
 150:MTK3339-Sensor-Driver/GPS.c **** 	gpsData.fix = atoi( strData->fix );
 151:MTK3339-Sensor-Driver/GPS.c **** 	return gpsData;
 152:MTK3339-Sensor-Driver/GPS.c **** }
 153:MTK3339-Sensor-Driver/GPS.c **** 
 154:MTK3339-Sensor-Driver/GPS.c **** 
 155:MTK3339-Sensor-Driver/GPS.c **** 
 156:MTK3339-Sensor-Driver/GPS.c **** //  =========================================================
 157:MTK3339-Sensor-Driver/GPS.c **** //  ||                    gps_getData 					   ||
 158:MTK3339-Sensor-Driver/GPS.c **** //  =========================================================
 159:MTK3339-Sensor-Driver/GPS.c **** int gps_getData( struct GPS_Str_Data *gpsData )
 160:MTK3339-Sensor-Driver/GPS.c **** {
 161:MTK3339-Sensor-Driver/GPS.c **** 	// result will be summed with any successful NMEA parses	
 162:MTK3339-Sensor-Driver/GPS.c **** 	int result = 0;
 163:MTK3339-Sensor-Driver/GPS.c **** 	char string[255];
 164:MTK3339-Sensor-Driver/GPS.c **** 
 165:MTK3339-Sensor-Driver/GPS.c **** 	while (GPS_UART_SpiUartGetRxBufferSize()) //checks through all bytes in the buffer
 166:MTK3339-Sensor-Driver/GPS.c **** 	{	
 167:MTK3339-Sensor-Driver/GPS.c ****         GPS_Recv(string, 255);		                //packet is stored in string array
 168:MTK3339-Sensor-Driver/GPS.c **** 		result += gps_parseNMEA( string, gpsData ); //if packet has location info result will store 1
 169:MTK3339-Sensor-Driver/GPS.c ****         if (result)
 170:MTK3339-Sensor-Driver/GPS.c ****         {
 171:MTK3339-Sensor-Driver/GPS.c ****             break;
 172:MTK3339-Sensor-Driver/GPS.c ****         }
 173:MTK3339-Sensor-Driver/GPS.c **** 	}
 174:MTK3339-Sensor-Driver/GPS.c **** 	return result;
 175:MTK3339-Sensor-Driver/GPS.c **** }
 176:MTK3339-Sensor-Driver/GPS.c **** 
 177:MTK3339-Sensor-Driver/GPS.c **** 
 178:MTK3339-Sensor-Driver/GPS.c **** 
 179:MTK3339-Sensor-Driver/GPS.c **** //  =========================================================
 180:MTK3339-Sensor-Driver/GPS.c **** //  ||                    gps_minsToDec					   ||
 181:MTK3339-Sensor-Driver/GPS.c **** //  =========================================================
 182:MTK3339-Sensor-Driver/GPS.c **** // Convert the GPS lat/lon format from DDMM.MMMM to decimal
 183:MTK3339-Sensor-Driver/GPS.c **** double gps_minsToDec(double coord)
 184:MTK3339-Sensor-Driver/GPS.c **** {
 429              		.loc 1 184 0
 430              		.cfi_startproc
 431              		@ args = 0, pretend = 0, frame = 0
 432              		@ frame_needed = 0, uses_anonymous_args = 0
 433              	.LVL71:
 434 0000 70B5     		push	{r4, r5, r6, lr}
 435              		.cfi_def_cfa_offset 16
 436              		.cfi_offset 4, -16
 437              		.cfi_offset 5, -12
ARM GAS  C:\Users\TT\AppData\Local\Temp\ccDoYqb1.s 			page 12


 438              		.cfi_offset 6, -8
 439              		.cfi_offset 14, -4
 440 0002 0400     		movs	r4, r0
 441 0004 0D00     		movs	r5, r1
 185:MTK3339-Sensor-Driver/GPS.c **** 	int degree = coord / 100;
 442              		.loc 1 185 0
 443 0006 0022     		movs	r2, #0
 444 0008 0F4B     		ldr	r3, .L23
 445 000a FFF7FEFF 		bl	__aeabi_ddiv
 446              	.LVL72:
 447 000e FFF7FEFF 		bl	__aeabi_d2iz
 448              	.LVL73:
 449 0012 0600     		movs	r6, r0
 450              	.LVL74:
 186:MTK3339-Sensor-Driver/GPS.c **** 	return (coord - degree * 100) / 60 + degree;
 451              		.loc 1 186 0
 452 0014 6420     		movs	r0, #100
 453              	.LVL75:
 454 0016 7043     		muls	r0, r6
 455 0018 FFF7FEFF 		bl	__aeabi_i2d
 456              	.LVL76:
 457 001c 0200     		movs	r2, r0
 458 001e 0B00     		movs	r3, r1
 459 0020 2000     		movs	r0, r4
 460 0022 2900     		movs	r1, r5
 461 0024 FFF7FEFF 		bl	__aeabi_dsub
 462              	.LVL77:
 463 0028 0022     		movs	r2, #0
 464 002a 084B     		ldr	r3, .L23+4
 465 002c FFF7FEFF 		bl	__aeabi_ddiv
 466              	.LVL78:
 467 0030 0400     		movs	r4, r0
 468 0032 0D00     		movs	r5, r1
 469 0034 3000     		movs	r0, r6
 470 0036 FFF7FEFF 		bl	__aeabi_i2d
 471              	.LVL79:
 472 003a 0200     		movs	r2, r0
 473 003c 0B00     		movs	r3, r1
 474 003e 2000     		movs	r0, r4
 475 0040 2900     		movs	r1, r5
 476 0042 FFF7FEFF 		bl	__aeabi_dadd
 477              	.LVL80:
 187:MTK3339-Sensor-Driver/GPS.c **** }
 478              		.loc 1 187 0
 479              		@ sp needed
 480              	.LVL81:
 481 0046 70BD     		pop	{r4, r5, r6, pc}
 482              	.L24:
 483              		.align	2
 484              	.L23:
 485 0048 00005940 		.word	1079574528
 486 004c 00004E40 		.word	1078853632
 487              		.cfi_endproc
 488              	.LFE42:
 489              		.size	gps_minsToDec, .-gps_minsToDec
 490              		.global	__aeabi_d2f
 491              		.global	__aeabi_f2d
ARM GAS  C:\Users\TT\AppData\Local\Temp\ccDoYqb1.s 			page 13


 492              		.section	.text.gps_parseData,"ax",%progbits
 493              		.align	2
 494              		.global	gps_parseData
 495              		.code	16
 496              		.thumb_func
 497              		.type	gps_parseData, %function
 498              	gps_parseData:
 499              	.LFB40:
 128:MTK3339-Sensor-Driver/GPS.c **** 	// Convert the struct of strings to a struct of integral types
 500              		.loc 1 128 0
 501              		.cfi_startproc
 502              		@ args = 0, pretend = 0, frame = 0
 503              		@ frame_needed = 0, uses_anonymous_args = 0
 504              	.LVL82:
 505 0000 70B5     		push	{r4, r5, r6, lr}
 506              		.cfi_def_cfa_offset 16
 507              		.cfi_offset 4, -16
 508              		.cfi_offset 5, -12
 509              		.cfi_offset 6, -8
 510              		.cfi_offset 14, -4
 511 0002 0400     		movs	r4, r0
 512 0004 0D00     		movs	r5, r1
 133:MTK3339-Sensor-Driver/GPS.c **** 	// Negate if Southern hempisphere	
 513              		.loc 1 133 0
 514 0006 0800     		movs	r0, r1
 515              	.LVL83:
 516 0008 FFF7FEFF 		bl	atof
 517              	.LVL84:
 518 000c FFF7FEFF 		bl	__aeabi_d2f
 519              	.LVL85:
 520 0010 2060     		str	r0, [r4]
 135:MTK3339-Sensor-Driver/GPS.c **** 		gpsData.latitude *= -1;
 521              		.loc 1 135 0
 522 0012 2023     		movs	r3, #32
 523 0014 EB5C     		ldrb	r3, [r5, r3]
 524 0016 532B     		cmp	r3, #83
 525 0018 04D1     		bne	.L26
 136:MTK3339-Sensor-Driver/GPS.c **** 
 526              		.loc 1 136 0
 527 001a 8023     		movs	r3, #128
 528 001c 1B06     		lsls	r3, r3, #24
 529 001e 9C46     		mov	ip, r3
 530 0020 6044     		add	r0, r0, ip
 531 0022 2060     		str	r0, [r4]
 532              	.L26:
 139:MTK3339-Sensor-Driver/GPS.c **** 
 533              		.loc 1 139 0
 534 0024 2068     		ldr	r0, [r4]
 535 0026 FFF7FEFF 		bl	__aeabi_f2d
 536              	.LVL86:
 537 002a FFF7FEFF 		bl	gps_minsToDec
 538              	.LVL87:
 539 002e FFF7FEFF 		bl	__aeabi_d2f
 540              	.LVL88:
 541 0032 2060     		str	r0, [r4]
 142:MTK3339-Sensor-Driver/GPS.c **** 	// Negate if Western hempisphere	
 542              		.loc 1 142 0
ARM GAS  C:\Users\TT\AppData\Local\Temp\ccDoYqb1.s 			page 14


 543 0034 2800     		movs	r0, r5
 544 0036 1030     		adds	r0, r0, #16
 545 0038 FFF7FEFF 		bl	atof
 546              	.LVL89:
 547 003c FFF7FEFF 		bl	__aeabi_d2f
 548              	.LVL90:
 549 0040 6060     		str	r0, [r4, #4]
 144:MTK3339-Sensor-Driver/GPS.c **** 		gpsData.longitude *= -1;
 550              		.loc 1 144 0
 551 0042 2223     		movs	r3, #34
 552 0044 EB5C     		ldrb	r3, [r5, r3]
 553 0046 572B     		cmp	r3, #87
 554 0048 04D1     		bne	.L27
 145:MTK3339-Sensor-Driver/GPS.c **** 
 555              		.loc 1 145 0
 556 004a 8023     		movs	r3, #128
 557 004c 1B06     		lsls	r3, r3, #24
 558 004e 9C46     		mov	ip, r3
 559 0050 6044     		add	r0, r0, ip
 560 0052 6060     		str	r0, [r4, #4]
 561              	.L27:
 148:MTK3339-Sensor-Driver/GPS.c **** 
 562              		.loc 1 148 0
 563 0054 6068     		ldr	r0, [r4, #4]
 564 0056 FFF7FEFF 		bl	__aeabi_f2d
 565              	.LVL91:
 566 005a FFF7FEFF 		bl	gps_minsToDec
 567              	.LVL92:
 568 005e FFF7FEFF 		bl	__aeabi_d2f
 569              	.LVL93:
 570 0062 6060     		str	r0, [r4, #4]
 150:MTK3339-Sensor-Driver/GPS.c **** 	return gpsData;
 571              		.loc 1 150 0
 572 0064 2800     		movs	r0, r5
 573 0066 2430     		adds	r0, r0, #36
 574 0068 FFF7FEFF 		bl	atoi
 575              	.LVL94:
 576 006c A060     		str	r0, [r4, #8]
 152:MTK3339-Sensor-Driver/GPS.c **** 
 577              		.loc 1 152 0
 578 006e 2000     		movs	r0, r4
 579              		@ sp needed
 580              	.LVL95:
 581              	.LVL96:
 582 0070 70BD     		pop	{r4, r5, r6, pc}
 583              		.cfi_endproc
 584              	.LFE40:
 585              		.size	gps_parseData, .-gps_parseData
 586 0072 C046     		.section	.text.GPS_Recv,"ax",%progbits
 587              		.align	2
 588              		.global	GPS_Recv
 589              		.code	16
 590              		.thumb_func
 591              		.type	GPS_Recv, %function
 592              	GPS_Recv:
 593              	.LFB43:
 188:MTK3339-Sensor-Driver/GPS.c **** 
ARM GAS  C:\Users\TT\AppData\Local\Temp\ccDoYqb1.s 			page 15


 189:MTK3339-Sensor-Driver/GPS.c **** //  =========================================================
 190:MTK3339-Sensor-Driver/GPS.c **** //  ||                    GPS_Recv      				   ||
 191:MTK3339-Sensor-Driver/GPS.c **** //  =========================================================
 192:MTK3339-Sensor-Driver/GPS.c **** //Parses incoming data from the GPS
 193:MTK3339-Sensor-Driver/GPS.c **** void GPS_Recv(char myString[], int maxLength) 
 194:MTK3339-Sensor-Driver/GPS.c **** {
 594              		.loc 1 194 0
 595              		.cfi_startproc
 596              		@ args = 0, pretend = 0, frame = 0
 597              		@ frame_needed = 0, uses_anonymous_args = 0
 598              	.LVL97:
 599 0000 70B5     		push	{r4, r5, r6, lr}
 600              		.cfi_def_cfa_offset 16
 601              		.cfi_offset 4, -16
 602              		.cfi_offset 5, -12
 603              		.cfi_offset 6, -8
 604              		.cfi_offset 14, -4
 605 0002 0600     		movs	r6, r0
 606 0004 0D00     		movs	r5, r1
 607              	.LVL98:
 195:MTK3339-Sensor-Driver/GPS.c ****   char response;
 196:MTK3339-Sensor-Driver/GPS.c ****   int i;
 197:MTK3339-Sensor-Driver/GPS.c ****   i = 0;
 608              		.loc 1 197 0
 609 0006 0024     		movs	r4, #0
 198:MTK3339-Sensor-Driver/GPS.c ****     
 199:MTK3339-Sensor-Driver/GPS.c ****   while (i < (maxLength - 1)) /* prevent over-runs */
 610              		.loc 1 199 0
 611 0008 0BE0     		b	.L31
 612              	.LVL99:
 613              	.L32:
 200:MTK3339-Sensor-Driver/GPS.c ****   {                   
 201:MTK3339-Sensor-Driver/GPS.c ****     response = GPS_UART_UartGetByte();
 614              		.loc 1 201 0
 615 000a FFF7FEFF 		bl	GPS_UART_UartGetByte
 616              	.LVL100:
 617 000e C0B2     		uxtb	r0, r0
 618              	.LVL101:
 202:MTK3339-Sensor-Driver/GPS.c ****     
 203:MTK3339-Sensor-Driver/GPS.c ****     if (response == '\r') /* enter marks the end */
 619              		.loc 1 203 0
 620 0010 0D28     		cmp	r0, #13
 621 0012 09D0     		beq	.L30
 204:MTK3339-Sensor-Driver/GPS.c ****     {                     
 205:MTK3339-Sensor-Driver/GPS.c ****       break;
 206:MTK3339-Sensor-Driver/GPS.c ****     }
 207:MTK3339-Sensor-Driver/GPS.c ****     else if (!((response >= ' ') && (response <= '~'))){
 622              		.loc 1 207 0
 623 0014 0300     		movs	r3, r0
 624 0016 203B     		subs	r3, r3, #32
 625 0018 DBB2     		uxtb	r3, r3
 626 001a 5E2B     		cmp	r3, #94
 627 001c 01D8     		bhi	.L31
 208:MTK3339-Sensor-Driver/GPS.c ****         //Not an ASCII character that we care about
 209:MTK3339-Sensor-Driver/GPS.c ****     }
 210:MTK3339-Sensor-Driver/GPS.c ****     else 
 211:MTK3339-Sensor-Driver/GPS.c ****     {
ARM GAS  C:\Users\TT\AppData\Local\Temp\ccDoYqb1.s 			page 16


 212:MTK3339-Sensor-Driver/GPS.c ****       myString[i] = response;                       /* add in a letter */
 628              		.loc 1 212 0
 629 001e 3055     		strb	r0, [r6, r4]
 213:MTK3339-Sensor-Driver/GPS.c ****       i++;
 630              		.loc 1 213 0
 631 0020 0134     		adds	r4, r4, #1
 632              	.LVL102:
 633              	.L31:
 199:MTK3339-Sensor-Driver/GPS.c ****   {                   
 634              		.loc 1 199 0
 635 0022 6B1E     		subs	r3, r5, #1
 636 0024 9C42     		cmp	r4, r3
 637 0026 F0DB     		blt	.L32
 638              	.L30:
 214:MTK3339-Sensor-Driver/GPS.c ****     }
 215:MTK3339-Sensor-Driver/GPS.c ****   }
 216:MTK3339-Sensor-Driver/GPS.c ****   myString[i] = 0;                          /* terminal NULL character */
 639              		.loc 1 216 0
 640 0028 3419     		adds	r4, r6, r4
 641              	.LVL103:
 642 002a 0023     		movs	r3, #0
 643 002c 2370     		strb	r3, [r4]
 217:MTK3339-Sensor-Driver/GPS.c **** }
 644              		.loc 1 217 0
 645              		@ sp needed
 646              	.LVL104:
 647              	.LVL105:
 648 002e 70BD     		pop	{r4, r5, r6, pc}
 649              		.cfi_endproc
 650              	.LFE43:
 651              		.size	GPS_Recv, .-GPS_Recv
 652              		.section	.text.gps_getData,"ax",%progbits
 653              		.align	2
 654              		.global	gps_getData
 655              		.code	16
 656              		.thumb_func
 657              		.type	gps_getData, %function
 658              	gps_getData:
 659              	.LFB41:
 160:MTK3339-Sensor-Driver/GPS.c **** 	// result will be summed with any successful NMEA parses	
 660              		.loc 1 160 0
 661              		.cfi_startproc
 662              		@ args = 0, pretend = 0, frame = 256
 663              		@ frame_needed = 0, uses_anonymous_args = 0
 664              	.LVL106:
 665 0000 30B5     		push	{r4, r5, lr}
 666              		.cfi_def_cfa_offset 12
 667              		.cfi_offset 4, -12
 668              		.cfi_offset 5, -8
 669              		.cfi_offset 14, -4
 670 0002 C1B0     		sub	sp, sp, #260
 671              		.cfi_def_cfa_offset 272
 672 0004 0500     		movs	r5, r0
 673              	.LVL107:
 162:MTK3339-Sensor-Driver/GPS.c **** 	char string[255];
 674              		.loc 1 162 0
 675 0006 0024     		movs	r4, #0
ARM GAS  C:\Users\TT\AppData\Local\Temp\ccDoYqb1.s 			page 17


 165:MTK3339-Sensor-Driver/GPS.c **** 	{	
 676              		.loc 1 165 0
 677 0008 0AE0     		b	.L34
 678              	.LVL108:
 679              	.L36:
 167:MTK3339-Sensor-Driver/GPS.c **** 		result += gps_parseNMEA( string, gpsData ); //if packet has location info result will store 1
 680              		.loc 1 167 0
 681 000a FF21     		movs	r1, #255
 682 000c 6846     		mov	r0, sp
 683 000e FFF7FEFF 		bl	GPS_Recv
 684              	.LVL109:
 168:MTK3339-Sensor-Driver/GPS.c ****         if (result)
 685              		.loc 1 168 0
 686 0012 2900     		movs	r1, r5
 687 0014 6846     		mov	r0, sp
 688 0016 FFF7FEFF 		bl	gps_parseNMEA
 689              	.LVL110:
 690 001a 2418     		adds	r4, r4, r0
 691              	.LVL111:
 169:MTK3339-Sensor-Driver/GPS.c ****         {
 692              		.loc 1 169 0
 693 001c 002C     		cmp	r4, #0
 694 001e 03D1     		bne	.L35
 695              	.LVL112:
 696              	.L34:
 165:MTK3339-Sensor-Driver/GPS.c **** 	{	
 697              		.loc 1 165 0
 698 0020 FFF7FEFF 		bl	GPS_UART_SpiUartGetRxBufferSize
 699              	.LVL113:
 700 0024 0028     		cmp	r0, #0
 701 0026 F0D1     		bne	.L36
 702              	.L35:
 175:MTK3339-Sensor-Driver/GPS.c **** 
 703              		.loc 1 175 0
 704 0028 2000     		movs	r0, r4
 705 002a 41B0     		add	sp, sp, #260
 706              		@ sp needed
 707              	.LVL114:
 708              	.LVL115:
 709 002c 30BD     		pop	{r4, r5, pc}
 710              		.cfi_endproc
 711              	.LFE41:
 712              		.size	gps_getData, .-gps_getData
 713 002e C046     		.section	.rodata.str1.4,"aMS",%progbits,1
 714              		.align	2
 715              	.LC0:
 716 0000 24504D54 		.ascii	"$PMTK101*32<CR><LF>\000"
 716      4B313031 
 716      2A33323C 
 716      43523E3C 
 716      4C463E00 
 717              	.LC2:
 718 0014 24504D54 		.ascii	"$PMTK220,100*1F<CR><LF>\000"
 718      4B323230 
 718      2C313030 
 718      2A31463C 
 718      43523E3C 
ARM GAS  C:\Users\TT\AppData\Local\Temp\ccDoYqb1.s 			page 18


 719              	.LC4:
 720 002c 24504D54 		.ascii	"$PMTK314,0,0,0,1,0,0,0,0,0,0,0,0,0,0,0,0,0,0,0*29<C"
 720      4B333134 
 720      2C302C30 
 720      2C302C31 
 720      2C302C30 
 721 005f 523E3C4C 		.ascii	"R><LF>\000"
 721      463E00
 722 0066 0000     		.space	2
 723              	.LC6:
 724 0068 24504D54 		.ascii	"$PMTK251,57600*2C<CR><LF>\000"
 724      4B323531 
 724      2C353736 
 724      30302A32 
 724      433C4352 
 725 0082 0000     		.space	2
 726              	.LC8:
 727 0084 24475047 		.ascii	"$GPGGA\000"
 727      474100
 728 008b 00       		.space	1
 729              	.LC10:
 730 008c 2C00     		.ascii	",\000"
 731              		.text
 732              	.Letext0:
 733              		.file 2 "MTK3339-Sensor-Driver\\GPS.h"
 734              		.file 3 "Generated_Source\\PSoC4/UART_CLOCK.h"
 735              		.file 4 "Generated_Source\\PSoC4/GPS_UART.h"
 736              		.file 5 "Generated_Source\\PSoC4/GPS_UART_SPI_UART.h"
 737              		.file 6 "c:\\program files (x86)\\cypress\\psoc creator\\4.4\\psoc creator\\import\\gnu\\arm\\5.4.
 738              		.file 7 "c:\\program files (x86)\\cypress\\psoc creator\\4.4\\psoc creator\\import\\gnu\\arm\\5.4.