ARM GAS  C:\Users\TT\AppData\Local\Temp\cclueNJD.s 			page 1


   1              		.syntax unified
   2              		.cpu cortex-m0
   3              		.fpu softvfp
   4              		.eabi_attribute 20, 1
   5              		.eabi_attribute 21, 1
   6              		.eabi_attribute 23, 3
   7              		.eabi_attribute 24, 1
   8              		.eabi_attribute 25, 1
   9              		.eabi_attribute 26, 1
  10              		.eabi_attribute 30, 1
  11              		.eabi_attribute 34, 0
  12              		.eabi_attribute 18, 4
  13              		.thumb
  14              		.syntax unified
  15              		.file	"IMUDriver.c"
  16              		.text
  17              	.Ltext0:
  18              		.cfi_sections	.debug_frame
  19              		.section	.text.BNO055_delay_msek,"ax",%progbits
  20              		.align	2
  21              		.global	BNO055_delay_msek
  22              		.code	16
  23              		.thumb_func
  24              		.type	BNO055_delay_msek, %function
  25              	BNO055_delay_msek:
  26              	.LFB39:
  27              		.file 1 "IMUDriver.c"
   1:IMUDriver.c   **** #include "IMUDriver.h"
   2:IMUDriver.c   **** 
   3:IMUDriver.c   **** 
   4:IMUDriver.c   **** void imu_init()
   5:IMUDriver.c   **** {
   6:IMUDriver.c   ****     IMU_RST_Write(!IMU_RST_Read());
   7:IMUDriver.c   ****     CyDelay(20);
   8:IMUDriver.c   ****     IMU_RST_Write(!IMU_RST_Read());   
   9:IMUDriver.c   ****     CyDelay(1000);
  10:IMUDriver.c   ****     
  11:IMUDriver.c   ****     IMU_I2C_Start();
  12:IMUDriver.c   ****     
  13:IMUDriver.c   ****     I2C_routine();
  14:IMUDriver.c   ****     //Print("Starting imu init");
  15:IMUDriver.c   ****     bno055_init(&bno055);
  16:IMUDriver.c   ****     bno055_set_power_mode(BNO055_POWER_MODE_NORMAL);
  17:IMUDriver.c   ****     bno055_set_operation_mode(BNO055_OPERATION_MODE_NDOF);
  18:IMUDriver.c   ****     //bno055_set_accel_unit(BNO055_ACCEL_UNIT_MSQ); //set units of accel to m/s^2
  19:IMUDriver.c   ****     //bno055_set_gyro_unit(BNO055_GYRO_UNIT_DPS); //set units of rotational speed to degrees per se
  20:IMUDriver.c   ****     //bno055_set_euler_unit(BNO055_EULER_UNIT_DEG); //set units of euler angle to degrees
  21:IMUDriver.c   ****     //bno055_set_temp_unit(BNO055_TEMP_UNIT_CELSIUS); //set temp measure as celsius
  22:IMUDriver.c   ****     
  23:IMUDriver.c   ****     
  24:IMUDriver.c   **** }
  25:IMUDriver.c   **** 
  26:IMUDriver.c   **** /*----------------------------------------------------------------------------*
  27:IMUDriver.c   ****  *  struct bno055_t parameters can be accessed by using BNO055
  28:IMUDriver.c   ****  *  BNO055_t having the following parameters
  29:IMUDriver.c   ****  *  Bus write function pointer: BNO055_WR_FUNC_PTR
  30:IMUDriver.c   ****  *  Bus read function pointer: BNO055_RD_FUNC_PTR
ARM GAS  C:\Users\TT\AppData\Local\Temp\cclueNJD.s 			page 2


  31:IMUDriver.c   ****  *  Burst read function pointer: BNO055_BRD_FUNC_PTR
  32:IMUDriver.c   ****  *  Delay function pointer: delay_msec
  33:IMUDriver.c   ****  *  I2C address: dev_addr
  34:IMUDriver.c   ****  *  Chip id of the sensor: chip_id
  35:IMUDriver.c   ****  *---------------------------------------------------------------------------*/
  36:IMUDriver.c   **** 
  37:IMUDriver.c   **** 
  38:IMUDriver.c   **** /* This API is an example for reading sensor data
  39:IMUDriver.c   ****  *  \param: None
  40:IMUDriver.c   ****  *  \return: communication result
  41:IMUDriver.c   ****  */
  42:IMUDriver.c   **** s32 bno055_data_readout_template(void)
  43:IMUDriver.c   **** {
  44:IMUDriver.c   ****     
  45:IMUDriver.c   ****      /* Variable used to return value of
  46:IMUDriver.c   ****      * communication routine*/
  47:IMUDriver.c   ****     comres = BNO055_ERROR;
  48:IMUDriver.c   **** 
  49:IMUDriver.c   ****     /* variable used to set the power mode of the sensor*/
  50:IMUDriver.c   ****      power_mode = BNO055_INIT_VALUE;
  51:IMUDriver.c   **** 
  52:IMUDriver.c   ****     /*********read raw accel data***********/
  53:IMUDriver.c   ****     /* variable used to read the accel x data */
  54:IMUDriver.c   ****     accel_datax = BNO055_INIT_VALUE;
  55:IMUDriver.c   **** 
  56:IMUDriver.c   ****     /* variable used to read the accel y data */
  57:IMUDriver.c   ****     accel_datay = BNO055_INIT_VALUE;
  58:IMUDriver.c   **** 
  59:IMUDriver.c   ****     /* variable used to read the accel z data */
  60:IMUDriver.c   ****     accel_dataz = BNO055_INIT_VALUE;
  61:IMUDriver.c   **** 
  62:IMUDriver.c   ****     /* variable used to read the accel xyz data */
  63:IMUDriver.c   ****     
  64:IMUDriver.c   **** 
  65:IMUDriver.c   ****     /*********read raw mag data***********/
  66:IMUDriver.c   ****     /* variable used to read the mag x data */
  67:IMUDriver.c   ****     mag_datax = BNO055_INIT_VALUE;
  68:IMUDriver.c   **** 
  69:IMUDriver.c   ****     /* variable used to read the mag y data */
  70:IMUDriver.c   ****     mag_datay = BNO055_INIT_VALUE;
  71:IMUDriver.c   **** 
  72:IMUDriver.c   ****     /* variable used to read the mag z data */
  73:IMUDriver.c   ****     mag_dataz = BNO055_INIT_VALUE;
  74:IMUDriver.c   **** 
  75:IMUDriver.c   ****     /* structure used to read the mag xyz data */
  76:IMUDriver.c   ****     
  77:IMUDriver.c   **** 
  78:IMUDriver.c   ****     /***********read raw gyro data***********/
  79:IMUDriver.c   ****     /* variable used to read the gyro x data */
  80:IMUDriver.c   ****     gyro_datax = BNO055_INIT_VALUE;
  81:IMUDriver.c   **** 
  82:IMUDriver.c   ****     /* variable used to read the gyro y data */
  83:IMUDriver.c   ****     gyro_datay = BNO055_INIT_VALUE;
  84:IMUDriver.c   **** 
  85:IMUDriver.c   ****     /* variable used to read the gyro z data */
  86:IMUDriver.c   ****     gyro_dataz = BNO055_INIT_VALUE;
  87:IMUDriver.c   **** 
ARM GAS  C:\Users\TT\AppData\Local\Temp\cclueNJD.s 			page 3


  88:IMUDriver.c   ****     /* structure used to read the gyro xyz data */
  89:IMUDriver.c   ****     
  90:IMUDriver.c   **** 
  91:IMUDriver.c   ****     /*************read raw Euler data************/
  92:IMUDriver.c   ****     /* variable used to read the euler h data */
  93:IMUDriver.c   ****     euler_data_h = BNO055_INIT_VALUE;
  94:IMUDriver.c   **** 
  95:IMUDriver.c   ****     /* variable used to read the euler r data */
  96:IMUDriver.c   ****     euler_data_r = BNO055_INIT_VALUE;
  97:IMUDriver.c   **** 
  98:IMUDriver.c   ****     /* variable used to read the euler p data */
  99:IMUDriver.c   ****     euler_data_p = BNO055_INIT_VALUE;
 100:IMUDriver.c   **** 
 101:IMUDriver.c   ****     /* structure used to read the euler hrp data */
 102:IMUDriver.c   ****     
 103:IMUDriver.c   **** 
 104:IMUDriver.c   ****     /************read raw quaternion data**************/
 105:IMUDriver.c   ****     /* variable used to read the quaternion w data */
 106:IMUDriver.c   ****     quaternion_data_w = BNO055_INIT_VALUE;
 107:IMUDriver.c   **** 
 108:IMUDriver.c   ****     /* variable used to read the quaternion x data */
 109:IMUDriver.c   ****     quaternion_data_x = BNO055_INIT_VALUE;
 110:IMUDriver.c   **** 
 111:IMUDriver.c   ****     /* variable used to read the quaternion y data */
 112:IMUDriver.c   ****     quaternion_data_y = BNO055_INIT_VALUE;
 113:IMUDriver.c   **** 
 114:IMUDriver.c   ****     /* variable used to read the quaternion z data */
 115:IMUDriver.c   ****     quaternion_data_z = BNO055_INIT_VALUE;
 116:IMUDriver.c   **** 
 117:IMUDriver.c   ****     /* structure used to read the quaternion wxyz data */
 118:IMUDriver.c   ****     
 119:IMUDriver.c   **** 
 120:IMUDriver.c   ****     /************read raw linear acceleration data***********/
 121:IMUDriver.c   ****     /* variable used to read the linear accel x data */
 122:IMUDriver.c   ****     linear_accel_data_x = BNO055_INIT_VALUE;
 123:IMUDriver.c   **** 
 124:IMUDriver.c   ****     /* variable used to read the linear accel y data */
 125:IMUDriver.c   ****     linear_accel_data_y = BNO055_INIT_VALUE;
 126:IMUDriver.c   **** 
 127:IMUDriver.c   ****     /* variable used to read the linear accel z data */
 128:IMUDriver.c   ****     linear_accel_data_z = BNO055_INIT_VALUE;
 129:IMUDriver.c   **** 
 130:IMUDriver.c   ****     /* structure used to read the linear accel xyz data */
 131:IMUDriver.c   ****     
 132:IMUDriver.c   **** 
 133:IMUDriver.c   ****     /*****************read raw gravity sensor data****************/
 134:IMUDriver.c   ****     /* variable used to read the gravity x data */
 135:IMUDriver.c   ****     gravity_data_x = BNO055_INIT_VALUE;
 136:IMUDriver.c   **** 
 137:IMUDriver.c   ****     /* variable used to read the gravity y data */
 138:IMUDriver.c   ****     gravity_data_y = BNO055_INIT_VALUE;
 139:IMUDriver.c   **** 
 140:IMUDriver.c   ****     /* variable used to read the gravity z data */
 141:IMUDriver.c   ****     gravity_data_z = BNO055_INIT_VALUE;
 142:IMUDriver.c   **** 
 143:IMUDriver.c   ****     /* structure used to read the gravity xyz data */
 144:IMUDriver.c   ****     
ARM GAS  C:\Users\TT\AppData\Local\Temp\cclueNJD.s 			page 4


 145:IMUDriver.c   ****     
 146:IMUDriver.c   ****     /*************read accel converted data***************/
 147:IMUDriver.c   ****     /* variable used to read the accel x data output as m/s2 or mg */
 148:IMUDriver.c   ****     accel_datax = BNO055_INIT_VALUE;
 149:IMUDriver.c   **** 
 150:IMUDriver.c   ****     /* variable used to read the accel y data output as m/s2 or mg */
 151:IMUDriver.c   ****     d_accel_datay = BNO055_INIT_VALUE;
 152:IMUDriver.c   **** 
 153:IMUDriver.c   ****     /* variable used to read the accel z data output as m/s2 or mg */
 154:IMUDriver.c   ****     d_accel_dataz = BNO055_INIT_VALUE;
 155:IMUDriver.c   **** 
 156:IMUDriver.c   ****     /* structure used to read the accel xyz data output as m/s2 or mg */
 157:IMUDriver.c   ****     
 158:IMUDriver.c   **** 
 159:IMUDriver.c   ****     /******************read mag converted data********************/
 160:IMUDriver.c   ****     /* variable used to read the mag x data output as uT*/
 161:IMUDriver.c   ****     d_mag_datax = BNO055_INIT_VALUE;
 162:IMUDriver.c   **** 
 163:IMUDriver.c   ****     /* variable used to read the mag y data output as uT*/
 164:IMUDriver.c   ****     d_mag_datay = BNO055_INIT_VALUE;
 165:IMUDriver.c   **** 
 166:IMUDriver.c   ****     /* variable used to read the mag z data output as uT*/
 167:IMUDriver.c   ****     d_mag_dataz = BNO055_INIT_VALUE;
 168:IMUDriver.c   **** 
 169:IMUDriver.c   ****     /* structure used to read the mag xyz data output as uT*/
 170:IMUDriver.c   ****     
 171:IMUDriver.c   **** 
 172:IMUDriver.c   ****     /*****************read gyro converted data************************/
 173:IMUDriver.c   ****     /* variable used to read the gyro x data output as dps or rps */
 174:IMUDriver.c   ****     d_gyro_datax = BNO055_INIT_VALUE;
 175:IMUDriver.c   **** 
 176:IMUDriver.c   ****     /* variable used to read the gyro y data output as dps or rps */
 177:IMUDriver.c   ****     d_gyro_datay = BNO055_INIT_VALUE;
 178:IMUDriver.c   **** 
 179:IMUDriver.c   ****     /* variable used to read the gyro z data output as dps or rps */
 180:IMUDriver.c   ****     d_gyro_dataz = BNO055_INIT_VALUE;
 181:IMUDriver.c   **** 
 182:IMUDriver.c   ****     /* structure used to read the gyro xyz data output as dps or rps */
 183:IMUDriver.c   ****     
 184:IMUDriver.c   **** 
 185:IMUDriver.c   ****     /*******************read euler converted data*******************/
 186:IMUDriver.c   **** 
 187:IMUDriver.c   ****     /* variable used to read the euler h data output
 188:IMUDriver.c   ****      * as degree or radians*/
 189:IMUDriver.c   ****     d_euler_data_h = BNO055_INIT_VALUE;
 190:IMUDriver.c   **** 
 191:IMUDriver.c   ****     /* variable used to read the euler r data output
 192:IMUDriver.c   ****      * as degree or radians*/
 193:IMUDriver.c   ****     d_euler_data_r = BNO055_INIT_VALUE;
 194:IMUDriver.c   **** 
 195:IMUDriver.c   ****     /* variable used to read the euler p data output
 196:IMUDriver.c   ****      * as degree or radians*/
 197:IMUDriver.c   ****     d_euler_data_p = BNO055_INIT_VALUE;
 198:IMUDriver.c   **** 
 199:IMUDriver.c   ****     /* structure used to read the euler hrp data output
 200:IMUDriver.c   ****      * as as degree or radians */
 201:IMUDriver.c   ****     
ARM GAS  C:\Users\TT\AppData\Local\Temp\cclueNJD.s 			page 5


 202:IMUDriver.c   **** 
 203:IMUDriver.c   ****     /*********read linear acceleration converted data**********/
 204:IMUDriver.c   ****     /* variable used to read the linear accel x data output as m/s2*/
 205:IMUDriver.c   ****     d_linear_accel_datax = BNO055_INIT_VALUE;
 206:IMUDriver.c   **** 
 207:IMUDriver.c   ****     /* variable used to read the linear accel y data output as m/s2*/
 208:IMUDriver.c   ****     d_linear_accel_datay = BNO055_INIT_VALUE;
 209:IMUDriver.c   **** 
 210:IMUDriver.c   ****     /* variable used to read the linear accel z data output as m/s2*/
 211:IMUDriver.c   ****     d_linear_accel_dataz = BNO055_INIT_VALUE;
 212:IMUDriver.c   **** 
 213:IMUDriver.c   ****     /* structure used to read the linear accel xyz data output as m/s2*/
 214:IMUDriver.c   ****     
 215:IMUDriver.c   **** 
 216:IMUDriver.c   ****     /********************Gravity converted data**********************/
 217:IMUDriver.c   ****     /* variable used to read the gravity sensor x data output as m/s2*/
 218:IMUDriver.c   ****     d_gravity_data_x = BNO055_INIT_VALUE;
 219:IMUDriver.c   **** 
 220:IMUDriver.c   ****     /* variable used to read the gravity sensor y data output as m/s2*/
 221:IMUDriver.c   ****     d_gravity_data_y = BNO055_INIT_VALUE;
 222:IMUDriver.c   **** 
 223:IMUDriver.c   ****     /* variable used to read the gravity sensor z data output as m/s2*/
 224:IMUDriver.c   ****     d_gravity_data_z = BNO055_INIT_VALUE;
 225:IMUDriver.c   **** 
 226:IMUDriver.c   ****     /* structure used to read the gravity xyz data output as m/s2*/
 227:IMUDriver.c   ****         
 228:IMUDriver.c   ****     
 229:IMUDriver.c   **** 
 230:IMUDriver.c   ****     /************************* START READ RAW SENSOR DATA****************/
 231:IMUDriver.c   **** 
 232:IMUDriver.c   ****     /*  Using BNO055 sensor we can read the following sensor data and
 233:IMUDriver.c   ****      * virtual sensor data
 234:IMUDriver.c   ****      * Sensor data:
 235:IMUDriver.c   ****      * Accel
 236:IMUDriver.c   ****      * Mag
 237:IMUDriver.c   ****      * Gyro
 238:IMUDriver.c   ****      * Virtual sensor data
 239:IMUDriver.c   ****      * Euler
 240:IMUDriver.c   ****      * Quaternion
 241:IMUDriver.c   ****      * Linear acceleration
 242:IMUDriver.c   ****      * Gravity sensor */
 243:IMUDriver.c   **** 
 244:IMUDriver.c   ****     /*  For reading sensor raw data it is required to set the
 245:IMUDriver.c   ****      * operation modes of the sensor
 246:IMUDriver.c   ****      * operation mode can set from the register
 247:IMUDriver.c   ****      * page - page0
 248:IMUDriver.c   ****      * register - 0x3D
 249:IMUDriver.c   ****      * bit - 0 to 3
 250:IMUDriver.c   ****      * for sensor data read following operation mode have to set
 251:IMUDriver.c   ****      * SENSOR MODE
 252:IMUDriver.c   ****      * 0x01 - BNO055_OPERATION_MODE_ACCONLY
 253:IMUDriver.c   ****      * 0x02 - BNO055_OPERATION_MODE_MAGONLY
 254:IMUDriver.c   ****      * 0x03 - BNO055_OPERATION_MODE_GYRONLY
 255:IMUDriver.c   ****      * 0x04 - BNO055_OPERATION_MODE_ACCMAG
 256:IMUDriver.c   ****      * 0x05 - BNO055_OPERATION_MODE_ACCGYRO
 257:IMUDriver.c   ****      * 0x06 - BNO055_OPERATION_MODE_MAGGYRO
 258:IMUDriver.c   ****      * 0x07 - BNO055_OPERATION_MODE_AMG
ARM GAS  C:\Users\TT\AppData\Local\Temp\cclueNJD.s 			page 6


 259:IMUDriver.c   ****      * based on the user need configure the operation mode*/
 260:IMUDriver.c   **** 
 261:IMUDriver.c   ****     /*  Raw accel X, Y and Z data can read from the register
 262:IMUDriver.c   ****      * page - page 0
 263:IMUDriver.c   ****      * register - 0x08 to 0x0D*/
 264:IMUDriver.c   ****     comres += bno055_read_accel_x(&accel_datax);
 265:IMUDriver.c   ****     comres += bno055_read_accel_y(&accel_datay);
 266:IMUDriver.c   ****     comres += bno055_read_accel_z(&accel_dataz);
 267:IMUDriver.c   ****     comres += bno055_read_accel_xyz(&accel_xyz);
 268:IMUDriver.c   **** 
 269:IMUDriver.c   ****     /*  Raw mag X, Y and Z data can read from the register
 270:IMUDriver.c   ****      * page - page 0
 271:IMUDriver.c   ****      * register - 0x0E to 0x13*/
 272:IMUDriver.c   ****     comres += bno055_read_mag_x(&mag_datax);
 273:IMUDriver.c   ****     comres += bno055_read_mag_y(&mag_datay);
 274:IMUDriver.c   ****     comres += bno055_read_mag_z(&mag_dataz);
 275:IMUDriver.c   ****     comres += bno055_read_mag_xyz(&mag_xyz);
 276:IMUDriver.c   **** 
 277:IMUDriver.c   ****     /*  Raw gyro X, Y and Z data can read from the register
 278:IMUDriver.c   ****      * page - page 0
 279:IMUDriver.c   ****      * register - 0x14 to 0x19*/
 280:IMUDriver.c   ****     comres += bno055_read_gyro_x(&gyro_datax);
 281:IMUDriver.c   ****     comres += bno055_read_gyro_y(&gyro_datay);
 282:IMUDriver.c   ****     comres += bno055_read_gyro_z(&gyro_dataz);
 283:IMUDriver.c   ****     comres += bno055_read_gyro_xyz(&gyro_xyz);
 284:IMUDriver.c   **** 
 285:IMUDriver.c   ****     /************************* END READ RAW SENSOR DATA****************/
 286:IMUDriver.c   **** 
 287:IMUDriver.c   ****     /************************* START READ RAW FUSION DATA ********
 288:IMUDriver.c   ****      * For reading fusion data it is required to set the
 289:IMUDriver.c   ****      * operation modes of the sensor
 290:IMUDriver.c   ****      * operation mode can set from the register
 291:IMUDriver.c   ****      * page - page0
 292:IMUDriver.c   ****      * register - 0x3D
 293:IMUDriver.c   ****      * bit - 0 to 3
 294:IMUDriver.c   ****      * for sensor data read following operation mode have to set
 295:IMUDriver.c   ****      * FUSION MODE
 296:IMUDriver.c   ****      * 0x08 - BNO055_OPERATION_MODE_IMUPLUS
 297:IMUDriver.c   ****      * 0x09 - BNO055_OPERATION_MODE_COMPASS
 298:IMUDriver.c   ****      * 0x0A - BNO055_OPERATION_MODE_M4G
 299:IMUDriver.c   ****      * 0x0B - BNO055_OPERATION_MODE_NDOF_FMC_OFF
 300:IMUDriver.c   ****      * 0x0C - BNO055_OPERATION_MODE_NDOF
 301:IMUDriver.c   ****      * based on the user need configure the operation mode*/
 302:IMUDriver.c   **** 
 303:IMUDriver.c   ****     /*  Raw Euler H, R and P data can read from the register
 304:IMUDriver.c   ****      * page - page 0
 305:IMUDriver.c   ****      * register - 0x1A to 0x1E */
 306:IMUDriver.c   ****     comres += bno055_read_euler_h(&euler_data_h);
 307:IMUDriver.c   ****     comres += bno055_read_euler_r(&euler_data_r);
 308:IMUDriver.c   ****     comres += bno055_read_euler_p(&euler_data_p);
 309:IMUDriver.c   ****     comres += bno055_read_euler_hrp(&euler_hrp);
 310:IMUDriver.c   **** 
 311:IMUDriver.c   ****     /*  Raw Quaternion W, X, Y and Z data can read from the register
 312:IMUDriver.c   ****      * page - page 0
 313:IMUDriver.c   ****      * register - 0x20 to 0x27 */
 314:IMUDriver.c   ****     comres += bno055_read_quaternion_w(&quaternion_data_w);
 315:IMUDriver.c   ****     comres += bno055_read_quaternion_x(&quaternion_data_x);
ARM GAS  C:\Users\TT\AppData\Local\Temp\cclueNJD.s 			page 7


 316:IMUDriver.c   ****     comres += bno055_read_quaternion_y(&quaternion_data_y);
 317:IMUDriver.c   ****     comres += bno055_read_quaternion_z(&quaternion_data_z);
 318:IMUDriver.c   ****     comres += bno055_read_quaternion_wxyz(&quaternion_wxyz);
 319:IMUDriver.c   **** 
 320:IMUDriver.c   ****     /*  Raw Linear accel X, Y and Z data can read from the register
 321:IMUDriver.c   ****      * page - page 0
 322:IMUDriver.c   ****      * register - 0x28 to 0x2D */
 323:IMUDriver.c   ****     comres += bno055_read_linear_accel_x(&linear_accel_data_x);
 324:IMUDriver.c   ****     comres += bno055_read_linear_accel_y(&linear_accel_data_y);
 325:IMUDriver.c   ****     comres += bno055_read_linear_accel_z(&linear_accel_data_z);
 326:IMUDriver.c   ****     comres += bno055_read_linear_accel_xyz(&linear_acce_xyz);
 327:IMUDriver.c   **** 
 328:IMUDriver.c   ****     /*  Raw Gravity sensor X, Y and Z data can read from the register
 329:IMUDriver.c   ****      * page - page 0
 330:IMUDriver.c   ****      * register - 0x2E to 0x33 */
 331:IMUDriver.c   ****     comres += bno055_read_gravity_x(&gravity_data_x);
 332:IMUDriver.c   ****     comres += bno055_read_gravity_y(&gravity_data_y);
 333:IMUDriver.c   ****     comres += bno055_read_gravity_z(&gravity_data_z);
 334:IMUDriver.c   ****     comres += bno055_read_gravity_xyz(&gravity_xyz);
 335:IMUDriver.c   **** 
 336:IMUDriver.c   ****     /************************* END READ RAW FUSION DATA  ************/
 337:IMUDriver.c   ****     /******************START READ CONVERTED SENSOR DATA****************/
 338:IMUDriver.c   **** 
 339:IMUDriver.c   ****     /*  API used to read accel data output as double  - m/s2 and mg
 340:IMUDriver.c   ****      * float functions also available in the BNO055 API */
 341:IMUDriver.c   ****     comres += bno055_convert_double_accel_x_msq(&d_accel_datax);
 342:IMUDriver.c   ****     //comres += bno055_convert_double_accel_x_mg(&d_accel_datax);
 343:IMUDriver.c   ****     comres += bno055_convert_double_accel_y_msq(&d_accel_datay);
 344:IMUDriver.c   ****     //comres += bno055_convert_double_accel_y_mg(&d_accel_datay);
 345:IMUDriver.c   ****     comres += bno055_convert_double_accel_z_msq(&d_accel_dataz);
 346:IMUDriver.c   ****     //comres += bno055_convert_double_accel_z_mg(&d_accel_dataz);
 347:IMUDriver.c   ****     comres += bno055_convert_double_accel_xyz_msq(&d_accel_xyz);
 348:IMUDriver.c   ****     //comres += bno055_convert_double_accel_xyz_mg(&d_accel_xyz);
 349:IMUDriver.c   **** 
 350:IMUDriver.c   ****     /*  API used to read mag data output as double  - uT(micro Tesla)
 351:IMUDriver.c   ****      * float functions also available in the BNO055 API */
 352:IMUDriver.c   ****     comres += bno055_convert_double_mag_x_uT(&d_mag_datax);
 353:IMUDriver.c   ****     comres += bno055_convert_double_mag_y_uT(&d_mag_datay);
 354:IMUDriver.c   ****     comres += bno055_convert_double_mag_z_uT(&d_mag_dataz);
 355:IMUDriver.c   ****     comres += bno055_convert_double_mag_xyz_uT(&d_mag_xyz);
 356:IMUDriver.c   **** 
 357:IMUDriver.c   ****     /*  API used to read gyro data output as double  - dps and rps
 358:IMUDriver.c   ****      * float functions also available in the BNO055 API */
 359:IMUDriver.c   ****     comres += bno055_convert_double_gyro_x_dps(&d_gyro_datax);
 360:IMUDriver.c   ****     comres += bno055_convert_double_gyro_y_dps(&d_gyro_datay);
 361:IMUDriver.c   ****     comres += bno055_convert_double_gyro_z_dps(&d_gyro_dataz);
 362:IMUDriver.c   ****     //comres += bno055_convert_double_gyro_x_rps(&d_gyro_datax);
 363:IMUDriver.c   ****     //comres += bno055_convert_double_gyro_y_rps(&d_gyro_datay);
 364:IMUDriver.c   ****     //comres += bno055_convert_double_gyro_z_rps(&d_gyro_dataz);
 365:IMUDriver.c   ****     comres += bno055_convert_double_gyro_xyz_dps(&d_gyro_xyz);
 366:IMUDriver.c   ****     //comres += bno055_convert_double_gyro_xyz_rps(&d_gyro_xyz);
 367:IMUDriver.c   **** 
 368:IMUDriver.c   ****     /*  API used to read Euler data output as double  - degree and radians
 369:IMUDriver.c   ****      * float functions also available in the BNO055 API */
 370:IMUDriver.c   ****     comres += bno055_convert_double_euler_h_deg(&d_euler_data_h);
 371:IMUDriver.c   ****     comres += bno055_convert_double_euler_r_deg(&d_euler_data_r);
 372:IMUDriver.c   ****     comres += bno055_convert_double_euler_p_deg(&d_euler_data_p);
ARM GAS  C:\Users\TT\AppData\Local\Temp\cclueNJD.s 			page 8


 373:IMUDriver.c   ****     //comres += bno055_convert_double_euler_h_rad(&d_euler_data_h);
 374:IMUDriver.c   ****     //comres += bno055_convert_double_euler_r_rad(&d_euler_data_r);
 375:IMUDriver.c   ****     //comres += bno055_convert_double_euler_p_rad(&d_euler_data_p);
 376:IMUDriver.c   ****     comres += bno055_convert_double_euler_hpr_deg(&d_euler_hpr);
 377:IMUDriver.c   ****     //comres += bno055_convert_double_euler_hpr_rad(&d_euler_hpr);
 378:IMUDriver.c   **** 
 379:IMUDriver.c   ****     /*  API used to read Linear acceleration data output as m/s2
 380:IMUDriver.c   ****      * float functions also available in the BNO055 API */
 381:IMUDriver.c   ****     comres += bno055_convert_double_linear_accel_x_msq(&d_linear_accel_datax);
 382:IMUDriver.c   ****     comres += bno055_convert_double_linear_accel_y_msq(&d_linear_accel_datay);
 383:IMUDriver.c   ****     comres += bno055_convert_double_linear_accel_z_msq(&d_linear_accel_dataz);
 384:IMUDriver.c   ****     comres += bno055_convert_double_linear_accel_xyz_msq(&d_linear_accel_xyz);
 385:IMUDriver.c   **** 
 386:IMUDriver.c   ****     /*  API used to read Gravity sensor data output as m/s2
 387:IMUDriver.c   ****      * float functions also available in the BNO055 API */
 388:IMUDriver.c   ****     comres += bno055_convert_gravity_double_x_msq(&d_gravity_data_x);
 389:IMUDriver.c   ****     comres += bno055_convert_gravity_double_y_msq(&d_gravity_data_y);
 390:IMUDriver.c   ****     comres += bno055_convert_gravity_double_z_msq(&d_gravity_data_z);
 391:IMUDriver.c   ****     comres += bno055_convert_double_gravity_xyz_msq(&d_gravity_xyz);
 392:IMUDriver.c   **** 
 393:IMUDriver.c   **** 
 394:IMUDriver.c   ****     return comres;
 395:IMUDriver.c   **** }
 396:IMUDriver.c   **** 
 397:IMUDriver.c   **** /*--------------------------------------------------------------------------*
 398:IMUDriver.c   ****  *  The following API is used to map the I2C bus read, write, delay and
 399:IMUDriver.c   ****  *  device address with global structure bno055_t
 400:IMUDriver.c   ****  *-------------------------------------------------------------------------*/
 401:IMUDriver.c   **** 
 402:IMUDriver.c   **** /*-------------------------------------------------------------------------*
 403:IMUDriver.c   ****  *  By using bno055 the following structure parameter can be accessed
 404:IMUDriver.c   ****  *  Bus write function pointer: BNO055_WR_FUNC_PTR
 405:IMUDriver.c   ****  *  Bus read function pointer: BNO055_RD_FUNC_PTR
 406:IMUDriver.c   ****  *  Delay function pointer: delay_msec
 407:IMUDriver.c   ****  *  I2C address: dev_addr
 408:IMUDriver.c   ****  *--------------------------------------------------------------------------*/
 409:IMUDriver.c   **** s8 I2C_routine(void)
 410:IMUDriver.c   **** {
 411:IMUDriver.c   ****     bno055.bus_write = BNO055_I2C_bus_write;
 412:IMUDriver.c   ****     bno055.bus_read = BNO055_I2C_bus_read;
 413:IMUDriver.c   ****     bno055.delay_msec = BNO055_delay_msek;
 414:IMUDriver.c   ****     bno055.dev_addr = BNO055_I2C_ADDR1;
 415:IMUDriver.c   **** 
 416:IMUDriver.c   ****     return BNO055_INIT_VALUE;
 417:IMUDriver.c   **** }
 418:IMUDriver.c   **** 
 419:IMUDriver.c   **** /************** I2C buffer length******/
 420:IMUDriver.c   **** 
 421:IMUDriver.c   **** #define I2C_BUFFER_LEN 8
 422:IMUDriver.c   **** #define I2C0           5
 423:IMUDriver.c   **** 
 424:IMUDriver.c   **** 
 425:IMUDriver.c   **** /*  \Brief: The API is used as I2C bus write
 426:IMUDriver.c   ****  *  \Return : Status of the I2C write
 427:IMUDriver.c   ****  *  \param dev_addr : The device address of the sensor
 428:IMUDriver.c   ****  *  \param reg_addr : Address of the first register,
 429:IMUDriver.c   ****  *   will data is going to be written
ARM GAS  C:\Users\TT\AppData\Local\Temp\cclueNJD.s 			page 9


 430:IMUDriver.c   ****  *  \param reg_data : It is a value hold in the array,
 431:IMUDriver.c   ****  *      will be used for write the value into the register
 432:IMUDriver.c   ****  *  \param cnt : The no of byte of data to be write
 433:IMUDriver.c   ****  */
 434:IMUDriver.c   **** 
 435:IMUDriver.c   **** 
 436:IMUDriver.c   **** s8 BNO055_I2C_bus_write(u8 dev_addr, u8 reg_addr, u8 *reg_data, u8 cnt)
 437:IMUDriver.c   **** {
 438:IMUDriver.c   ****     //Print("writing");
 439:IMUDriver.c   ****     IMU_I2C_I2CMasterClearStatus(); //clear the garbage
 440:IMUDriver.c   ****     u8 data_pack [cnt+1]; 
 441:IMUDriver.c   ****     data_pack[0] = reg_addr;
 442:IMUDriver.c   ****     for(int i = 1; i < cnt+1; i++){
 443:IMUDriver.c   ****         data_pack[i] = reg_data[i-1];   
 444:IMUDriver.c   ****     }
 445:IMUDriver.c   ****     int status = IMU_I2C_I2CMasterWriteBuf(dev_addr, data_pack, cnt+1, IMU_I2C_I2C_MODE_COMPLETE_XF
 446:IMUDriver.c   ****     while ((IMU_I2C_I2CMasterStatus() & IMU_I2C_I2C_MSTAT_WR_CMPLT) == 0u) //should wait for write 
 447:IMUDriver.c   ****     {
 448:IMUDriver.c   ****         //Print("\r\nWRITE TO: \n\r");
 449:IMUDriver.c   ****         //PrintChar(dev_addr);
 450:IMUDriver.c   ****     }
 451:IMUDriver.c   ****     
 452:IMUDriver.c   **** 	return status;  
 453:IMUDriver.c   **** }
 454:IMUDriver.c   **** 
 455:IMUDriver.c   **** /*  \Brief: The API is used as I2C bus read
 456:IMUDriver.c   ****  *  \Return : Status of the I2C read
 457:IMUDriver.c   ****  *  \param dev_addr : The device address of the sensor
 458:IMUDriver.c   ****  *  \param reg_addr : Address of the first register,
 459:IMUDriver.c   ****  *  will data is going to be read
 460:IMUDriver.c   ****  *  \param reg_data : This data read from the sensor,
 461:IMUDriver.c   ****  *   which is hold in an array
 462:IMUDriver.c   ****  *  \param cnt : The no of byte of data to be read
 463:IMUDriver.c   ****  */
 464:IMUDriver.c   **** s8 BNO055_I2C_bus_read(u8 dev_addr, u8 reg_addr, u8 *reg_data, u8 cnt)
 465:IMUDriver.c   **** {
 466:IMUDriver.c   ****     IMU_I2C_I2CMasterClearStatus(); //clear the garbage
 467:IMUDriver.c   ****     
 468:IMUDriver.c   ****     /*u8 data_pack [cnt+1]; 
 469:IMUDriver.c   ****     data_pack[0] = reg_addr;
 470:IMUDriver.c   ****     for(int i = 1; i < cnt+1; i++){
 471:IMUDriver.c   ****         data_pack[i] = reg_data[i-1];   
 472:IMUDriver.c   ****     }
 473:IMUDriver.c   ****     int status = IMU_I2C_I2CMasterReadBuf(dev_addr, data_pack, cnt+1, IMU_I2C_I2C_MODE_COMPLETE_XFE
 474:IMUDriver.c   ****     while ((IMU_I2C_I2CMasterStatus() & IMU_I2C_I2C_MSTAT_RD_CMPLT) == 0u) //should wait for read b
 475:IMUDriver.c   ****     {
 476:IMUDriver.c   ****         //Print("\r\nREAD FROM: \n\r");
 477:IMUDriver.c   ****         //PrintChar(dev_addr);
 478:IMUDriver.c   ****     }
 479:IMUDriver.c   ****     
 480:IMUDriver.c   ****     return status;
 481:IMUDriver.c   ****     */
 482:IMUDriver.c   ****     //Print("reading");
 483:IMUDriver.c   ****     int ms_timeout = 20;
 484:IMUDriver.c   ****     s32 BNO055_iERROR = 0; // this is the "status" we usually use in our R/W functions
 485:IMUDriver.c   **** 	u8 idx;
 486:IMUDriver.c   **** 	BNO055_iERROR = IMU_I2C_I2CMasterSendStart(dev_addr, IMU_I2C_I2C_WRITE_XFER_MODE, ms_timeout);
ARM GAS  C:\Users\TT\AppData\Local\Temp\cclueNJD.s 			page 10


 487:IMUDriver.c   **** 	// Check for BNO055_iERROR before proceeding
 488:IMUDriver.c   **** 	BNO055_iERROR = IMU_I2C_I2CMasterWriteByte(reg_addr, ms_timeout);
 489:IMUDriver.c   **** 	// Check for BNO055_iERROR before proceeding
 490:IMUDriver.c   **** 	BNO055_iERROR = IMU_I2C_I2CMasterSendStop(10);
 491:IMUDriver.c   **** 	
 492:IMUDriver.c   **** 	BNO055_iERROR = IMU_I2C_I2CMasterSendStart(dev_addr, IMU_I2C_I2C_READ_XFER_MODE, ms_timeout);
 493:IMUDriver.c   ****     //PrintInt(BNO055_iERROR);
 494:IMUDriver.c   **** 	for (idx = 0; (idx < cnt) && (BNO055_iERROR == 0); idx++)
 495:IMUDriver.c   **** 	{
 496:IMUDriver.c   ****         if (idx < cnt-1)
 497:IMUDriver.c   ****         {
 498:IMUDriver.c   **** 		    IMU_I2C_I2CMasterReadByte(IMU_I2C_I2C_ACK_DATA, &reg_data[idx], ms_timeout);
 499:IMUDriver.c   ****         }
 500:IMUDriver.c   ****         else
 501:IMUDriver.c   ****         {
 502:IMUDriver.c   ****             IMU_I2C_I2CMasterReadByte(IMU_I2C_I2C_NAK_DATA, &reg_data[idx], ms_timeout);
 503:IMUDriver.c   ****         }
 504:IMUDriver.c   **** 	}
 505:IMUDriver.c   **** 	// Check for BNO055_iERROR before proceeding
 506:IMUDriver.c   **** 	BNO055_iERROR = IMU_I2C_I2CMasterSendStop(ms_timeout);
 507:IMUDriver.c   **** 
 508:IMUDriver.c   **** 	return (s8)BNO055_iERROR;
 509:IMUDriver.c   ****     
 510:IMUDriver.c   **** 	
 511:IMUDriver.c   **** }
 512:IMUDriver.c   **** 
 513:IMUDriver.c   **** /*  Brief : The delay routine
 514:IMUDriver.c   ****  *  \param : delay in ms
 515:IMUDriver.c   ****  */
 516:IMUDriver.c   **** void BNO055_delay_msek(u32 msek)
 517:IMUDriver.c   **** {
  28              		.loc 1 517 0
  29              		.cfi_startproc
  30              		@ args = 0, pretend = 0, frame = 0
  31              		@ frame_needed = 0, uses_anonymous_args = 0
  32              	.LVL0:
  33 0000 10B5     		push	{r4, lr}
  34              		.cfi_def_cfa_offset 8
  35              		.cfi_offset 4, -8
  36              		.cfi_offset 14, -4
 518:IMUDriver.c   ****     CyDelay(msek);
  37              		.loc 1 518 0
  38 0002 FFF7FEFF 		bl	CyDelay
  39              	.LVL1:
 519:IMUDriver.c   **** }
  40              		.loc 1 519 0
  41              		@ sp needed
  42 0006 10BD     		pop	{r4, pc}
  43              		.cfi_endproc
  44              	.LFE39:
  45              		.size	BNO055_delay_msek, .-BNO055_delay_msek
  46              		.section	.text.BNO055_I2C_bus_write,"ax",%progbits
  47              		.align	2
  48              		.global	BNO055_I2C_bus_write
  49              		.code	16
  50              		.thumb_func
  51              		.type	BNO055_I2C_bus_write, %function
ARM GAS  C:\Users\TT\AppData\Local\Temp\cclueNJD.s 			page 11


  52              	BNO055_I2C_bus_write:
  53              	.LFB37:
 437:IMUDriver.c   ****     //Print("writing");
  54              		.loc 1 437 0
  55              		.cfi_startproc
  56              		@ args = 0, pretend = 0, frame = 8
  57              		@ frame_needed = 1, uses_anonymous_args = 0
  58              	.LVL2:
  59 0000 F0B5     		push	{r4, r5, r6, r7, lr}
  60              		.cfi_def_cfa_offset 20
  61              		.cfi_offset 4, -20
  62              		.cfi_offset 5, -16
  63              		.cfi_offset 6, -12
  64              		.cfi_offset 7, -8
  65              		.cfi_offset 14, -4
  66 0002 83B0     		sub	sp, sp, #12
  67              		.cfi_def_cfa_offset 32
  68 0004 00AF     		add	r7, sp, #0
  69              		.cfi_def_cfa_register 7
  70 0006 7860     		str	r0, [r7, #4]
  71 0008 0C00     		movs	r4, r1
  72 000a 1500     		movs	r5, r2
  73 000c 1E00     		movs	r6, r3
 439:IMUDriver.c   ****     u8 data_pack [cnt+1]; 
  74              		.loc 1 439 0
  75 000e FFF7FEFF 		bl	IMU_I2C_I2CMasterClearStatus
  76              	.LVL3:
 440:IMUDriver.c   ****     data_pack[0] = reg_addr;
  77              		.loc 1 440 0
  78 0012 721C     		adds	r2, r6, #1
  79              	.LVL4:
  80 0014 0836     		adds	r6, r6, #8
  81              	.LVL5:
  82 0016 F608     		lsrs	r6, r6, #3
  83              	.LVL6:
  84 0018 F600     		lsls	r6, r6, #3
  85 001a 6B46     		mov	r3, sp
  86 001c 9B1B     		subs	r3, r3, r6
  87 001e 9D46     		mov	sp, r3
  88 0020 6946     		mov	r1, sp
  89              	.LVL7:
 441:IMUDriver.c   ****     for(int i = 1; i < cnt+1; i++){
  90              		.loc 1 441 0
  91 0022 0C70     		strb	r4, [r1]
  92              	.LVL8:
  93              	.LBB2:
 442:IMUDriver.c   ****         data_pack[i] = reg_data[i-1];   
  94              		.loc 1 442 0
  95 0024 0123     		movs	r3, #1
  96 0026 04E0     		b	.L3
  97              	.LVL9:
  98              	.L4:
 443:IMUDriver.c   ****     }
  99              		.loc 1 443 0 discriminator 3
 100 0028 E818     		adds	r0, r5, r3
 101 002a 0138     		subs	r0, r0, #1
 102 002c 0078     		ldrb	r0, [r0]
ARM GAS  C:\Users\TT\AppData\Local\Temp\cclueNJD.s 			page 12


 103 002e C854     		strb	r0, [r1, r3]
 442:IMUDriver.c   ****         data_pack[i] = reg_data[i-1];   
 104              		.loc 1 442 0 discriminator 3
 105 0030 0133     		adds	r3, r3, #1
 106              	.LVL10:
 107              	.L3:
 442:IMUDriver.c   ****         data_pack[i] = reg_data[i-1];   
 108              		.loc 1 442 0 is_stmt 0 discriminator 1
 109 0032 9342     		cmp	r3, r2
 110 0034 F8DB     		blt	.L4
 111              	.LBE2:
 445:IMUDriver.c   ****     while ((IMU_I2C_I2CMasterStatus() & IMU_I2C_I2C_MSTAT_WR_CMPLT) == 0u) //should wait for write 
 112              		.loc 1 445 0 is_stmt 1
 113 0036 0023     		movs	r3, #0
 114              	.LVL11:
 115 0038 7868     		ldr	r0, [r7, #4]
 116 003a FFF7FEFF 		bl	IMU_I2C_I2CMasterWriteBuf
 117              	.LVL12:
 118 003e 0400     		movs	r4, r0
 119              	.LVL13:
 120              	.L5:
 446:IMUDriver.c   ****     {
 121              		.loc 1 446 0 discriminator 1
 122 0040 FFF7FEFF 		bl	IMU_I2C_I2CMasterStatus
 123              	.LVL14:
 124 0044 8307     		lsls	r3, r0, #30
 125 0046 FBD5     		bpl	.L5
 452:IMUDriver.c   **** }
 126              		.loc 1 452 0
 127 0048 60B2     		sxtb	r0, r4
 453:IMUDriver.c   **** 
 128              		.loc 1 453 0
 129 004a BD46     		mov	sp, r7
 130              	.LVL15:
 131 004c 03B0     		add	sp, sp, #12
 132              		@ sp needed
 133              	.LVL16:
 134              	.LVL17:
 135              	.LVL18:
 136 004e F0BD     		pop	{r4, r5, r6, r7, pc}
 137              		.cfi_endproc
 138              	.LFE37:
 139              		.size	BNO055_I2C_bus_write, .-BNO055_I2C_bus_write
 140              		.section	.text.BNO055_I2C_bus_read,"ax",%progbits
 141              		.align	2
 142              		.global	BNO055_I2C_bus_read
 143              		.code	16
 144              		.thumb_func
 145              		.type	BNO055_I2C_bus_read, %function
 146              	BNO055_I2C_bus_read:
 147              	.LFB38:
 465:IMUDriver.c   ****     IMU_I2C_I2CMasterClearStatus(); //clear the garbage
 148              		.loc 1 465 0
 149              		.cfi_startproc
 150              		@ args = 0, pretend = 0, frame = 0
 151              		@ frame_needed = 0, uses_anonymous_args = 0
 152              	.LVL19:
ARM GAS  C:\Users\TT\AppData\Local\Temp\cclueNJD.s 			page 13


 153 0000 F8B5     		push	{r3, r4, r5, r6, r7, lr}
 154              		.cfi_def_cfa_offset 24
 155              		.cfi_offset 3, -24
 156              		.cfi_offset 4, -20
 157              		.cfi_offset 5, -16
 158              		.cfi_offset 6, -12
 159              		.cfi_offset 7, -8
 160              		.cfi_offset 14, -4
 161 0002 0400     		movs	r4, r0
 162 0004 0E00     		movs	r6, r1
 163 0006 1700     		movs	r7, r2
 164 0008 1D00     		movs	r5, r3
 466:IMUDriver.c   ****     
 165              		.loc 1 466 0
 166 000a FFF7FEFF 		bl	IMU_I2C_I2CMasterClearStatus
 167              	.LVL20:
 486:IMUDriver.c   **** 	// Check for BNO055_iERROR before proceeding
 168              		.loc 1 486 0
 169 000e 1422     		movs	r2, #20
 170 0010 0021     		movs	r1, #0
 171 0012 2000     		movs	r0, r4
 172 0014 FFF7FEFF 		bl	IMU_I2C_I2CMasterSendStart
 173              	.LVL21:
 488:IMUDriver.c   **** 	// Check for BNO055_iERROR before proceeding
 174              		.loc 1 488 0
 175 0018 1421     		movs	r1, #20
 176 001a 3000     		movs	r0, r6
 177 001c FFF7FEFF 		bl	IMU_I2C_I2CMasterWriteByte
 178              	.LVL22:
 490:IMUDriver.c   **** 	
 179              		.loc 1 490 0
 180 0020 0A20     		movs	r0, #10
 181 0022 FFF7FEFF 		bl	IMU_I2C_I2CMasterSendStop
 182              	.LVL23:
 492:IMUDriver.c   ****     //PrintInt(BNO055_iERROR);
 183              		.loc 1 492 0
 184 0026 1422     		movs	r2, #20
 185 0028 0121     		movs	r1, #1
 186 002a 2000     		movs	r0, r4
 187 002c FFF7FEFF 		bl	IMU_I2C_I2CMasterSendStart
 188              	.LVL24:
 189 0030 0600     		movs	r6, r0
 190              	.LVL25:
 494:IMUDriver.c   **** 	{
 191              		.loc 1 494 0
 192 0032 0024     		movs	r4, #0
 193 0034 0FE0     		b	.L7
 194              	.LVL26:
 195              	.L11:
 496:IMUDriver.c   ****         {
 196              		.loc 1 496 0
 197 0036 6B1E     		subs	r3, r5, #1
 198 0038 9C42     		cmp	r4, r3
 199 003a 05DA     		bge	.L8
 498:IMUDriver.c   ****         }
 200              		.loc 1 498 0
 201 003c 3919     		adds	r1, r7, r4
ARM GAS  C:\Users\TT\AppData\Local\Temp\cclueNJD.s 			page 14


 202 003e 1422     		movs	r2, #20
 203 0040 0020     		movs	r0, #0
 204 0042 FFF7FEFF 		bl	IMU_I2C_I2CMasterReadByte
 205              	.LVL27:
 206 0046 04E0     		b	.L9
 207              	.L8:
 502:IMUDriver.c   ****         }
 208              		.loc 1 502 0
 209 0048 3919     		adds	r1, r7, r4
 210 004a 1422     		movs	r2, #20
 211 004c 0120     		movs	r0, #1
 212 004e FFF7FEFF 		bl	IMU_I2C_I2CMasterReadByte
 213              	.LVL28:
 214              	.L9:
 494:IMUDriver.c   **** 	{
 215              		.loc 1 494 0 discriminator 2
 216 0052 0134     		adds	r4, r4, #1
 217              	.LVL29:
 218 0054 E4B2     		uxtb	r4, r4
 219              	.LVL30:
 220              	.L7:
 494:IMUDriver.c   **** 	{
 221              		.loc 1 494 0 is_stmt 0 discriminator 1
 222 0056 AC42     		cmp	r4, r5
 223 0058 01D2     		bcs	.L10
 494:IMUDriver.c   **** 	{
 224              		.loc 1 494 0 discriminator 3
 225 005a 002E     		cmp	r6, #0
 226 005c EBD0     		beq	.L11
 227              	.L10:
 506:IMUDriver.c   **** 
 228              		.loc 1 506 0 is_stmt 1
 229 005e 1420     		movs	r0, #20
 230 0060 FFF7FEFF 		bl	IMU_I2C_I2CMasterSendStop
 231              	.LVL31:
 508:IMUDriver.c   ****     
 232              		.loc 1 508 0
 233 0064 40B2     		sxtb	r0, r0
 234              	.LVL32:
 511:IMUDriver.c   **** 
 235              		.loc 1 511 0
 236              		@ sp needed
 237              	.LVL33:
 238              	.LVL34:
 239 0066 F8BD     		pop	{r3, r4, r5, r6, r7, pc}
 240              		.cfi_endproc
 241              	.LFE38:
 242              		.size	BNO055_I2C_bus_read, .-BNO055_I2C_bus_read
 243              		.section	.text.bno055_data_readout_template,"ax",%progbits
 244              		.align	2
 245              		.global	bno055_data_readout_template
 246              		.code	16
 247              		.thumb_func
 248              		.type	bno055_data_readout_template, %function
 249              	bno055_data_readout_template:
 250              	.LFB35:
  43:IMUDriver.c   ****     
ARM GAS  C:\Users\TT\AppData\Local\Temp\cclueNJD.s 			page 15


 251              		.loc 1 43 0
 252              		.cfi_startproc
 253              		@ args = 0, pretend = 0, frame = 0
 254              		@ frame_needed = 0, uses_anonymous_args = 0
 255 0000 F8B5     		push	{r3, r4, r5, r6, r7, lr}
 256              		.cfi_def_cfa_offset 24
 257              		.cfi_offset 3, -24
 258              		.cfi_offset 4, -20
 259              		.cfi_offset 5, -16
 260              		.cfi_offset 6, -12
 261              		.cfi_offset 7, -8
 262              		.cfi_offset 14, -4
 263 0002 5F46     		mov	r7, fp
 264 0004 5646     		mov	r6, r10
 265 0006 4D46     		mov	r5, r9
 266 0008 4446     		mov	r4, r8
 267 000a F0B4     		push	{r4, r5, r6, r7}
 268              		.cfi_def_cfa_offset 40
 269              		.cfi_offset 8, -40
 270              		.cfi_offset 9, -36
 271              		.cfi_offset 10, -32
 272              		.cfi_offset 11, -28
  47:IMUDriver.c   **** 
 273              		.loc 1 47 0
 274 000c F14C     		ldr	r4, .L13
 275 000e 0123     		movs	r3, #1
 276 0010 5B42     		rsbs	r3, r3, #0
 277 0012 2360     		str	r3, [r4]
  50:IMUDriver.c   **** 
 278              		.loc 1 50 0
 279 0014 0023     		movs	r3, #0
 280 0016 F04A     		ldr	r2, .L13+4
 281 0018 1370     		strb	r3, [r2]
  54:IMUDriver.c   **** 
 282              		.loc 1 54 0
 283 001a F048     		ldr	r0, .L13+8
 284 001c 0380     		strh	r3, [r0]
  57:IMUDriver.c   **** 
 285              		.loc 1 57 0
 286 001e F04A     		ldr	r2, .L13+12
 287 0020 1380     		strh	r3, [r2]
  60:IMUDriver.c   **** 
 288              		.loc 1 60 0
 289 0022 F04A     		ldr	r2, .L13+16
 290 0024 1380     		strh	r3, [r2]
  67:IMUDriver.c   **** 
 291              		.loc 1 67 0
 292 0026 F04A     		ldr	r2, .L13+20
 293 0028 1380     		strh	r3, [r2]
  70:IMUDriver.c   **** 
 294              		.loc 1 70 0
 295 002a F04A     		ldr	r2, .L13+24
 296 002c 1380     		strh	r3, [r2]
  73:IMUDriver.c   **** 
 297              		.loc 1 73 0
 298 002e F04A     		ldr	r2, .L13+28
 299 0030 1380     		strh	r3, [r2]
ARM GAS  C:\Users\TT\AppData\Local\Temp\cclueNJD.s 			page 16


  80:IMUDriver.c   **** 
 300              		.loc 1 80 0
 301 0032 F04A     		ldr	r2, .L13+32
 302 0034 1380     		strh	r3, [r2]
  83:IMUDriver.c   **** 
 303              		.loc 1 83 0
 304 0036 F04A     		ldr	r2, .L13+36
 305 0038 1380     		strh	r3, [r2]
  86:IMUDriver.c   **** 
 306              		.loc 1 86 0
 307 003a F04A     		ldr	r2, .L13+40
 308 003c 1380     		strh	r3, [r2]
  93:IMUDriver.c   **** 
 309              		.loc 1 93 0
 310 003e F04A     		ldr	r2, .L13+44
 311 0040 1380     		strh	r3, [r2]
  96:IMUDriver.c   **** 
 312              		.loc 1 96 0
 313 0042 F04A     		ldr	r2, .L13+48
 314 0044 1380     		strh	r3, [r2]
  99:IMUDriver.c   **** 
 315              		.loc 1 99 0
 316 0046 F04A     		ldr	r2, .L13+52
 317 0048 1380     		strh	r3, [r2]
 106:IMUDriver.c   **** 
 318              		.loc 1 106 0
 319 004a F04A     		ldr	r2, .L13+56
 320 004c 1380     		strh	r3, [r2]
 109:IMUDriver.c   **** 
 321              		.loc 1 109 0
 322 004e F04A     		ldr	r2, .L13+60
 323 0050 1380     		strh	r3, [r2]
 112:IMUDriver.c   **** 
 324              		.loc 1 112 0
 325 0052 F04A     		ldr	r2, .L13+64
 326 0054 1380     		strh	r3, [r2]
 115:IMUDriver.c   **** 
 327              		.loc 1 115 0
 328 0056 F04A     		ldr	r2, .L13+68
 329 0058 1380     		strh	r3, [r2]
 122:IMUDriver.c   **** 
 330              		.loc 1 122 0
 331 005a F04A     		ldr	r2, .L13+72
 332 005c 1380     		strh	r3, [r2]
 125:IMUDriver.c   **** 
 333              		.loc 1 125 0
 334 005e F04A     		ldr	r2, .L13+76
 335 0060 1380     		strh	r3, [r2]
 128:IMUDriver.c   **** 
 336              		.loc 1 128 0
 337 0062 F04A     		ldr	r2, .L13+80
 338 0064 1380     		strh	r3, [r2]
 135:IMUDriver.c   **** 
 339              		.loc 1 135 0
 340 0066 F04A     		ldr	r2, .L13+84
 341 0068 1380     		strh	r3, [r2]
 138:IMUDriver.c   **** 
ARM GAS  C:\Users\TT\AppData\Local\Temp\cclueNJD.s 			page 17


 342              		.loc 1 138 0
 343 006a F04A     		ldr	r2, .L13+88
 344 006c 1380     		strh	r3, [r2]
 141:IMUDriver.c   **** 
 345              		.loc 1 141 0
 346 006e F04A     		ldr	r2, .L13+92
 347 0070 1380     		strh	r3, [r2]
 151:IMUDriver.c   **** 
 348              		.loc 1 151 0
 349 0072 0022     		movs	r2, #0
 350 0074 0023     		movs	r3, #0
 351 0076 EF49     		ldr	r1, .L13+96
 352 0078 0A60     		str	r2, [r1]
 353 007a 4B60     		str	r3, [r1, #4]
 154:IMUDriver.c   **** 
 354              		.loc 1 154 0
 355 007c EE49     		ldr	r1, .L13+100
 356 007e 0A60     		str	r2, [r1]
 357 0080 4B60     		str	r3, [r1, #4]
 161:IMUDriver.c   **** 
 358              		.loc 1 161 0
 359 0082 EE49     		ldr	r1, .L13+104
 360 0084 0A60     		str	r2, [r1]
 361 0086 4B60     		str	r3, [r1, #4]
 164:IMUDriver.c   **** 
 362              		.loc 1 164 0
 363 0088 ED49     		ldr	r1, .L13+108
 364 008a 0A60     		str	r2, [r1]
 365 008c 4B60     		str	r3, [r1, #4]
 167:IMUDriver.c   **** 
 366              		.loc 1 167 0
 367 008e ED49     		ldr	r1, .L13+112
 368 0090 0A60     		str	r2, [r1]
 369 0092 4B60     		str	r3, [r1, #4]
 174:IMUDriver.c   **** 
 370              		.loc 1 174 0
 371 0094 EC49     		ldr	r1, .L13+116
 372 0096 0A60     		str	r2, [r1]
 373 0098 4B60     		str	r3, [r1, #4]
 177:IMUDriver.c   **** 
 374              		.loc 1 177 0
 375 009a EC49     		ldr	r1, .L13+120
 376 009c 0A60     		str	r2, [r1]
 377 009e 4B60     		str	r3, [r1, #4]
 180:IMUDriver.c   **** 
 378              		.loc 1 180 0
 379 00a0 EB49     		ldr	r1, .L13+124
 380 00a2 0A60     		str	r2, [r1]
 381 00a4 4B60     		str	r3, [r1, #4]
 189:IMUDriver.c   **** 
 382              		.loc 1 189 0
 383 00a6 EB49     		ldr	r1, .L13+128
 384 00a8 0A60     		str	r2, [r1]
 385 00aa 4B60     		str	r3, [r1, #4]
 193:IMUDriver.c   **** 
 386              		.loc 1 193 0
 387 00ac EA49     		ldr	r1, .L13+132
ARM GAS  C:\Users\TT\AppData\Local\Temp\cclueNJD.s 			page 18


 388 00ae 0A60     		str	r2, [r1]
 389 00b0 4B60     		str	r3, [r1, #4]
 197:IMUDriver.c   **** 
 390              		.loc 1 197 0
 391 00b2 EA49     		ldr	r1, .L13+136
 392 00b4 8B46     		mov	fp, r1
 393 00b6 0A60     		str	r2, [r1]
 394 00b8 4B60     		str	r3, [r1, #4]
 205:IMUDriver.c   **** 
 395              		.loc 1 205 0
 396 00ba E949     		ldr	r1, .L13+140
 397 00bc 8A46     		mov	r10, r1
 398 00be 0A60     		str	r2, [r1]
 399 00c0 4B60     		str	r3, [r1, #4]
 208:IMUDriver.c   **** 
 400              		.loc 1 208 0
 401 00c2 E849     		ldr	r1, .L13+144
 402 00c4 8946     		mov	r9, r1
 403 00c6 0A60     		str	r2, [r1]
 404 00c8 4B60     		str	r3, [r1, #4]
 211:IMUDriver.c   **** 
 405              		.loc 1 211 0
 406 00ca E749     		ldr	r1, .L13+148
 407 00cc 8846     		mov	r8, r1
 408 00ce 0A60     		str	r2, [r1]
 409 00d0 4B60     		str	r3, [r1, #4]
 218:IMUDriver.c   **** 
 410              		.loc 1 218 0
 411 00d2 E64F     		ldr	r7, .L13+152
 412 00d4 3A60     		str	r2, [r7]
 413 00d6 7B60     		str	r3, [r7, #4]
 221:IMUDriver.c   **** 
 414              		.loc 1 221 0
 415 00d8 E54E     		ldr	r6, .L13+156
 416 00da 3260     		str	r2, [r6]
 417 00dc 7360     		str	r3, [r6, #4]
 224:IMUDriver.c   **** 
 418              		.loc 1 224 0
 419 00de E54D     		ldr	r5, .L13+160
 420 00e0 2A60     		str	r2, [r5]
 421 00e2 6B60     		str	r3, [r5, #4]
 264:IMUDriver.c   ****     comres += bno055_read_accel_y(&accel_datay);
 422              		.loc 1 264 0
 423 00e4 FFF7FEFF 		bl	bno055_read_accel_x
 424              	.LVL35:
 425 00e8 2368     		ldr	r3, [r4]
 426 00ea 9C46     		mov	ip, r3
 427 00ec 6044     		add	r0, r0, ip
 428 00ee 2060     		str	r0, [r4]
 265:IMUDriver.c   ****     comres += bno055_read_accel_z(&accel_dataz);
 429              		.loc 1 265 0
 430 00f0 BB48     		ldr	r0, .L13+12
 431 00f2 FFF7FEFF 		bl	bno055_read_accel_y
 432              	.LVL36:
 433 00f6 2368     		ldr	r3, [r4]
 434 00f8 9C46     		mov	ip, r3
 435 00fa 6044     		add	r0, r0, ip
ARM GAS  C:\Users\TT\AppData\Local\Temp\cclueNJD.s 			page 19


 436 00fc 2060     		str	r0, [r4]
 266:IMUDriver.c   ****     comres += bno055_read_accel_xyz(&accel_xyz);
 437              		.loc 1 266 0
 438 00fe B948     		ldr	r0, .L13+16
 439 0100 FFF7FEFF 		bl	bno055_read_accel_z
 440              	.LVL37:
 441 0104 2368     		ldr	r3, [r4]
 442 0106 9C46     		mov	ip, r3
 443 0108 6044     		add	r0, r0, ip
 444 010a 2060     		str	r0, [r4]
 267:IMUDriver.c   **** 
 445              		.loc 1 267 0
 446 010c DA48     		ldr	r0, .L13+164
 447 010e FFF7FEFF 		bl	bno055_read_accel_xyz
 448              	.LVL38:
 449 0112 2368     		ldr	r3, [r4]
 450 0114 9C46     		mov	ip, r3
 451 0116 6044     		add	r0, r0, ip
 452 0118 2060     		str	r0, [r4]
 272:IMUDriver.c   ****     comres += bno055_read_mag_y(&mag_datay);
 453              		.loc 1 272 0
 454 011a B348     		ldr	r0, .L13+20
 455 011c FFF7FEFF 		bl	bno055_read_mag_x
 456              	.LVL39:
 457 0120 2368     		ldr	r3, [r4]
 458 0122 9C46     		mov	ip, r3
 459 0124 6044     		add	r0, r0, ip
 460 0126 2060     		str	r0, [r4]
 273:IMUDriver.c   ****     comres += bno055_read_mag_z(&mag_dataz);
 461              		.loc 1 273 0
 462 0128 B048     		ldr	r0, .L13+24
 463 012a FFF7FEFF 		bl	bno055_read_mag_y
 464              	.LVL40:
 465 012e 2368     		ldr	r3, [r4]
 466 0130 9C46     		mov	ip, r3
 467 0132 6044     		add	r0, r0, ip
 468 0134 2060     		str	r0, [r4]
 274:IMUDriver.c   ****     comres += bno055_read_mag_xyz(&mag_xyz);
 469              		.loc 1 274 0
 470 0136 AE48     		ldr	r0, .L13+28
 471 0138 FFF7FEFF 		bl	bno055_read_mag_z
 472              	.LVL41:
 473 013c 2368     		ldr	r3, [r4]
 474 013e 9C46     		mov	ip, r3
 475 0140 6044     		add	r0, r0, ip
 476 0142 2060     		str	r0, [r4]
 275:IMUDriver.c   **** 
 477              		.loc 1 275 0
 478 0144 CD48     		ldr	r0, .L13+168
 479 0146 FFF7FEFF 		bl	bno055_read_mag_xyz
 480              	.LVL42:
 481 014a 2368     		ldr	r3, [r4]
 482 014c 9C46     		mov	ip, r3
 483 014e 6044     		add	r0, r0, ip
 484 0150 2060     		str	r0, [r4]
 280:IMUDriver.c   ****     comres += bno055_read_gyro_y(&gyro_datay);
 485              		.loc 1 280 0
ARM GAS  C:\Users\TT\AppData\Local\Temp\cclueNJD.s 			page 20


 486 0152 A848     		ldr	r0, .L13+32
 487 0154 FFF7FEFF 		bl	bno055_read_gyro_x
 488              	.LVL43:
 489 0158 2368     		ldr	r3, [r4]
 490 015a 9C46     		mov	ip, r3
 491 015c 6044     		add	r0, r0, ip
 492 015e 2060     		str	r0, [r4]
 281:IMUDriver.c   ****     comres += bno055_read_gyro_z(&gyro_dataz);
 493              		.loc 1 281 0
 494 0160 A548     		ldr	r0, .L13+36
 495 0162 FFF7FEFF 		bl	bno055_read_gyro_y
 496              	.LVL44:
 497 0166 2368     		ldr	r3, [r4]
 498 0168 9C46     		mov	ip, r3
 499 016a 6044     		add	r0, r0, ip
 500 016c 2060     		str	r0, [r4]
 282:IMUDriver.c   ****     comres += bno055_read_gyro_xyz(&gyro_xyz);
 501              		.loc 1 282 0
 502 016e A348     		ldr	r0, .L13+40
 503 0170 FFF7FEFF 		bl	bno055_read_gyro_z
 504              	.LVL45:
 505 0174 2368     		ldr	r3, [r4]
 506 0176 9C46     		mov	ip, r3
 507 0178 6044     		add	r0, r0, ip
 508 017a 2060     		str	r0, [r4]
 283:IMUDriver.c   **** 
 509              		.loc 1 283 0
 510 017c C048     		ldr	r0, .L13+172
 511 017e FFF7FEFF 		bl	bno055_read_gyro_xyz
 512              	.LVL46:
 513 0182 2368     		ldr	r3, [r4]
 514 0184 9C46     		mov	ip, r3
 515 0186 6044     		add	r0, r0, ip
 516 0188 2060     		str	r0, [r4]
 306:IMUDriver.c   ****     comres += bno055_read_euler_r(&euler_data_r);
 517              		.loc 1 306 0
 518 018a 9D48     		ldr	r0, .L13+44
 519 018c FFF7FEFF 		bl	bno055_read_euler_h
 520              	.LVL47:
 521 0190 2368     		ldr	r3, [r4]
 522 0192 9C46     		mov	ip, r3
 523 0194 6044     		add	r0, r0, ip
 524 0196 2060     		str	r0, [r4]
 307:IMUDriver.c   ****     comres += bno055_read_euler_p(&euler_data_p);
 525              		.loc 1 307 0
 526 0198 9A48     		ldr	r0, .L13+48
 527 019a FFF7FEFF 		bl	bno055_read_euler_r
 528              	.LVL48:
 529 019e 2368     		ldr	r3, [r4]
 530 01a0 9C46     		mov	ip, r3
 531 01a2 6044     		add	r0, r0, ip
 532 01a4 2060     		str	r0, [r4]
 308:IMUDriver.c   ****     comres += bno055_read_euler_hrp(&euler_hrp);
 533              		.loc 1 308 0
 534 01a6 9848     		ldr	r0, .L13+52
 535 01a8 FFF7FEFF 		bl	bno055_read_euler_p
 536              	.LVL49:
ARM GAS  C:\Users\TT\AppData\Local\Temp\cclueNJD.s 			page 21


 537 01ac 2368     		ldr	r3, [r4]
 538 01ae 9C46     		mov	ip, r3
 539 01b0 6044     		add	r0, r0, ip
 540 01b2 2060     		str	r0, [r4]
 309:IMUDriver.c   **** 
 541              		.loc 1 309 0
 542 01b4 B348     		ldr	r0, .L13+176
 543 01b6 FFF7FEFF 		bl	bno055_read_euler_hrp
 544              	.LVL50:
 545 01ba 2368     		ldr	r3, [r4]
 546 01bc 9C46     		mov	ip, r3
 547 01be 6044     		add	r0, r0, ip
 548 01c0 2060     		str	r0, [r4]
 314:IMUDriver.c   ****     comres += bno055_read_quaternion_x(&quaternion_data_x);
 549              		.loc 1 314 0
 550 01c2 9248     		ldr	r0, .L13+56
 551 01c4 FFF7FEFF 		bl	bno055_read_quaternion_w
 552              	.LVL51:
 553 01c8 2368     		ldr	r3, [r4]
 554 01ca 9C46     		mov	ip, r3
 555 01cc 6044     		add	r0, r0, ip
 556 01ce 2060     		str	r0, [r4]
 315:IMUDriver.c   ****     comres += bno055_read_quaternion_y(&quaternion_data_y);
 557              		.loc 1 315 0
 558 01d0 8F48     		ldr	r0, .L13+60
 559 01d2 FFF7FEFF 		bl	bno055_read_quaternion_x
 560              	.LVL52:
 561 01d6 2368     		ldr	r3, [r4]
 562 01d8 9C46     		mov	ip, r3
 563 01da 6044     		add	r0, r0, ip
 564 01dc 2060     		str	r0, [r4]
 316:IMUDriver.c   ****     comres += bno055_read_quaternion_z(&quaternion_data_z);
 565              		.loc 1 316 0
 566 01de 8D48     		ldr	r0, .L13+64
 567 01e0 FFF7FEFF 		bl	bno055_read_quaternion_y
 568              	.LVL53:
 569 01e4 2368     		ldr	r3, [r4]
 570 01e6 9C46     		mov	ip, r3
 571 01e8 6044     		add	r0, r0, ip
 572 01ea 2060     		str	r0, [r4]
 317:IMUDriver.c   ****     comres += bno055_read_quaternion_wxyz(&quaternion_wxyz);
 573              		.loc 1 317 0
 574 01ec 8A48     		ldr	r0, .L13+68
 575 01ee FFF7FEFF 		bl	bno055_read_quaternion_z
 576              	.LVL54:
 577 01f2 2368     		ldr	r3, [r4]
 578 01f4 9C46     		mov	ip, r3
 579 01f6 6044     		add	r0, r0, ip
 580 01f8 2060     		str	r0, [r4]
 318:IMUDriver.c   **** 
 581              		.loc 1 318 0
 582 01fa A348     		ldr	r0, .L13+180
 583 01fc FFF7FEFF 		bl	bno055_read_quaternion_wxyz
 584              	.LVL55:
 585 0200 2368     		ldr	r3, [r4]
 586 0202 9C46     		mov	ip, r3
 587 0204 6044     		add	r0, r0, ip
ARM GAS  C:\Users\TT\AppData\Local\Temp\cclueNJD.s 			page 22


 588 0206 2060     		str	r0, [r4]
 323:IMUDriver.c   ****     comres += bno055_read_linear_accel_y(&linear_accel_data_y);
 589              		.loc 1 323 0
 590 0208 8448     		ldr	r0, .L13+72
 591 020a FFF7FEFF 		bl	bno055_read_linear_accel_x
 592              	.LVL56:
 593 020e 2368     		ldr	r3, [r4]
 594 0210 9C46     		mov	ip, r3
 595 0212 6044     		add	r0, r0, ip
 596 0214 2060     		str	r0, [r4]
 324:IMUDriver.c   ****     comres += bno055_read_linear_accel_z(&linear_accel_data_z);
 597              		.loc 1 324 0
 598 0216 8248     		ldr	r0, .L13+76
 599 0218 FFF7FEFF 		bl	bno055_read_linear_accel_y
 600              	.LVL57:
 601 021c 2368     		ldr	r3, [r4]
 602 021e 9C46     		mov	ip, r3
 603 0220 6044     		add	r0, r0, ip
 604 0222 2060     		str	r0, [r4]
 325:IMUDriver.c   ****     comres += bno055_read_linear_accel_xyz(&linear_acce_xyz);
 605              		.loc 1 325 0
 606 0224 7F48     		ldr	r0, .L13+80
 607 0226 FFF7FEFF 		bl	bno055_read_linear_accel_z
 608              	.LVL58:
 609 022a 2368     		ldr	r3, [r4]
 610 022c 9C46     		mov	ip, r3
 611 022e 6044     		add	r0, r0, ip
 612 0230 2060     		str	r0, [r4]
 326:IMUDriver.c   **** 
 613              		.loc 1 326 0
 614 0232 9648     		ldr	r0, .L13+184
 615 0234 FFF7FEFF 		bl	bno055_read_linear_accel_xyz
 616              	.LVL59:
 617 0238 2368     		ldr	r3, [r4]
 618 023a 9C46     		mov	ip, r3
 619 023c 6044     		add	r0, r0, ip
 620 023e 2060     		str	r0, [r4]
 331:IMUDriver.c   ****     comres += bno055_read_gravity_y(&gravity_data_y);
 621              		.loc 1 331 0
 622 0240 7948     		ldr	r0, .L13+84
 623 0242 FFF7FEFF 		bl	bno055_read_gravity_x
 624              	.LVL60:
 625 0246 2368     		ldr	r3, [r4]
 626 0248 9C46     		mov	ip, r3
 627 024a 6044     		add	r0, r0, ip
 628 024c 2060     		str	r0, [r4]
 332:IMUDriver.c   ****     comres += bno055_read_gravity_z(&gravity_data_z);
 629              		.loc 1 332 0
 630 024e 7748     		ldr	r0, .L13+88
 631 0250 FFF7FEFF 		bl	bno055_read_gravity_y
 632              	.LVL61:
 633 0254 2368     		ldr	r3, [r4]
 634 0256 9C46     		mov	ip, r3
 635 0258 6044     		add	r0, r0, ip
 636 025a 2060     		str	r0, [r4]
 333:IMUDriver.c   ****     comres += bno055_read_gravity_xyz(&gravity_xyz);
 637              		.loc 1 333 0
ARM GAS  C:\Users\TT\AppData\Local\Temp\cclueNJD.s 			page 23


 638 025c 7448     		ldr	r0, .L13+92
 639 025e FFF7FEFF 		bl	bno055_read_gravity_z
 640              	.LVL62:
 641 0262 2368     		ldr	r3, [r4]
 642 0264 9C46     		mov	ip, r3
 643 0266 6044     		add	r0, r0, ip
 644 0268 2060     		str	r0, [r4]
 334:IMUDriver.c   **** 
 645              		.loc 1 334 0
 646 026a 8948     		ldr	r0, .L13+188
 647 026c FFF7FEFF 		bl	bno055_read_gravity_xyz
 648              	.LVL63:
 649 0270 2368     		ldr	r3, [r4]
 650 0272 9C46     		mov	ip, r3
 651 0274 6044     		add	r0, r0, ip
 652 0276 2060     		str	r0, [r4]
 341:IMUDriver.c   ****     //comres += bno055_convert_double_accel_x_mg(&d_accel_datax);
 653              		.loc 1 341 0
 654 0278 8648     		ldr	r0, .L13+192
 655 027a FFF7FEFF 		bl	bno055_convert_double_accel_x_msq
 656              	.LVL64:
 657 027e 2368     		ldr	r3, [r4]
 658 0280 9C46     		mov	ip, r3
 659 0282 6044     		add	r0, r0, ip
 660 0284 2060     		str	r0, [r4]
 343:IMUDriver.c   ****     //comres += bno055_convert_double_accel_y_mg(&d_accel_datay);
 661              		.loc 1 343 0
 662 0286 6B48     		ldr	r0, .L13+96
 663 0288 FFF7FEFF 		bl	bno055_convert_double_accel_y_msq
 664              	.LVL65:
 665 028c 2368     		ldr	r3, [r4]
 666 028e 9C46     		mov	ip, r3
 667 0290 6044     		add	r0, r0, ip
 668 0292 2060     		str	r0, [r4]
 345:IMUDriver.c   ****     //comres += bno055_convert_double_accel_z_mg(&d_accel_dataz);
 669              		.loc 1 345 0
 670 0294 6848     		ldr	r0, .L13+100
 671 0296 FFF7FEFF 		bl	bno055_convert_double_accel_z_msq
 672              	.LVL66:
 673 029a 2368     		ldr	r3, [r4]
 674 029c 9C46     		mov	ip, r3
 675 029e 6044     		add	r0, r0, ip
 676 02a0 2060     		str	r0, [r4]
 347:IMUDriver.c   ****     //comres += bno055_convert_double_accel_xyz_mg(&d_accel_xyz);
 677              		.loc 1 347 0
 678 02a2 7D48     		ldr	r0, .L13+196
 679 02a4 FFF7FEFF 		bl	bno055_convert_double_accel_xyz_msq
 680              	.LVL67:
 681 02a8 2368     		ldr	r3, [r4]
 682 02aa 9C46     		mov	ip, r3
 683 02ac 6044     		add	r0, r0, ip
 684 02ae 2060     		str	r0, [r4]
 352:IMUDriver.c   ****     comres += bno055_convert_double_mag_y_uT(&d_mag_datay);
 685              		.loc 1 352 0
 686 02b0 6248     		ldr	r0, .L13+104
 687 02b2 FFF7FEFF 		bl	bno055_convert_double_mag_x_uT
 688              	.LVL68:
ARM GAS  C:\Users\TT\AppData\Local\Temp\cclueNJD.s 			page 24


 689 02b6 2368     		ldr	r3, [r4]
 690 02b8 9C46     		mov	ip, r3
 691 02ba 6044     		add	r0, r0, ip
 692 02bc 2060     		str	r0, [r4]
 353:IMUDriver.c   ****     comres += bno055_convert_double_mag_z_uT(&d_mag_dataz);
 693              		.loc 1 353 0
 694 02be 6048     		ldr	r0, .L13+108
 695 02c0 FFF7FEFF 		bl	bno055_convert_double_mag_y_uT
 696              	.LVL69:
 697 02c4 2368     		ldr	r3, [r4]
 698 02c6 9C46     		mov	ip, r3
 699 02c8 6044     		add	r0, r0, ip
 700 02ca 2060     		str	r0, [r4]
 354:IMUDriver.c   ****     comres += bno055_convert_double_mag_xyz_uT(&d_mag_xyz);
 701              		.loc 1 354 0
 702 02cc 5D48     		ldr	r0, .L13+112
 703 02ce FFF7FEFF 		bl	bno055_convert_double_mag_z_uT
 704              	.LVL70:
 705 02d2 2368     		ldr	r3, [r4]
 706 02d4 9C46     		mov	ip, r3
 707 02d6 6044     		add	r0, r0, ip
 708 02d8 2060     		str	r0, [r4]
 355:IMUDriver.c   **** 
 709              		.loc 1 355 0
 710 02da 7048     		ldr	r0, .L13+200
 711 02dc FFF7FEFF 		bl	bno055_convert_double_mag_xyz_uT
 712              	.LVL71:
 713 02e0 2368     		ldr	r3, [r4]
 714 02e2 9C46     		mov	ip, r3
 715 02e4 6044     		add	r0, r0, ip
 716 02e6 2060     		str	r0, [r4]
 359:IMUDriver.c   ****     comres += bno055_convert_double_gyro_y_dps(&d_gyro_datay);
 717              		.loc 1 359 0
 718 02e8 5748     		ldr	r0, .L13+116
 719 02ea FFF7FEFF 		bl	bno055_convert_double_gyro_x_dps
 720              	.LVL72:
 721 02ee 2368     		ldr	r3, [r4]
 722 02f0 9C46     		mov	ip, r3
 723 02f2 6044     		add	r0, r0, ip
 724 02f4 2060     		str	r0, [r4]
 360:IMUDriver.c   ****     comres += bno055_convert_double_gyro_z_dps(&d_gyro_dataz);
 725              		.loc 1 360 0
 726 02f6 5548     		ldr	r0, .L13+120
 727 02f8 FFF7FEFF 		bl	bno055_convert_double_gyro_y_dps
 728              	.LVL73:
 729 02fc 2368     		ldr	r3, [r4]
 730 02fe 9C46     		mov	ip, r3
 731 0300 6044     		add	r0, r0, ip
 732 0302 2060     		str	r0, [r4]
 361:IMUDriver.c   ****     //comres += bno055_convert_double_gyro_x_rps(&d_gyro_datax);
 733              		.loc 1 361 0
 734 0304 5248     		ldr	r0, .L13+124
 735 0306 FFF7FEFF 		bl	bno055_convert_double_gyro_z_dps
 736              	.LVL74:
 737 030a 2368     		ldr	r3, [r4]
 738 030c 9C46     		mov	ip, r3
 739 030e 6044     		add	r0, r0, ip
ARM GAS  C:\Users\TT\AppData\Local\Temp\cclueNJD.s 			page 25


 740 0310 2060     		str	r0, [r4]
 365:IMUDriver.c   ****     //comres += bno055_convert_double_gyro_xyz_rps(&d_gyro_xyz);
 741              		.loc 1 365 0
 742 0312 6348     		ldr	r0, .L13+204
 743 0314 FFF7FEFF 		bl	bno055_convert_double_gyro_xyz_dps
 744              	.LVL75:
 745 0318 2368     		ldr	r3, [r4]
 746 031a 9C46     		mov	ip, r3
 747 031c 6044     		add	r0, r0, ip
 748 031e 2060     		str	r0, [r4]
 370:IMUDriver.c   ****     comres += bno055_convert_double_euler_r_deg(&d_euler_data_r);
 749              		.loc 1 370 0
 750 0320 4C48     		ldr	r0, .L13+128
 751 0322 FFF7FEFF 		bl	bno055_convert_double_euler_h_deg
 752              	.LVL76:
 753 0326 2368     		ldr	r3, [r4]
 754 0328 9C46     		mov	ip, r3
 755 032a 6044     		add	r0, r0, ip
 756 032c 2060     		str	r0, [r4]
 371:IMUDriver.c   ****     comres += bno055_convert_double_euler_p_deg(&d_euler_data_p);
 757              		.loc 1 371 0
 758 032e 4A48     		ldr	r0, .L13+132
 759 0330 FFF7FEFF 		bl	bno055_convert_double_euler_r_deg
 760              	.LVL77:
 761 0334 2368     		ldr	r3, [r4]
 762 0336 9C46     		mov	ip, r3
 763 0338 6044     		add	r0, r0, ip
 764 033a 2060     		str	r0, [r4]
 372:IMUDriver.c   ****     //comres += bno055_convert_double_euler_h_rad(&d_euler_data_h);
 765              		.loc 1 372 0
 766 033c 5846     		mov	r0, fp
 767 033e FFF7FEFF 		bl	bno055_convert_double_euler_p_deg
 768              	.LVL78:
 769 0342 2368     		ldr	r3, [r4]
 770 0344 9C46     		mov	ip, r3
 771 0346 6044     		add	r0, r0, ip
 772 0348 2060     		str	r0, [r4]
 376:IMUDriver.c   ****     //comres += bno055_convert_double_euler_hpr_rad(&d_euler_hpr);
 773              		.loc 1 376 0
 774 034a 5648     		ldr	r0, .L13+208
 775 034c FFF7FEFF 		bl	bno055_convert_double_euler_hpr_deg
 776              	.LVL79:
 777 0350 2368     		ldr	r3, [r4]
 778 0352 9C46     		mov	ip, r3
 779 0354 6044     		add	r0, r0, ip
 780 0356 2060     		str	r0, [r4]
 381:IMUDriver.c   ****     comres += bno055_convert_double_linear_accel_y_msq(&d_linear_accel_datay);
 781              		.loc 1 381 0
 782 0358 5046     		mov	r0, r10
 783 035a FFF7FEFF 		bl	bno055_convert_double_linear_accel_x_msq
 784              	.LVL80:
 785 035e 2368     		ldr	r3, [r4]
 786 0360 9C46     		mov	ip, r3
 787 0362 6044     		add	r0, r0, ip
 788 0364 2060     		str	r0, [r4]
 382:IMUDriver.c   ****     comres += bno055_convert_double_linear_accel_z_msq(&d_linear_accel_dataz);
 789              		.loc 1 382 0
ARM GAS  C:\Users\TT\AppData\Local\Temp\cclueNJD.s 			page 26


 790 0366 4846     		mov	r0, r9
 791 0368 FFF7FEFF 		bl	bno055_convert_double_linear_accel_y_msq
 792              	.LVL81:
 793 036c 2368     		ldr	r3, [r4]
 794 036e 9C46     		mov	ip, r3
 795 0370 6044     		add	r0, r0, ip
 796 0372 2060     		str	r0, [r4]
 383:IMUDriver.c   ****     comres += bno055_convert_double_linear_accel_xyz_msq(&d_linear_accel_xyz);
 797              		.loc 1 383 0
 798 0374 4046     		mov	r0, r8
 799 0376 FFF7FEFF 		bl	bno055_convert_double_linear_accel_z_msq
 800              	.LVL82:
 801 037a 2368     		ldr	r3, [r4]
 802 037c 9C46     		mov	ip, r3
 803 037e 6044     		add	r0, r0, ip
 804 0380 2060     		str	r0, [r4]
 384:IMUDriver.c   **** 
 805              		.loc 1 384 0
 806 0382 4948     		ldr	r0, .L13+212
 807 0384 FFF7FEFF 		bl	bno055_convert_double_linear_accel_xyz_msq
 808              	.LVL83:
 809 0388 2368     		ldr	r3, [r4]
 810 038a 9C46     		mov	ip, r3
 811 038c 6044     		add	r0, r0, ip
 812 038e 2060     		str	r0, [r4]
 388:IMUDriver.c   ****     comres += bno055_convert_gravity_double_y_msq(&d_gravity_data_y);
 813              		.loc 1 388 0
 814 0390 3800     		movs	r0, r7
 815 0392 FFF7FEFF 		bl	bno055_convert_gravity_double_x_msq
 816              	.LVL84:
 817 0396 2368     		ldr	r3, [r4]
 818 0398 9C46     		mov	ip, r3
 819 039a 6044     		add	r0, r0, ip
 820 039c 2060     		str	r0, [r4]
 389:IMUDriver.c   ****     comres += bno055_convert_gravity_double_z_msq(&d_gravity_data_z);
 821              		.loc 1 389 0
 822 039e 3000     		movs	r0, r6
 823 03a0 FFF7FEFF 		bl	bno055_convert_gravity_double_y_msq
 824              	.LVL85:
 825 03a4 2368     		ldr	r3, [r4]
 826 03a6 9C46     		mov	ip, r3
 827 03a8 6044     		add	r0, r0, ip
 828 03aa 2060     		str	r0, [r4]
 390:IMUDriver.c   ****     comres += bno055_convert_double_gravity_xyz_msq(&d_gravity_xyz);
 829              		.loc 1 390 0
 830 03ac 2800     		movs	r0, r5
 831 03ae FFF7FEFF 		bl	bno055_convert_gravity_double_z_msq
 832              	.LVL86:
 833 03b2 2368     		ldr	r3, [r4]
 834 03b4 9C46     		mov	ip, r3
 835 03b6 6044     		add	r0, r0, ip
 836 03b8 2060     		str	r0, [r4]
 391:IMUDriver.c   **** 
 837              		.loc 1 391 0
 838 03ba 3C48     		ldr	r0, .L13+216
 839 03bc FFF7FEFF 		bl	bno055_convert_double_gravity_xyz_msq
 840              	.LVL87:
ARM GAS  C:\Users\TT\AppData\Local\Temp\cclueNJD.s 			page 27


 841 03c0 2368     		ldr	r3, [r4]
 842 03c2 9C46     		mov	ip, r3
 843 03c4 6044     		add	r0, r0, ip
 844 03c6 2060     		str	r0, [r4]
 395:IMUDriver.c   **** 
 845              		.loc 1 395 0
 846              		@ sp needed
 847 03c8 3CBC     		pop	{r2, r3, r4, r5}
 848 03ca 9046     		mov	r8, r2
 849 03cc 9946     		mov	r9, r3
 850 03ce A246     		mov	r10, r4
 851 03d0 AB46     		mov	fp, r5
 852 03d2 F8BD     		pop	{r3, r4, r5, r6, r7, pc}
 853              	.L14:
 854              		.align	2
 855              	.L13:
 856 03d4 00000000 		.word	comres
 857 03d8 00000000 		.word	power_mode
 858 03dc 00000000 		.word	accel_datax
 859 03e0 00000000 		.word	accel_datay
 860 03e4 00000000 		.word	accel_dataz
 861 03e8 00000000 		.word	mag_datax
 862 03ec 00000000 		.word	mag_datay
 863 03f0 00000000 		.word	mag_dataz
 864 03f4 00000000 		.word	gyro_datax
 865 03f8 00000000 		.word	gyro_datay
 866 03fc 00000000 		.word	gyro_dataz
 867 0400 00000000 		.word	euler_data_h
 868 0404 00000000 		.word	euler_data_r
 869 0408 00000000 		.word	euler_data_p
 870 040c 00000000 		.word	quaternion_data_w
 871 0410 00000000 		.word	quaternion_data_x
 872 0414 00000000 		.word	quaternion_data_y
 873 0418 00000000 		.word	quaternion_data_z
 874 041c 00000000 		.word	linear_accel_data_x
 875 0420 00000000 		.word	linear_accel_data_y
 876 0424 00000000 		.word	linear_accel_data_z
 877 0428 00000000 		.word	gravity_data_x
 878 042c 00000000 		.word	gravity_data_y
 879 0430 00000000 		.word	gravity_data_z
 880 0434 00000000 		.word	d_accel_datay
 881 0438 00000000 		.word	d_accel_dataz
 882 043c 00000000 		.word	d_mag_datax
 883 0440 00000000 		.word	d_mag_datay
 884 0444 00000000 		.word	d_mag_dataz
 885 0448 00000000 		.word	d_gyro_datax
 886 044c 00000000 		.word	d_gyro_datay
 887 0450 00000000 		.word	d_gyro_dataz
 888 0454 00000000 		.word	d_euler_data_h
 889 0458 00000000 		.word	d_euler_data_r
 890 045c 00000000 		.word	d_euler_data_p
 891 0460 00000000 		.word	d_linear_accel_datax
 892 0464 00000000 		.word	d_linear_accel_datay
 893 0468 00000000 		.word	d_linear_accel_dataz
 894 046c 00000000 		.word	d_gravity_data_x
 895 0470 00000000 		.word	d_gravity_data_y
 896 0474 00000000 		.word	d_gravity_data_z
ARM GAS  C:\Users\TT\AppData\Local\Temp\cclueNJD.s 			page 28


 897 0478 00000000 		.word	accel_xyz
 898 047c 00000000 		.word	mag_xyz
 899 0480 00000000 		.word	gyro_xyz
 900 0484 00000000 		.word	euler_hrp
 901 0488 00000000 		.word	quaternion_wxyz
 902 048c 00000000 		.word	linear_acce_xyz
 903 0490 00000000 		.word	gravity_xyz
 904 0494 00000000 		.word	d_accel_datax
 905 0498 00000000 		.word	d_accel_xyz
 906 049c 00000000 		.word	d_mag_xyz
 907 04a0 00000000 		.word	d_gyro_xyz
 908 04a4 00000000 		.word	d_euler_hpr
 909 04a8 00000000 		.word	d_linear_accel_xyz
 910 04ac 00000000 		.word	d_gravity_xyz
 911              		.cfi_endproc
 912              	.LFE35:
 913              		.size	bno055_data_readout_template, .-bno055_data_readout_template
 914              		.section	.text.I2C_routine,"ax",%progbits
 915              		.align	2
 916              		.global	I2C_routine
 917              		.code	16
 918              		.thumb_func
 919              		.type	I2C_routine, %function
 920              	I2C_routine:
 921              	.LFB36:
 410:IMUDriver.c   ****     bno055.bus_write = BNO055_I2C_bus_write;
 922              		.loc 1 410 0
 923              		.cfi_startproc
 924              		@ args = 0, pretend = 0, frame = 0
 925              		@ frame_needed = 0, uses_anonymous_args = 0
 926              		@ link register save eliminated.
 411:IMUDriver.c   ****     bno055.bus_read = BNO055_I2C_bus_read;
 927              		.loc 1 411 0
 928 0000 054B     		ldr	r3, .L16
 929 0002 064A     		ldr	r2, .L16+4
 930 0004 DA60     		str	r2, [r3, #12]
 412:IMUDriver.c   ****     bno055.delay_msec = BNO055_delay_msek;
 931              		.loc 1 412 0
 932 0006 064A     		ldr	r2, .L16+8
 933 0008 1A61     		str	r2, [r3, #16]
 413:IMUDriver.c   ****     bno055.dev_addr = BNO055_I2C_ADDR1;
 934              		.loc 1 413 0
 935 000a 064A     		ldr	r2, .L16+12
 936 000c 5A61     		str	r2, [r3, #20]
 414:IMUDriver.c   **** 
 937              		.loc 1 414 0
 938 000e 2822     		movs	r2, #40
 939 0010 5A72     		strb	r2, [r3, #9]
 417:IMUDriver.c   **** 
 940              		.loc 1 417 0
 941 0012 0020     		movs	r0, #0
 942              		@ sp needed
 943 0014 7047     		bx	lr
 944              	.L17:
 945 0016 C046     		.align	2
 946              	.L16:
 947 0018 00000000 		.word	bno055
ARM GAS  C:\Users\TT\AppData\Local\Temp\cclueNJD.s 			page 29


 948 001c 00000000 		.word	BNO055_I2C_bus_write
 949 0020 00000000 		.word	BNO055_I2C_bus_read
 950 0024 00000000 		.word	BNO055_delay_msek
 951              		.cfi_endproc
 952              	.LFE36:
 953              		.size	I2C_routine, .-I2C_routine
 954              		.section	.text.imu_init,"ax",%progbits
 955              		.align	2
 956              		.global	imu_init
 957              		.code	16
 958              		.thumb_func
 959              		.type	imu_init, %function
 960              	imu_init:
 961              	.LFB34:
   5:IMUDriver.c   ****     IMU_RST_Write(!IMU_RST_Read());
 962              		.loc 1 5 0
 963              		.cfi_startproc
 964              		@ args = 0, pretend = 0, frame = 0
 965              		@ frame_needed = 0, uses_anonymous_args = 0
 966 0000 10B5     		push	{r4, lr}
 967              		.cfi_def_cfa_offset 8
 968              		.cfi_offset 4, -8
 969              		.cfi_offset 14, -4
   6:IMUDriver.c   ****     CyDelay(20);
 970              		.loc 1 6 0
 971 0002 FFF7FEFF 		bl	IMU_RST_Read
 972              	.LVL88:
 973 0006 4342     		rsbs	r3, r0, #0
 974 0008 5841     		adcs	r0, r0, r3
 975 000a C0B2     		uxtb	r0, r0
 976 000c FFF7FEFF 		bl	IMU_RST_Write
 977              	.LVL89:
   7:IMUDriver.c   ****     IMU_RST_Write(!IMU_RST_Read());   
 978              		.loc 1 7 0
 979 0010 1420     		movs	r0, #20
 980 0012 FFF7FEFF 		bl	CyDelay
 981              	.LVL90:
   8:IMUDriver.c   ****     CyDelay(1000);
 982              		.loc 1 8 0
 983 0016 FFF7FEFF 		bl	IMU_RST_Read
 984              	.LVL91:
 985 001a 4342     		rsbs	r3, r0, #0
 986 001c 5841     		adcs	r0, r0, r3
 987 001e C0B2     		uxtb	r0, r0
 988 0020 FFF7FEFF 		bl	IMU_RST_Write
 989              	.LVL92:
   9:IMUDriver.c   ****     
 990              		.loc 1 9 0
 991 0024 FA20     		movs	r0, #250
 992 0026 8000     		lsls	r0, r0, #2
 993 0028 FFF7FEFF 		bl	CyDelay
 994              	.LVL93:
  11:IMUDriver.c   ****     
 995              		.loc 1 11 0
 996 002c FFF7FEFF 		bl	IMU_I2C_Start
 997              	.LVL94:
  13:IMUDriver.c   ****     //Print("Starting imu init");
ARM GAS  C:\Users\TT\AppData\Local\Temp\cclueNJD.s 			page 30


 998              		.loc 1 13 0
 999 0030 FFF7FEFF 		bl	I2C_routine
 1000              	.LVL95:
  15:IMUDriver.c   ****     bno055_set_power_mode(BNO055_POWER_MODE_NORMAL);
 1001              		.loc 1 15 0
 1002 0034 0448     		ldr	r0, .L19
 1003 0036 FFF7FEFF 		bl	bno055_init
 1004              	.LVL96:
  16:IMUDriver.c   ****     bno055_set_operation_mode(BNO055_OPERATION_MODE_NDOF);
 1005              		.loc 1 16 0
 1006 003a 0020     		movs	r0, #0
 1007 003c FFF7FEFF 		bl	bno055_set_power_mode
 1008              	.LVL97:
  17:IMUDriver.c   ****     //bno055_set_accel_unit(BNO055_ACCEL_UNIT_MSQ); //set units of accel to m/s^2
 1009              		.loc 1 17 0
 1010 0040 0C20     		movs	r0, #12
 1011 0042 FFF7FEFF 		bl	bno055_set_operation_mode
 1012              	.LVL98:
  24:IMUDriver.c   **** 
 1013              		.loc 1 24 0
 1014              		@ sp needed
 1015 0046 10BD     		pop	{r4, pc}
 1016              	.L20:
 1017              		.align	2
 1018              	.L19:
 1019 0048 00000000 		.word	bno055
 1020              		.cfi_endproc
 1021              	.LFE34:
 1022              		.size	imu_init, .-imu_init
 1023              		.comm	d_gravity_xyz,24,8
 1024              		.comm	d_gravity_data_z,8,8
 1025              		.comm	d_gravity_data_y,8,8
 1026              		.comm	d_gravity_data_x,8,8
 1027              		.comm	d_linear_accel_xyz,24,8
 1028              		.comm	d_linear_accel_dataz,8,8
 1029              		.comm	d_linear_accel_datay,8,8
 1030              		.comm	d_linear_accel_datax,8,8
 1031              		.comm	d_euler_hpr,24,8
 1032              		.comm	d_euler_data_p,8,8
 1033              		.comm	d_euler_data_r,8,8
 1034              		.comm	d_euler_data_h,8,8
 1035              		.comm	d_gyro_xyz,24,8
 1036              		.comm	d_gyro_dataz,8,8
 1037              		.comm	d_gyro_datay,8,8
 1038              		.comm	d_gyro_datax,8,8
 1039              		.comm	d_mag_xyz,24,8
 1040              		.comm	d_mag_dataz,8,8
 1041              		.comm	d_mag_datay,8,8
 1042              		.comm	d_mag_datax,8,8
 1043              		.comm	d_accel_xyz,24,8
 1044              		.comm	d_accel_dataz,8,8
 1045              		.comm	d_accel_datay,8,8
 1046              		.comm	d_accel_datax,8,8
 1047              		.comm	gravity_xyz,6,4
 1048              		.comm	gravity_data_z,2,2
 1049              		.comm	gravity_data_y,2,2
 1050              		.comm	gravity_data_x,2,2
ARM GAS  C:\Users\TT\AppData\Local\Temp\cclueNJD.s 			page 31


 1051              		.comm	linear_acce_xyz,6,4
 1052              		.comm	linear_accel_data_z,2,2
 1053              		.comm	linear_accel_data_y,2,2
 1054              		.comm	linear_accel_data_x,2,2
 1055              		.comm	quaternion_wxyz,8,4
 1056              		.comm	quaternion_data_z,2,2
 1057              		.comm	quaternion_data_y,2,2
 1058              		.comm	quaternion_data_x,2,2
 1059              		.comm	quaternion_data_w,2,2
 1060              		.comm	euler_hrp,6,4
 1061              		.comm	euler_data_p,2,2
 1062              		.comm	euler_data_r,2,2
 1063              		.comm	euler_data_h,2,2
 1064              		.comm	gyro_xyz,6,4
 1065              		.comm	gyro_dataz,2,2
 1066              		.comm	gyro_datay,2,2
 1067              		.comm	gyro_datax,2,2
 1068              		.comm	mag_xyz,6,4
 1069              		.comm	mag_dataz,2,2
 1070              		.comm	mag_datay,2,2
 1071              		.comm	mag_datax,2,2
 1072              		.comm	accel_xyz,6,4
 1073              		.comm	accel_dataz,2,2
 1074              		.comm	accel_datay,2,2
 1075              		.comm	accel_datax,2,2
 1076              		.comm	power_mode,1,1
 1077              		.comm	comres,4,4
 1078              		.comm	bno055,24,4
 1079              		.comm	debugOutput,32,4
 1080              		.text
 1081              	.Letext0:
 1082              		.file 2 "IMU.h"
 1083              		.file 3 "IMUDriver.h"
 1084              		.file 4 "Generated_Source\\PSoC4/CyLib.h"
 1085              		.file 5 "Generated_Source\\PSoC4/IMU_I2C_I2C.h"
 1086              		.file 6 "Generated_Source\\PSoC4/IMU_RST.h"
 1087              		.file 7 "Generated_Source\\PSoC4/IMU_I2C.h"
 1088              		.file 8 "Generated_Source\\PSoC4/cytypes.h"