ARM GAS  C:\Users\TT\AppData\Local\Temp\ccOvo8nX.s 			page 1


   1              		.syntax unified
   2              		.cpu cortex-m0
   3              		.fpu softvfp
   4              		.eabi_attribute 20, 1
   5              		.eabi_attribute 21, 1
   6              		.eabi_attribute 23, 3
   7              		.eabi_attribute 24, 1
   8              		.eabi_attribute 25, 1
   9              		.eabi_attribute 26, 1
  10              		.eabi_attribute 30, 1
  11              		.eabi_attribute 34, 0
  12              		.eabi_attribute 18, 4
  13              		.thumb
  14              		.syntax unified
  15              		.file	"main.c"
  16              		.text
  17              	.Ltext0:
  18              		.cfi_sections	.debug_frame
  19              		.section	.text.getSerialAddress,"ax",%progbits
  20              		.align	2
  21              		.global	getSerialAddress
  22              		.code	16
  23              		.thumb_func
  24              		.type	getSerialAddress, %function
  25              	getSerialAddress:
  26              	.LFB35:
  27              		.file 1 "main.c"
   1:main.c        **** 
   2:main.c        **** /* 
   3:main.c        **** Davis Sauer
   4:main.c        **** Husky Robotics
   5:main.c        **** 2021
   6:main.c        **** This program continuously checks the GPS and IMU sensors for sensor data
   7:main.c        **** and then reports that information when requested over CAN
   8:main.c        **** */
   9:main.c        **** 
  10:main.c        **** #include "main.h"
  11:main.c        **** 
  12:main.c        **** int main(void)
  13:main.c        **** {
  14:main.c        ****     CyGlobalIntEnable; /* Enable global interrupts. */ 
  15:main.c        ****     DBG_UART_Start();
  16:main.c        ****     InitCAN(DEVICE_GROUP_IMU, getSerialAddress() );
  17:main.c        ****     gps_init();    
  18:main.c        ****     imu_init();
  19:main.c        ****            
  20:main.c        ****     Print("\r\n");
  21:main.c        ****     Print("\r\n***************\r\nIMU BOARD INITIALIZED\n\r***************\r\n");
  22:main.c        ****     
  23:main.c        ****     writeAccOffset(1, 2, 3);
  24:main.c        ****     writeMagOffset(4, 5, 6);
  25:main.c        ****     
  26:main.c        ****     int i;
  27:main.c        ****     
  28:main.c        ****     for (i = 1; i <= 5; i++) {
  29:main.c        ****    
  30:main.c        ****         writeRadiusOffset(i * 10, i * 10);
ARM GAS  C:\Users\TT\AppData\Local\Temp\ccOvo8nX.s 			page 2


  31:main.c        ****         readRadiusOffset();
  32:main.c        ****         
  33:main.c        ****     }
  34:main.c        ****     
  35:main.c        ****     int status;
  36:main.c        ****     
  37:main.c        ****     for(;;)
  38:main.c        ****     {
  39:main.c        ****     /*    
  40:main.c        ****         switch(state)
  41:main.c        ****         {
  42:main.c        ****             //Checks for can packet addressed to this board
  43:main.c        ****             //if found, send requested data then read sensors, if not, read sensors
  44:main.c        ****             case(IDLE):
  45:main.c        ****             
  46:main.c        ****                 //sendRequestedData(TTC);
  47:main.c        ****                 if (PollAndReceiveCANPacket( &receive ) == ERROR_NONE)
  48:main.c        ****                 {
  49:main.c        ****                     Print("Packet Found!\r\n");
  50:main.c        ****                     
  51:main.c        ****                     int packetID = GetPacketID( &receive );
  52:main.c        ****                     
  53:main.c        ****                     switch (packetID)
  54:main.c        ****                     {
  55:main.c        ****         
  56:main.c        ****                         // Deprecated
  57:main.c        ****                         case(ID_TELEMETRY_PULL):
  58:main.c        ****                         {
  59:main.c        ****                         
  60:main.c        ****                             uint8_t TTC = DecodeTelemetryType( &receive );
  61:main.c        ****                             Print("Sending CAN Packet...\r\n");      
  62:main.c        ****                             sendRequestedData(TTC); 
  63:main.c        ****                             break;
  64:main.c        ****                             
  65:main.c        ****                         }
  66:main.c        ****         
  67:main.c        ****                         case (ID_IMU_READ_DATA):
  68:main.c        ****                         
  69:main.c        ****                         {
  70:main.c        ****         
  71:main.c        ****                             uint8_t dataType = GetDataTypeFromReadPacket( &receive );
  72:main.c        ****                             sendRequestedData(dataType);
  73:main.c        ****         
  74:main.c        ****                             break;
  75:main.c        ****         
  76:main.c        ****                         }
  77:main.c        ****                         
  78:main.c        ****                         case(ID_IMU_READ_OPR_MODE):
  79:main.c        ****                         {
  80:main.c        ****                          
  81:main.c        ****                             readOperationMode();
  82:main.c        ****                             break;
  83:main.c        ****                             
  84:main.c        ****                         }
  85:main.c        ****                         
  86:main.c        ****                         case(ID_IMU_WRITE_OPR_MODE):
  87:main.c        ****                         {
ARM GAS  C:\Users\TT\AppData\Local\Temp\ccOvo8nX.s 			page 3


  88:main.c        ****                             
  89:main.c        ****                             writeOperationMode(GetOprModeFromPacket(&receive));
  90:main.c        ****                             break;
  91:main.c        ****                             
  92:main.c        ****                         }
  93:main.c        ****                         
  94:main.c        ****                         case(ID_IMU_QUERY_CALIB_STAT):
  95:main.c        ****                         {
  96:main.c        ****                          
  97:main.c        ****                             queryCalibrationStatus();
  98:main.c        ****                             break;
  99:main.c        ****                             
 100:main.c        ****                         }
 101:main.c        ****                         
 102:main.c        ****                         case(ID_IMU_READ_ACC_OFFSET):
 103:main.c        ****                         {
 104:main.c        ****                          
 105:main.c        ****                             readAccOffset();
 106:main.c        ****                             break;
 107:main.c        ****                             
 108:main.c        ****                         }
 109:main.c        ****                         
 110:main.c        ****                         case(ID_IMU_READ_MAG_OFFSET):
 111:main.c        ****                         {
 112:main.c        ****                          
 113:main.c        ****                             readMagOffset();
 114:main.c        ****                             break;
 115:main.c        ****                             
 116:main.c        ****                         }
 117:main.c        ****                         
 118:main.c        ****                         case(ID_IMU_READ_GYRO_OFFSET):
 119:main.c        ****                         {
 120:main.c        ****                          
 121:main.c        ****                             readGyroOffset();
 122:main.c        ****                             break;
 123:main.c        ****                             
 124:main.c        ****                         }
 125:main.c        ****                         
 126:main.c        ****                         case(ID_IMU_READ_RADIUS_OFFSET):
 127:main.c        ****                         {
 128:main.c        ****                          
 129:main.c        ****                             readRadiusOffset();
 130:main.c        ****                             break;
 131:main.c        ****                             
 132:main.c        ****                         }
 133:main.c        ****                         
 134:main.c        ****                         case (ID_IMU_WRITE_ACC_OFFSET):
 135:main.c        ****                         {
 136:main.c        ****                          
 137:main.c        ****                             IMUOffset offset = GetOffsetFromPacket(&receive);
 138:main.c        ****                             writeAccOffset(offset.xOffset, offset.yOffset, offset.zOffset);
 139:main.c        ****                             break;
 140:main.c        ****                             
 141:main.c        ****                         }
 142:main.c        ****                         
 143:main.c        ****                         case (ID_IMU_WRITE_MAG_OFFSET):
 144:main.c        ****                         {
ARM GAS  C:\Users\TT\AppData\Local\Temp\ccOvo8nX.s 			page 4


 145:main.c        ****                          
 146:main.c        ****                             IMUOffset offset = GetOffsetFromPacket(&receive);
 147:main.c        ****                             writeMagOffset(offset.xOffset, offset.yOffset, offset.zOffset);
 148:main.c        ****                             break;
 149:main.c        ****                             
 150:main.c        ****                         }
 151:main.c        ****                         
 152:main.c        ****                         case (ID_IMU_WRITE_GYRO_OFFSET):
 153:main.c        ****                         {
 154:main.c        ****                          
 155:main.c        ****                             IMUOffset offset = GetOffsetFromPacket(&receive);
 156:main.c        ****                             writeGyroOffset(offset.xOffset, offset.yOffset, offset.zOffset);
 157:main.c        ****                             break;
 158:main.c        ****                             
 159:main.c        ****                         }
 160:main.c        ****                         
 161:main.c        ****                         case (ID_IMU_WRITE_RADIUS_OFFSET):
 162:main.c        ****                         {
 163:main.c        ****                          
 164:main.c        ****                             IMURadiusOffset offset = GetRadiusOffsetFromPacket(&receive);
 165:main.c        ****                             writeRadiusOffset(offset.accOffset, offset.magOffset);
 166:main.c        ****                             break;
 167:main.c        ****                             
 168:main.c        ****                         }
 169:main.c        ****                                         
 170:main.c        ****                     }
 171:main.c        ****                     
 172:main.c        ****                 }
 173:main.c        ****                 
 174:main.c        ****                 //flip between checking can and checking sensors
 175:main.c        ****                 state = READ_SENSORS;
 176:main.c        ****             
 177:main.c        ****                 break;
 178:main.c        ****             
 179:main.c        ****             //Polls GPS and IMU for current sensor data
 180:main.c        ****             case(READ_SENSORS):
 181:main.c        ****                 
 182:main.c        ****                 //Checking if packet from gps is location info                
 183:main.c        ****         	    if (gps_getData( &gpsRawData ))
 184:main.c        ****                 {
 185:main.c        ****                     //Parse string data into ints and floats
 186:main.c        ****         	        gpsData = gps_parseData( &gpsRawData );  
 187:main.c        ****                 }
 188:main.c        ****                 
 189:main.c        ****                 //use the provided api to read data
 190:main.c        ****                 bno055_data_readout_template(); 
 191:main.c        ****                 
 192:main.c        ****                 
 193:main.c        ****                 
 194:main.c        ****                 //print out values from gps data
 195:main.c        ****                 Print("\r\n");
 196:main.c        ****                 Print("\n\rFix: ");
 197:main.c        ****                 PrintInt((gpsData.fix));
 198:main.c        ****                 Print("\n\rLatitude: ");
 199:main.c        ****                 PrintInt((gpsData.latitude));
 200:main.c        ****                 Print("\n\rLongitude: ");
 201:main.c        ****                 PrintInt((gpsData.longitude));
ARM GAS  C:\Users\TT\AppData\Local\Temp\ccOvo8nX.s 			page 5


 202:main.c        ****                 Print("\r\n\r\n");
 203:main.c        ****                 
 204:main.c        ****                 //print out values from imu data
 205:main.c        ****                 Print("\r\n");
 206:main.c        ****                 Print("\n\rLinear Accel x: ");
 207:main.c        ****                 PrintInt((d_linear_accel_datax));
 208:main.c        ****                 Print("\n\rLinear Accel y: ");
 209:main.c        ****                 PrintInt((d_linear_accel_datay));
 210:main.c        ****                 Print("\n\rLinear Accel z: ");
 211:main.c        ****                 PrintInt((d_linear_accel_dataz));
 212:main.c        ****                 
 213:main.c        ****                 Print("\r\n");
 214:main.c        ****                 Print("\n\rGyro Veloc x: ");
 215:main.c        ****                 PrintInt((int)(d_gyro_datax));
 216:main.c        ****                 Print("\n\rGyro Veloc y: ");
 217:main.c        ****                 PrintInt((int)(d_gyro_datay));
 218:main.c        ****                 Print("\n\rGyro Veloc z: ");
 219:main.c        ****                 PrintInt((int)(d_gyro_dataz));
 220:main.c        ****                 
 221:main.c        ****                 Print("\r\n");
 222:main.c        ****                 Print("\n\rYaw: ");
 223:main.c        ****                 PrintInt((int)(d_euler_data_h));
 224:main.c        ****                 Print("\n\rPitch: ");
 225:main.c        ****                 PrintInt((int)(d_euler_data_p));
 226:main.c        ****                 Print("\n\rRoll: ");
 227:main.c        ****                 PrintInt((int)(d_euler_data_r));
 228:main.c        ****                 
 229:main.c        ****                 Print("\r\n");
 230:main.c        ****                 Print("\n\rQuat w: ");
 231:main.c        ****                 PrintInt((int)(quaternion_data_w));
 232:main.c        ****                 Print("\n\rQuat x: ");
 233:main.c        ****                 PrintInt((int)(quaternion_data_x));
 234:main.c        ****                 Print("\n\rQuat y: ");
 235:main.c        ****                 PrintInt((int)(quaternion_data_y));
 236:main.c        ****                 Print("\n\rQuat z: ");
 237:main.c        ****                 PrintInt((int)(quaternion_data_z));
 238:main.c        ****                 Print("\r\n\r\n");
 239:main.c        ****                 
 240:main.c        ****                
 241:main.c        ****                 
 242:main.c        ****                 state = IDLE;
 243:main.c        ****                 break;
 244:main.c        ****                 
 245:main.c        ****         }
 246:main.c        ****         
 247:main.c        ****         */
 248:main.c        ****     }
 249:main.c        **** }
 250:main.c        **** 
 251:main.c        **** //Reads dip switches to calculate the serial address
 252:main.c        **** int getSerialAddress()
 253:main.c        **** {
  28              		.loc 1 253 0
  29              		.cfi_startproc
  30              		@ args = 0, pretend = 0, frame = 0
  31              		@ frame_needed = 0, uses_anonymous_args = 0
  32 0000 10B5     		push	{r4, lr}
ARM GAS  C:\Users\TT\AppData\Local\Temp\ccOvo8nX.s 			page 6


  33              		.cfi_def_cfa_offset 8
  34              		.cfi_offset 4, -8
  35              		.cfi_offset 14, -4
  36              	.LVL0:
 254:main.c        ****     int address = 0;
 255:main.c        ****     if (DIP1_Read()==0)
  37              		.loc 1 255 0
  38 0002 FFF7FEFF 		bl	DIP1_Read
  39              	.LVL1:
  40 0006 0028     		cmp	r0, #0
  41 0008 01D0     		beq	.L7
 254:main.c        ****     int address = 0;
  42              		.loc 1 254 0
  43 000a 0024     		movs	r4, #0
  44 000c 00E0     		b	.L2
  45              	.L7:
 256:main.c        ****         address += 1;
  46              		.loc 1 256 0
  47 000e 0124     		movs	r4, #1
  48              	.L2:
  49              	.LVL2:
 257:main.c        ****   
 258:main.c        ****     if (DIP2_Read()==0)
  50              		.loc 1 258 0
  51 0010 FFF7FEFF 		bl	DIP2_Read
  52              	.LVL3:
  53 0014 0028     		cmp	r0, #0
  54 0016 00D1     		bne	.L3
 259:main.c        ****         address += 2;
  55              		.loc 1 259 0
  56 0018 0234     		adds	r4, r4, #2
  57              	.LVL4:
  58              	.L3:
 260:main.c        **** 
 261:main.c        ****     if (DIP3_Read()==0)
  59              		.loc 1 261 0
  60 001a FFF7FEFF 		bl	DIP3_Read
  61              	.LVL5:
  62 001e 0028     		cmp	r0, #0
  63 0020 00D1     		bne	.L4
 262:main.c        ****         address += 4;
  64              		.loc 1 262 0
  65 0022 0434     		adds	r4, r4, #4
  66              	.LVL6:
  67              	.L4:
 263:main.c        **** 
 264:main.c        ****     if (DIP4_Read()==0)
  68              		.loc 1 264 0
  69 0024 FFF7FEFF 		bl	DIP4_Read
  70              	.LVL7:
  71 0028 0028     		cmp	r0, #0
  72 002a 00D1     		bne	.L5
 265:main.c        ****         address += 8;
  73              		.loc 1 265 0
  74 002c 0834     		adds	r4, r4, #8
  75              	.LVL8:
  76              	.L5:
ARM GAS  C:\Users\TT\AppData\Local\Temp\ccOvo8nX.s 			page 7


 266:main.c        ****     
 267:main.c        ****     if (address == 0)
  77              		.loc 1 267 0
  78 002e 002C     		cmp	r4, #0
  79 0030 00D1     		bne	.L6
 268:main.c        ****         address = DEVICE_SERIAL_TELEM_LOCALIZATION;
  80              		.loc 1 268 0
  81 0032 0134     		adds	r4, r4, #1
  82              	.LVL9:
  83              	.L6:
 269:main.c        ****     
 270:main.c        ****     return address;
 271:main.c        **** }
  84              		.loc 1 271 0
  85 0034 2000     		movs	r0, r4
  86              		@ sp needed
  87              	.LVL10:
  88 0036 10BD     		pop	{r4, pc}
  89              		.cfi_endproc
  90              	.LFE35:
  91              		.size	getSerialAddress, .-getSerialAddress
  92              		.global	__aeabi_d2iz
  93              		.global	__aeabi_fadd
  94              		.global	__aeabi_f2uiz
  95              		.section	.text.sendRequestedData,"ax",%progbits
  96              		.align	2
  97              		.global	sendRequestedData
  98              		.code	16
  99              		.thumb_func
 100              		.type	sendRequestedData, %function
 101              	sendRequestedData:
 102              	.LFB36:
 272:main.c        **** 
 273:main.c        **** //Using the Telemetry Type Code (TTC), sends appropriate data to respond
 274:main.c        **** //to a telemetry request
 275:main.c        **** 
 276:main.c        **** void sendRequestedData(int TTC)
 277:main.c        **** {
 103              		.loc 1 277 0
 104              		.cfi_startproc
 105              		@ args = 0, pretend = 0, frame = 16
 106              		@ frame_needed = 0, uses_anonymous_args = 0
 107              	.LVL11:
 108 0000 10B5     		push	{r4, lr}
 109              		.cfi_def_cfa_offset 8
 110              		.cfi_offset 4, -8
 111              		.cfi_offset 14, -4
 112 0002 86B0     		sub	sp, sp, #24
 113              		.cfi_def_cfa_offset 32
 114 0004 0400     		movs	r4, r0
 115              	.LVL12:
 278:main.c        ****     int32_t data = 0;
 279:main.c        ****     
 280:main.c        ****     switch(TTC)
 116              		.loc 1 280 0
 117 0006 031F     		subs	r3, r0, #4
 118 0008 112B     		cmp	r3, #17
ARM GAS  C:\Users\TT\AppData\Local\Temp\ccOvo8nX.s 			page 8


 119 000a 60D8     		bhi	.L10
 120 000c 9B00     		lsls	r3, r3, #2
 121 000e 3E4A     		ldr	r2, .L27
 122 0010 D358     		ldr	r3, [r2, r3]
 123 0012 9F46     		mov	pc, r3
 124              		.section	.rodata
 125              		.align	2
 126              	.L12:
 127 0000 14000000 		.word	.L11
 128 0004 26000000 		.word	.L13
 129 0008 3A000000 		.word	.L14
 130 000c CE000000 		.word	.L10
 131 0010 4E000000 		.word	.L15
 132 0014 5C000000 		.word	.L16
 133 0018 6A000000 		.word	.L17
 134 001c 78000000 		.word	.L18
 135 0020 8A000000 		.word	.L19
 136 0024 9C000000 		.word	.L20
 137 0028 CE000000 		.word	.L10
 138 002c CE000000 		.word	.L10
 139 0030 CE000000 		.word	.L10
 140 0034 CE000000 		.word	.L10
 141 0038 AE000000 		.word	.L21
 142 003c B6000000 		.word	.L22
 143 0040 BE000000 		.word	.L23
 144 0044 C6000000 		.word	.L24
 145              		.section	.text.sendRequestedData
 146              	.L11:
 281:main.c        ****     {
 282:main.c        ****         case(ANG_POS):
 283:main.c        ****             //int32 (signed). Reading in degrees * 1000
 284:main.c        ****             data = (int32_t) d_euler_data_h * 1000;
 147              		.loc 1 284 0
 148 0014 3D4B     		ldr	r3, .L27+4
 149 0016 1868     		ldr	r0, [r3]
 150 0018 5968     		ldr	r1, [r3, #4]
 151              	.LVL13:
 152 001a FFF7FEFF 		bl	__aeabi_d2iz
 153              	.LVL14:
 154 001e FA23     		movs	r3, #250
 155 0020 9B00     		lsls	r3, r3, #2
 156 0022 5843     		muls	r0, r3
 157              	.LVL15:
 285:main.c        ****             break;
 158              		.loc 1 285 0
 159 0024 57E0     		b	.L25
 160              	.LVL16:
 161              	.L13:
 286:main.c        ****         
 287:main.c        ****         case(GPS_LAT):
 288:main.c        ****             data = (uint32_t)(gpsData.latitude + 90) * 10000000;
 162              		.loc 1 288 0
 163 0026 3A4B     		ldr	r3, .L27+8
 164 0028 1868     		ldr	r0, [r3]
 165              	.LVL17:
 166 002a 3A49     		ldr	r1, .L27+12
 167 002c FFF7FEFF 		bl	__aeabi_fadd
ARM GAS  C:\Users\TT\AppData\Local\Temp\ccOvo8nX.s 			page 9


 168              	.LVL18:
 169 0030 FFF7FEFF 		bl	__aeabi_f2uiz
 170              	.LVL19:
 171 0034 384B     		ldr	r3, .L27+16
 172 0036 5843     		muls	r0, r3
 173              	.LVL20:
 289:main.c        ****             break;
 174              		.loc 1 289 0
 175 0038 4DE0     		b	.L25
 176              	.LVL21:
 177              	.L14:
 290:main.c        ****         
 291:main.c        ****         case(GPS_LON):
 292:main.c        ****             data = (uint32_t)(gpsData.longitude + 180) * 10000000;
 178              		.loc 1 292 0
 179 003a 354B     		ldr	r3, .L27+8
 180 003c 5868     		ldr	r0, [r3, #4]
 181              	.LVL22:
 182 003e 3749     		ldr	r1, .L27+20
 183 0040 FFF7FEFF 		bl	__aeabi_fadd
 184              	.LVL23:
 185 0044 FFF7FEFF 		bl	__aeabi_f2uiz
 186              	.LVL24:
 187 0048 334B     		ldr	r3, .L27+16
 188 004a 5843     		muls	r0, r3
 189              	.LVL25:
 293:main.c        ****             break;
 190              		.loc 1 293 0
 191 004c 43E0     		b	.L25
 192              	.LVL26:
 193              	.L15:
 294:main.c        ****             
 295:main.c        ****         case(ACCEL_X):
 296:main.c        ****             //int32 (signed). Acceleration in m/s/s * 1000
 297:main.c        ****             data = (int32_t) (linear_accel_data_x * 1000);
 194              		.loc 1 297 0
 195 004e 344B     		ldr	r3, .L27+24
 196 0050 0020     		movs	r0, #0
 197 0052 185E     		ldrsh	r0, [r3, r0]
 198              	.LVL27:
 199 0054 FA23     		movs	r3, #250
 200 0056 9B00     		lsls	r3, r3, #2
 201 0058 5843     		muls	r0, r3
 202              	.LVL28:
 298:main.c        ****             break;
 203              		.loc 1 298 0
 204 005a 3CE0     		b	.L25
 205              	.LVL29:
 206              	.L16:
 299:main.c        ****         
 300:main.c        ****         case(ACCEL_Y):
 301:main.c        ****             //int32 (signed). Acceleration in m/s/s * 1000
 302:main.c        ****             data = (int32_t) (linear_accel_data_y * 1000);
 207              		.loc 1 302 0
 208 005c 314B     		ldr	r3, .L27+28
 209 005e 0020     		movs	r0, #0
 210 0060 185E     		ldrsh	r0, [r3, r0]
ARM GAS  C:\Users\TT\AppData\Local\Temp\ccOvo8nX.s 			page 10


 211              	.LVL30:
 212 0062 FA23     		movs	r3, #250
 213 0064 9B00     		lsls	r3, r3, #2
 214 0066 5843     		muls	r0, r3
 215              	.LVL31:
 303:main.c        ****             break;
 216              		.loc 1 303 0
 217 0068 35E0     		b	.L25
 218              	.LVL32:
 219              	.L17:
 304:main.c        ****         
 305:main.c        ****         case(ACCEL_Z):
 306:main.c        ****             //int32 (signed). Acceleration in m/s/s * 1000
 307:main.c        ****             data = (int32_t) (linear_accel_data_z * 1000);
 220              		.loc 1 307 0
 221 006a 2F4B     		ldr	r3, .L27+32
 222 006c 0020     		movs	r0, #0
 223 006e 185E     		ldrsh	r0, [r3, r0]
 224              	.LVL33:
 225 0070 FA23     		movs	r3, #250
 226 0072 9B00     		lsls	r3, r3, #2
 227 0074 5843     		muls	r0, r3
 228              	.LVL34:
 308:main.c        ****             break;
 229              		.loc 1 308 0
 230 0076 2EE0     		b	.L25
 231              	.LVL35:
 232              	.L18:
 309:main.c        ****         
 310:main.c        ****         case(GYRO_X):
 311:main.c        ****             //int32 (signed). Degrees per second * 1000
 312:main.c        ****             data = (int32_t) d_gyro_datax * 1000;
 233              		.loc 1 312 0
 234 0078 2C4B     		ldr	r3, .L27+36
 235 007a 1868     		ldr	r0, [r3]
 236 007c 5968     		ldr	r1, [r3, #4]
 237              	.LVL36:
 238 007e FFF7FEFF 		bl	__aeabi_d2iz
 239              	.LVL37:
 240 0082 FA23     		movs	r3, #250
 241 0084 9B00     		lsls	r3, r3, #2
 242 0086 5843     		muls	r0, r3
 243              	.LVL38:
 313:main.c        ****             break;
 244              		.loc 1 313 0
 245 0088 25E0     		b	.L25
 246              	.LVL39:
 247              	.L19:
 314:main.c        ****         
 315:main.c        ****         case(GYRO_Y):
 316:main.c        ****             //int32 (signed). Degrees per second * 1000
 317:main.c        ****             data = (int32_t) d_gyro_datax * 1000;
 248              		.loc 1 317 0
 249 008a 284B     		ldr	r3, .L27+36
 250 008c 1868     		ldr	r0, [r3]
 251 008e 5968     		ldr	r1, [r3, #4]
 252              	.LVL40:
ARM GAS  C:\Users\TT\AppData\Local\Temp\ccOvo8nX.s 			page 11


 253 0090 FFF7FEFF 		bl	__aeabi_d2iz
 254              	.LVL41:
 255 0094 FA23     		movs	r3, #250
 256 0096 9B00     		lsls	r3, r3, #2
 257 0098 5843     		muls	r0, r3
 258              	.LVL42:
 318:main.c        ****             break;
 259              		.loc 1 318 0
 260 009a 1CE0     		b	.L25
 261              	.LVL43:
 262              	.L20:
 319:main.c        ****         
 320:main.c        ****         case(GYRO_Z):
 321:main.c        ****             //int32 (signed). Degrees per second * 1000
 322:main.c        ****             data = (int32_t) d_gyro_datax * 1000;
 263              		.loc 1 322 0
 264 009c 234B     		ldr	r3, .L27+36
 265 009e 1868     		ldr	r0, [r3]
 266 00a0 5968     		ldr	r1, [r3, #4]
 267              	.LVL44:
 268 00a2 FFF7FEFF 		bl	__aeabi_d2iz
 269              	.LVL45:
 270 00a6 FA23     		movs	r3, #250
 271 00a8 9B00     		lsls	r3, r3, #2
 272 00aa 5843     		muls	r0, r3
 273              	.LVL46:
 323:main.c        ****             break;
 274              		.loc 1 323 0
 275 00ac 13E0     		b	.L25
 276              	.LVL47:
 277              	.L21:
 324:main.c        ****         
 325:main.c        ****         case(QUAT_W):
 326:main.c        ****             data = (int32_t) quaternion_data_w;
 278              		.loc 1 326 0
 279 00ae 204B     		ldr	r3, .L27+40
 280 00b0 0020     		movs	r0, #0
 281 00b2 185E     		ldrsh	r0, [r3, r0]
 282              	.LVL48:
 327:main.c        ****             break;
 283              		.loc 1 327 0
 284 00b4 0FE0     		b	.L25
 285              	.LVL49:
 286              	.L22:
 328:main.c        ****             
 329:main.c        ****         case(QUAT_X):
 330:main.c        ****             data = (int32_t) quaternion_data_x;
 287              		.loc 1 330 0
 288 00b6 1F4B     		ldr	r3, .L27+44
 289 00b8 0020     		movs	r0, #0
 290 00ba 185E     		ldrsh	r0, [r3, r0]
 291              	.LVL50:
 331:main.c        ****             break;
 292              		.loc 1 331 0
 293 00bc 0BE0     		b	.L25
 294              	.LVL51:
 295              	.L23:
ARM GAS  C:\Users\TT\AppData\Local\Temp\ccOvo8nX.s 			page 12


 332:main.c        ****             
 333:main.c        ****         case(QUAT_Y):
 334:main.c        ****             data = (int32_t) quaternion_data_y;
 296              		.loc 1 334 0
 297 00be 1E4B     		ldr	r3, .L27+48
 298 00c0 0020     		movs	r0, #0
 299 00c2 185E     		ldrsh	r0, [r3, r0]
 300              	.LVL52:
 335:main.c        ****             break;
 301              		.loc 1 335 0
 302 00c4 07E0     		b	.L25
 303              	.LVL53:
 304              	.L24:
 336:main.c        ****             
 337:main.c        ****         case(QUAT_Z):
 338:main.c        ****             data = (int32_t) quaternion_data_z;
 305              		.loc 1 338 0
 306 00c6 1D4B     		ldr	r3, .L27+52
 307 00c8 0020     		movs	r0, #0
 308 00ca 185E     		ldrsh	r0, [r3, r0]
 309              	.LVL54:
 339:main.c        ****             break;
 310              		.loc 1 339 0
 311 00cc 03E0     		b	.L25
 312              	.LVL55:
 313              	.L10:
 340:main.c        ****         default:
 341:main.c        ****             Print("Cannot Send That Data Type!\n\r");
 314              		.loc 1 341 0
 315 00ce 1C48     		ldr	r0, .L27+56
 316              	.LVL56:
 317 00d0 FFF7FEFF 		bl	DBG_UART_UartPutString
 318              	.LVL57:
 278:main.c        ****     
 319              		.loc 1 278 0
 320 00d4 0020     		movs	r0, #0
 321              	.LVL58:
 322              	.L25:
 342:main.c        ****     }   
 343:main.c        ****     
 344:main.c        ****     CANPacket send;
 345:main.c        ****     
 346:main.c        ****     AssembleSendDataPacket(&send, DEVICE_GROUP_JETSON, DEVICE_SERIAL_JETSON, TTC, data);
 323              		.loc 1 346 0
 324 00d6 E3B2     		uxtb	r3, r4
 325 00d8 0090     		str	r0, [sp]
 326 00da 0122     		movs	r2, #1
 327 00dc 0221     		movs	r1, #2
 328 00de 03A8     		add	r0, sp, #12
 329              	.LVL59:
 330 00e0 FFF7FEFF 		bl	AssembleSendDataPacket
 331              	.LVL60:
 347:main.c        ****     int check = SendCANPacket( &send );
 332              		.loc 1 347 0
 333 00e4 03A8     		add	r0, sp, #12
 334 00e6 FFF7FEFF 		bl	SendCANPacket
 335              	.LVL61:
ARM GAS  C:\Users\TT\AppData\Local\Temp\ccOvo8nX.s 			page 13


 348:main.c        ****     
 349:main.c        ****     if (check == ERROR_NONE){
 336              		.loc 1 349 0
 337 00ea 0028     		cmp	r0, #0
 338 00ec 09D1     		bne	.L9
 350:main.c        ****         BlinkDBG();
 339              		.loc 1 350 0
 340 00ee FFF7FEFF 		bl	DBG_Read
 341              	.LVL62:
 342 00f2 4342     		rsbs	r3, r0, #0
 343 00f4 5841     		adcs	r0, r0, r3
 344 00f6 C0B2     		uxtb	r0, r0
 345 00f8 FFF7FEFF 		bl	DBG_Write
 346              	.LVL63:
 351:main.c        ****         CyDelay(50);
 347              		.loc 1 351 0
 348 00fc 3220     		movs	r0, #50
 349 00fe FFF7FEFF 		bl	CyDelay
 350              	.LVL64:
 351              	.L9:
 352:main.c        ****     }
 353:main.c        **** }
 352              		.loc 1 353 0
 353 0102 06B0     		add	sp, sp, #24
 354              		@ sp needed
 355              	.LVL65:
 356 0104 10BD     		pop	{r4, pc}
 357              	.L28:
 358 0106 C046     		.align	2
 359              	.L27:
 360 0108 00000000 		.word	.L12
 361 010c 00000000 		.word	d_euler_data_h
 362 0110 00000000 		.word	gpsData
 363 0114 0000B442 		.word	1119092736
 364 0118 80969800 		.word	10000000
 365 011c 00003443 		.word	1127481344
 366 0120 00000000 		.word	linear_accel_data_x
 367 0124 00000000 		.word	linear_accel_data_y
 368 0128 00000000 		.word	linear_accel_data_z
 369 012c 00000000 		.word	d_gyro_datax
 370 0130 00000000 		.word	quaternion_data_w
 371 0134 00000000 		.word	quaternion_data_x
 372 0138 00000000 		.word	quaternion_data_y
 373 013c 00000000 		.word	quaternion_data_z
 374 0140 00000000 		.word	.LC11
 375              		.cfi_endproc
 376              	.LFE36:
 377              		.size	sendRequestedData, .-sendRequestedData
 378              		.section	.text.readOperationMode,"ax",%progbits
 379              		.align	2
 380              		.global	readOperationMode
 381              		.code	16
 382              		.thumb_func
 383              		.type	readOperationMode, %function
 384              	readOperationMode:
 385              	.LFB37:
 354:main.c        **** 
ARM GAS  C:\Users\TT\AppData\Local\Temp\ccOvo8nX.s 			page 14


 355:main.c        **** void readOperationMode () 
 356:main.c        **** {
 386              		.loc 1 356 0
 387              		.cfi_startproc
 388              		@ args = 0, pretend = 0, frame = 8
 389              		@ frame_needed = 0, uses_anonymous_args = 0
 390 0000 00B5     		push	{lr}
 391              		.cfi_def_cfa_offset 4
 392              		.cfi_offset 14, -4
 393 0002 83B0     		sub	sp, sp, #12
 394              		.cfi_def_cfa_offset 16
 357:main.c        ****     uint8_t mode;
 358:main.c        ****     
 359:main.c        ****     if (!bno055_get_operation_mode(&mode)) {
 395              		.loc 1 359 0
 396 0004 6B46     		mov	r3, sp
 397 0006 D81D     		adds	r0, r3, #7
 398 0008 FFF7FEFF 		bl	bno055_get_operation_mode
 399              	.LVL66:
 400 000c 0028     		cmp	r0, #0
 401 000e 0DD1     		bne	.L29
 360:main.c        ****      
 361:main.c        ****         Print("Operation Mode: ");
 402              		.loc 1 361 0
 403 0010 0748     		ldr	r0, .L31
 404 0012 FFF7FEFF 		bl	DBG_UART_UartPutString
 405              	.LVL67:
 362:main.c        ****         PrintInt(mode);
 406              		.loc 1 362 0
 407 0016 6B46     		mov	r3, sp
 408 0018 D879     		ldrb	r0, [r3, #7]
 409 001a 0A22     		movs	r2, #10
 410 001c 0549     		ldr	r1, .L31+4
 411 001e FFF7FEFF 		bl	itoa
 412              	.LVL68:
 413 0022 FFF7FEFF 		bl	DBG_UART_UartPutString
 414              	.LVL69:
 363:main.c        ****         Print("\r\n\r\n");
 415              		.loc 1 363 0
 416 0026 0448     		ldr	r0, .L31+8
 417 0028 FFF7FEFF 		bl	DBG_UART_UartPutString
 418              	.LVL70:
 419              	.L29:
 364:main.c        ****         
 365:main.c        ****         /*
 366:main.c        ****         
 367:main.c        ****         CANPacket send;
 368:main.c        ****         
 369:main.c        ****         AssembleSendOprModePacket(&send, DEVICE_GROUP_JETSON, DEVICE_SERIAL_JETSON, mode);
 370:main.c        ****         
 371:main.c        ****         int check = SendCANPacket (&send);
 372:main.c        **** 
 373:main.c        ****         if (check == ERROR_NONE){
 374:main.c        ****         BlinkDBG();
 375:main.c        ****         CyDelay(50);
 376:main.c        ****         }
 377:main.c        ****         
ARM GAS  C:\Users\TT\AppData\Local\Temp\ccOvo8nX.s 			page 15


 378:main.c        ****         */
 379:main.c        ****     
 380:main.c        ****     }
 381:main.c        ****     
 382:main.c        **** }
 420              		.loc 1 382 0
 421 002c 03B0     		add	sp, sp, #12
 422              		@ sp needed
 423 002e 00BD     		pop	{pc}
 424              	.L32:
 425              		.align	2
 426              	.L31:
 427 0030 20000000 		.word	.LC13
 428 0034 00000000 		.word	debugOutput
 429 0038 34000000 		.word	.LC16
 430              		.cfi_endproc
 431              	.LFE37:
 432              		.size	readOperationMode, .-readOperationMode
 433              		.section	.text.writeOperationMode,"ax",%progbits
 434              		.align	2
 435              		.global	writeOperationMode
 436              		.code	16
 437              		.thumb_func
 438              		.type	writeOperationMode, %function
 439              	writeOperationMode:
 440              	.LFB38:
 383:main.c        **** 
 384:main.c        **** void writeOperationMode (uint8_t mode)
 385:main.c        **** {
 441              		.loc 1 385 0
 442              		.cfi_startproc
 443              		@ args = 0, pretend = 0, frame = 0
 444              		@ frame_needed = 0, uses_anonymous_args = 0
 445              	.LVL71:
 446 0000 10B5     		push	{r4, lr}
 447              		.cfi_def_cfa_offset 8
 448              		.cfi_offset 4, -8
 449              		.cfi_offset 14, -4
 450 0002 0400     		movs	r4, r0
 386:main.c        ****     
 387:main.c        ****     Print("Writing Operation Mode\r\n\r\n");
 451              		.loc 1 387 0
 452 0004 0948     		ldr	r0, .L35
 453              	.LVL72:
 454 0006 FFF7FEFF 		bl	DBG_UART_UartPutString
 455              	.LVL73:
 388:main.c        ****     
 389:main.c        ****     if(bno055_set_operation_mode(mode)) {
 456              		.loc 1 389 0
 457 000a 2000     		movs	r0, r4
 458 000c FFF7FEFF 		bl	bno055_set_operation_mode
 459              	.LVL74:
 460 0010 0028     		cmp	r0, #0
 461 0012 09D0     		beq	.L33
 390:main.c        ****      
 391:main.c        ****         BlinkDBG();
 462              		.loc 1 391 0
ARM GAS  C:\Users\TT\AppData\Local\Temp\ccOvo8nX.s 			page 16


 463 0014 FFF7FEFF 		bl	DBG_Read
 464              	.LVL75:
 465 0018 4342     		rsbs	r3, r0, #0
 466 001a 5841     		adcs	r0, r0, r3
 467 001c C0B2     		uxtb	r0, r0
 468 001e FFF7FEFF 		bl	DBG_Write
 469              	.LVL76:
 392:main.c        ****         CyDelay(50);
 470              		.loc 1 392 0
 471 0022 3220     		movs	r0, #50
 472 0024 FFF7FEFF 		bl	CyDelay
 473              	.LVL77:
 474              	.L33:
 393:main.c        ****         
 394:main.c        ****     }
 395:main.c        ****     
 396:main.c        **** }
 475              		.loc 1 396 0
 476              		@ sp needed
 477 0028 10BD     		pop	{r4, pc}
 478              	.L36:
 479 002a C046     		.align	2
 480              	.L35:
 481 002c 3C000000 		.word	.LC18
 482              		.cfi_endproc
 483              	.LFE38:
 484              		.size	writeOperationMode, .-writeOperationMode
 485              		.section	.text.queryCalibrationStatus,"ax",%progbits
 486              		.align	2
 487              		.global	queryCalibrationStatus
 488              		.code	16
 489              		.thumb_func
 490              		.type	queryCalibrationStatus, %function
 491              	queryCalibrationStatus:
 492              	.LFB39:
 397:main.c        **** 
 398:main.c        **** void queryCalibrationStatus()
 399:main.c        **** {
 493              		.loc 1 399 0
 494              		.cfi_startproc
 495              		@ args = 0, pretend = 0, frame = 8
 496              		@ frame_needed = 0, uses_anonymous_args = 0
 497 0000 00B5     		push	{lr}
 498              		.cfi_def_cfa_offset 4
 499              		.cfi_offset 14, -4
 500 0002 83B0     		sub	sp, sp, #12
 501              		.cfi_def_cfa_offset 16
 400:main.c        ****     
 401:main.c        ****     uint8_t calibStat;
 402:main.c        ****     
 403:main.c        ****     if (!bno055_get_sys_calib_stat(&calibStat)) {
 502              		.loc 1 403 0
 503 0004 6B46     		mov	r3, sp
 504 0006 D81D     		adds	r0, r3, #7
 505 0008 FFF7FEFF 		bl	bno055_get_sys_calib_stat
 506              	.LVL78:
 507 000c 0028     		cmp	r0, #0
ARM GAS  C:\Users\TT\AppData\Local\Temp\ccOvo8nX.s 			page 17


 508 000e 0DD1     		bne	.L37
 404:main.c        ****      
 405:main.c        ****         Print("CalibStat: ");
 509              		.loc 1 405 0
 510 0010 0748     		ldr	r0, .L39
 511 0012 FFF7FEFF 		bl	DBG_UART_UartPutString
 512              	.LVL79:
 406:main.c        ****         PrintInt(calibStat);
 513              		.loc 1 406 0
 514 0016 6B46     		mov	r3, sp
 515 0018 D879     		ldrb	r0, [r3, #7]
 516 001a 0A22     		movs	r2, #10
 517 001c 0549     		ldr	r1, .L39+4
 518 001e FFF7FEFF 		bl	itoa
 519              	.LVL80:
 520 0022 FFF7FEFF 		bl	DBG_UART_UartPutString
 521              	.LVL81:
 407:main.c        ****         Print("\r\n\r\n");
 522              		.loc 1 407 0
 523 0026 0448     		ldr	r0, .L39+8
 524 0028 FFF7FEFF 		bl	DBG_UART_UartPutString
 525              	.LVL82:
 526              	.L37:
 408:main.c        ****         
 409:main.c        ****         /*
 410:main.c        ****         
 411:main.c        ****         CANPacket send;
 412:main.c        ****         
 413:main.c        ****         AssembleSendCalibStatPacket(&send, DEVICE_GROUP_JETSON, DEVICE_SERIAL_JETSON, calibStat);
 414:main.c        ****         
 415:main.c        ****         int check = SendCANPacket (&send);
 416:main.c        **** 
 417:main.c        ****         if (check == ERROR_NONE){
 418:main.c        ****         BlinkDBG();
 419:main.c        ****         CyDelay(50);
 420:main.c        ****         }
 421:main.c        ****         
 422:main.c        ****         */
 423:main.c        ****     
 424:main.c        ****     }
 425:main.c        ****     
 426:main.c        ****     
 427:main.c        **** }
 527              		.loc 1 427 0
 528 002c 03B0     		add	sp, sp, #12
 529              		@ sp needed
 530 002e 00BD     		pop	{pc}
 531              	.L40:
 532              		.align	2
 533              	.L39:
 534 0030 58000000 		.word	.LC20
 535 0034 00000000 		.word	debugOutput
 536 0038 34000000 		.word	.LC16
 537              		.cfi_endproc
 538              	.LFE39:
 539              		.size	queryCalibrationStatus, .-queryCalibrationStatus
 540              		.section	.text.readAccOffset,"ax",%progbits
ARM GAS  C:\Users\TT\AppData\Local\Temp\ccOvo8nX.s 			page 18


 541              		.align	2
 542              		.global	readAccOffset
 543              		.code	16
 544              		.thumb_func
 545              		.type	readAccOffset, %function
 546              	readAccOffset:
 547              	.LFB40:
 428:main.c        **** 
 429:main.c        **** void readAccOffset()
 430:main.c        **** {
 548              		.loc 1 430 0
 549              		.cfi_startproc
 550              		@ args = 0, pretend = 0, frame = 8
 551              		@ frame_needed = 0, uses_anonymous_args = 0
 552 0000 10B5     		push	{r4, lr}
 553              		.cfi_def_cfa_offset 8
 554              		.cfi_offset 4, -8
 555              		.cfi_offset 14, -4
 556 0002 82B0     		sub	sp, sp, #8
 557              		.cfi_def_cfa_offset 16
 431:main.c        ****     struct bno055_accel_offset_t offset;
 432:main.c        ****     
 433:main.c        ****     if (!bno055_read_accel_offset(&offset)) {
 558              		.loc 1 433 0
 559 0004 6846     		mov	r0, sp
 560 0006 FFF7FEFF 		bl	bno055_read_accel_offset
 561              	.LVL83:
 562 000a 0028     		cmp	r0, #0
 563 000c 2AD1     		bne	.L41
 434:main.c        ****         
 435:main.c        ****         Print("Acceleration Offset\r\n");
 564              		.loc 1 435 0
 565 000e 1648     		ldr	r0, .L43
 566 0010 FFF7FEFF 		bl	DBG_UART_UartPutString
 567              	.LVL84:
 436:main.c        ****         Print("X Offset: ");
 568              		.loc 1 436 0
 569 0014 1548     		ldr	r0, .L43+4
 570 0016 FFF7FEFF 		bl	DBG_UART_UartPutString
 571              	.LVL85:
 437:main.c        ****         PrintInt(offset.x);
 572              		.loc 1 437 0
 573 001a 6B46     		mov	r3, sp
 574 001c 0020     		movs	r0, #0
 575 001e 185E     		ldrsh	r0, [r3, r0]
 576 0020 134C     		ldr	r4, .L43+8
 577 0022 0A22     		movs	r2, #10
 578 0024 2100     		movs	r1, r4
 579 0026 FFF7FEFF 		bl	itoa
 580              	.LVL86:
 581 002a FFF7FEFF 		bl	DBG_UART_UartPutString
 582              	.LVL87:
 438:main.c        ****         Print(", Y Offset: ");
 583              		.loc 1 438 0
 584 002e 1148     		ldr	r0, .L43+12
 585 0030 FFF7FEFF 		bl	DBG_UART_UartPutString
 586              	.LVL88:
ARM GAS  C:\Users\TT\AppData\Local\Temp\ccOvo8nX.s 			page 19


 439:main.c        ****         PrintInt(offset.y);
 587              		.loc 1 439 0
 588 0034 6B46     		mov	r3, sp
 589 0036 0220     		movs	r0, #2
 590 0038 185E     		ldrsh	r0, [r3, r0]
 591 003a 0A22     		movs	r2, #10
 592 003c 2100     		movs	r1, r4
 593 003e FFF7FEFF 		bl	itoa
 594              	.LVL89:
 595 0042 FFF7FEFF 		bl	DBG_UART_UartPutString
 596              	.LVL90:
 440:main.c        ****         Print(", Z Offset: ");
 597              		.loc 1 440 0
 598 0046 0C48     		ldr	r0, .L43+16
 599 0048 FFF7FEFF 		bl	DBG_UART_UartPutString
 600              	.LVL91:
 441:main.c        ****         PrintInt(offset.z);
 601              		.loc 1 441 0
 602 004c 6B46     		mov	r3, sp
 603 004e 0420     		movs	r0, #4
 604 0050 185E     		ldrsh	r0, [r3, r0]
 605 0052 0A22     		movs	r2, #10
 606 0054 2100     		movs	r1, r4
 607 0056 FFF7FEFF 		bl	itoa
 608              	.LVL92:
 609 005a FFF7FEFF 		bl	DBG_UART_UartPutString
 610              	.LVL93:
 442:main.c        ****         Print("\r\n\r\n");
 611              		.loc 1 442 0
 612 005e 0748     		ldr	r0, .L43+20
 613 0060 FFF7FEFF 		bl	DBG_UART_UartPutString
 614              	.LVL94:
 615              	.L41:
 443:main.c        ****         
 444:main.c        ****         /*
 445:main.c        ****         
 446:main.c        ****         CANPacket send;
 447:main.c        ****         
 448:main.c        ****         AssembleSendAccOffsetPacket(&send, DEVICE_GROUP_JETSON, DEVICE_SERIAL_JETSON, offset.x, off
 449:main.c        ****         
 450:main.c        ****         int check = SendCANPacket (&send);
 451:main.c        **** 
 452:main.c        ****         if (check == ERROR_NONE){
 453:main.c        ****         BlinkDBG();
 454:main.c        ****         CyDelay(50);
 455:main.c        ****         }
 456:main.c        ****         
 457:main.c        ****         */
 458:main.c        ****         
 459:main.c        ****     }
 460:main.c        ****     
 461:main.c        **** }
 616              		.loc 1 461 0
 617 0064 02B0     		add	sp, sp, #8
 618              		@ sp needed
 619 0066 10BD     		pop	{r4, pc}
 620              	.L44:
ARM GAS  C:\Users\TT\AppData\Local\Temp\ccOvo8nX.s 			page 20


 621              		.align	2
 622              	.L43:
 623 0068 64000000 		.word	.LC24
 624 006c 7C000000 		.word	.LC26
 625 0070 00000000 		.word	debugOutput
 626 0074 88000000 		.word	.LC29
 627 0078 98000000 		.word	.LC31
 628 007c 34000000 		.word	.LC16
 629              		.cfi_endproc
 630              	.LFE40:
 631              		.size	readAccOffset, .-readAccOffset
 632              		.section	.text.readMagOffset,"ax",%progbits
 633              		.align	2
 634              		.global	readMagOffset
 635              		.code	16
 636              		.thumb_func
 637              		.type	readMagOffset, %function
 638              	readMagOffset:
 639              	.LFB41:
 462:main.c        **** 
 463:main.c        **** 
 464:main.c        **** 
 465:main.c        **** void readMagOffset()
 466:main.c        **** {
 640              		.loc 1 466 0
 641              		.cfi_startproc
 642              		@ args = 0, pretend = 0, frame = 8
 643              		@ frame_needed = 0, uses_anonymous_args = 0
 644 0000 10B5     		push	{r4, lr}
 645              		.cfi_def_cfa_offset 8
 646              		.cfi_offset 4, -8
 647              		.cfi_offset 14, -4
 648 0002 82B0     		sub	sp, sp, #8
 649              		.cfi_def_cfa_offset 16
 467:main.c        **** 
 468:main.c        ****     struct bno055_mag_offset_t offset;
 469:main.c        ****     
 470:main.c        ****     if (!bno055_read_mag_offset(&offset)) {
 650              		.loc 1 470 0
 651 0004 6846     		mov	r0, sp
 652 0006 FFF7FEFF 		bl	bno055_read_mag_offset
 653              	.LVL95:
 654 000a 0028     		cmp	r0, #0
 655 000c 2AD1     		bne	.L45
 471:main.c        ****      
 472:main.c        ****         Print("Magnetometer Offset\r\n");
 656              		.loc 1 472 0
 657 000e 1648     		ldr	r0, .L47
 658 0010 FFF7FEFF 		bl	DBG_UART_UartPutString
 659              	.LVL96:
 473:main.c        ****         Print("X Offset: ");
 660              		.loc 1 473 0
 661 0014 1548     		ldr	r0, .L47+4
 662 0016 FFF7FEFF 		bl	DBG_UART_UartPutString
 663              	.LVL97:
 474:main.c        ****         PrintInt(offset.x);
 664              		.loc 1 474 0
ARM GAS  C:\Users\TT\AppData\Local\Temp\ccOvo8nX.s 			page 21


 665 001a 6B46     		mov	r3, sp
 666 001c 0020     		movs	r0, #0
 667 001e 185E     		ldrsh	r0, [r3, r0]
 668 0020 134C     		ldr	r4, .L47+8
 669 0022 0A22     		movs	r2, #10
 670 0024 2100     		movs	r1, r4
 671 0026 FFF7FEFF 		bl	itoa
 672              	.LVL98:
 673 002a FFF7FEFF 		bl	DBG_UART_UartPutString
 674              	.LVL99:
 475:main.c        ****         Print(", Y Offset: ");
 675              		.loc 1 475 0
 676 002e 1148     		ldr	r0, .L47+12
 677 0030 FFF7FEFF 		bl	DBG_UART_UartPutString
 678              	.LVL100:
 476:main.c        ****         PrintInt(offset.y);
 679              		.loc 1 476 0
 680 0034 6B46     		mov	r3, sp
 681 0036 0220     		movs	r0, #2
 682 0038 185E     		ldrsh	r0, [r3, r0]
 683 003a 0A22     		movs	r2, #10
 684 003c 2100     		movs	r1, r4
 685 003e FFF7FEFF 		bl	itoa
 686              	.LVL101:
 687 0042 FFF7FEFF 		bl	DBG_UART_UartPutString
 688              	.LVL102:
 477:main.c        ****         Print(", Z Offset: ");
 689              		.loc 1 477 0
 690 0046 0C48     		ldr	r0, .L47+16
 691 0048 FFF7FEFF 		bl	DBG_UART_UartPutString
 692              	.LVL103:
 478:main.c        ****         PrintInt(offset.z);
 693              		.loc 1 478 0
 694 004c 6B46     		mov	r3, sp
 695 004e 0420     		movs	r0, #4
 696 0050 185E     		ldrsh	r0, [r3, r0]
 697 0052 0A22     		movs	r2, #10
 698 0054 2100     		movs	r1, r4
 699 0056 FFF7FEFF 		bl	itoa
 700              	.LVL104:
 701 005a FFF7FEFF 		bl	DBG_UART_UartPutString
 702              	.LVL105:
 479:main.c        ****         Print("\r\n\r\n");
 703              		.loc 1 479 0
 704 005e 0748     		ldr	r0, .L47+20
 705 0060 FFF7FEFF 		bl	DBG_UART_UartPutString
 706              	.LVL106:
 707              	.L45:
 480:main.c        ****         
 481:main.c        ****         /*
 482:main.c        ****         
 483:main.c        ****         CANPacket send;
 484:main.c        ****         
 485:main.c        ****         AssembleSendMagOffsetPacket(&send, DEVICE_GROUP_JETSON, DEVICE_SERIAL_JETSON, offset.x, off
 486:main.c        ****         
 487:main.c        ****         int check = SendCANPacket (&send);
 488:main.c        **** 
ARM GAS  C:\Users\TT\AppData\Local\Temp\ccOvo8nX.s 			page 22


 489:main.c        ****         if (check == ERROR_NONE){
 490:main.c        ****         BlinkDBG();
 491:main.c        ****         CyDelay(50);
 492:main.c        ****         }
 493:main.c        ****         
 494:main.c        ****         */
 495:main.c        ****         
 496:main.c        ****     }
 497:main.c        ****     
 498:main.c        **** }
 708              		.loc 1 498 0
 709 0064 02B0     		add	sp, sp, #8
 710              		@ sp needed
 711 0066 10BD     		pop	{r4, pc}
 712              	.L48:
 713              		.align	2
 714              	.L47:
 715 0068 A8000000 		.word	.LC34
 716 006c 7C000000 		.word	.LC26
 717 0070 00000000 		.word	debugOutput
 718 0074 88000000 		.word	.LC29
 719 0078 98000000 		.word	.LC31
 720 007c 34000000 		.word	.LC16
 721              		.cfi_endproc
 722              	.LFE41:
 723              		.size	readMagOffset, .-readMagOffset
 724              		.section	.text.readGyroOffset,"ax",%progbits
 725              		.align	2
 726              		.global	readGyroOffset
 727              		.code	16
 728              		.thumb_func
 729              		.type	readGyroOffset, %function
 730              	readGyroOffset:
 731              	.LFB42:
 499:main.c        **** 
 500:main.c        **** 
 501:main.c        **** void readGyroOffset()
 502:main.c        **** {
 732              		.loc 1 502 0
 733              		.cfi_startproc
 734              		@ args = 0, pretend = 0, frame = 8
 735              		@ frame_needed = 0, uses_anonymous_args = 0
 736 0000 10B5     		push	{r4, lr}
 737              		.cfi_def_cfa_offset 8
 738              		.cfi_offset 4, -8
 739              		.cfi_offset 14, -4
 740 0002 82B0     		sub	sp, sp, #8
 741              		.cfi_def_cfa_offset 16
 503:main.c        **** 
 504:main.c        ****     struct bno055_gyro_offset_t offset;
 505:main.c        ****     
 506:main.c        ****     if (!bno055_read_gyro_offset(&offset)) {
 742              		.loc 1 506 0
 743 0004 6846     		mov	r0, sp
 744 0006 FFF7FEFF 		bl	bno055_read_gyro_offset
 745              	.LVL107:
 746 000a 0028     		cmp	r0, #0
ARM GAS  C:\Users\TT\AppData\Local\Temp\ccOvo8nX.s 			page 23


 747 000c 2AD1     		bne	.L49
 507:main.c        ****      
 508:main.c        ****         Print("Gyro Offset\r\n");
 748              		.loc 1 508 0
 749 000e 1648     		ldr	r0, .L51
 750 0010 FFF7FEFF 		bl	DBG_UART_UartPutString
 751              	.LVL108:
 509:main.c        ****         Print("X Offset: ");
 752              		.loc 1 509 0
 753 0014 1548     		ldr	r0, .L51+4
 754 0016 FFF7FEFF 		bl	DBG_UART_UartPutString
 755              	.LVL109:
 510:main.c        ****         PrintInt(offset.x);
 756              		.loc 1 510 0
 757 001a 6B46     		mov	r3, sp
 758 001c 0020     		movs	r0, #0
 759 001e 185E     		ldrsh	r0, [r3, r0]
 760 0020 134C     		ldr	r4, .L51+8
 761 0022 0A22     		movs	r2, #10
 762 0024 2100     		movs	r1, r4
 763 0026 FFF7FEFF 		bl	itoa
 764              	.LVL110:
 765 002a FFF7FEFF 		bl	DBG_UART_UartPutString
 766              	.LVL111:
 511:main.c        ****         Print(", Y Offset: ");
 767              		.loc 1 511 0
 768 002e 1148     		ldr	r0, .L51+12
 769 0030 FFF7FEFF 		bl	DBG_UART_UartPutString
 770              	.LVL112:
 512:main.c        ****         PrintInt(offset.y);
 771              		.loc 1 512 0
 772 0034 6B46     		mov	r3, sp
 773 0036 0220     		movs	r0, #2
 774 0038 185E     		ldrsh	r0, [r3, r0]
 775 003a 0A22     		movs	r2, #10
 776 003c 2100     		movs	r1, r4
 777 003e FFF7FEFF 		bl	itoa
 778              	.LVL113:
 779 0042 FFF7FEFF 		bl	DBG_UART_UartPutString
 780              	.LVL114:
 513:main.c        ****         Print(", Z Offset: ");
 781              		.loc 1 513 0
 782 0046 0C48     		ldr	r0, .L51+16
 783 0048 FFF7FEFF 		bl	DBG_UART_UartPutString
 784              	.LVL115:
 514:main.c        ****         PrintInt(offset.z);
 785              		.loc 1 514 0
 786 004c 6B46     		mov	r3, sp
 787 004e 0420     		movs	r0, #4
 788 0050 185E     		ldrsh	r0, [r3, r0]
 789 0052 0A22     		movs	r2, #10
 790 0054 2100     		movs	r1, r4
 791 0056 FFF7FEFF 		bl	itoa
 792              	.LVL116:
 793 005a FFF7FEFF 		bl	DBG_UART_UartPutString
 794              	.LVL117:
 515:main.c        ****         Print("\r\n\r\n");
ARM GAS  C:\Users\TT\AppData\Local\Temp\ccOvo8nX.s 			page 24


 795              		.loc 1 515 0
 796 005e 0748     		ldr	r0, .L51+20
 797 0060 FFF7FEFF 		bl	DBG_UART_UartPutString
 798              	.LVL118:
 799              	.L49:
 516:main.c        ****         
 517:main.c        ****         /*
 518:main.c        ****         
 519:main.c        ****         CANPacket send;
 520:main.c        ****         
 521:main.c        ****         AssembleSendGyroOffsetPacket(&send, DEVICE_GROUP_JETSON, DEVICE_SERIAL_JETSON, offset.x, of
 522:main.c        ****         
 523:main.c        ****         int check = SendCANPacket (&send);
 524:main.c        **** 
 525:main.c        ****         if (check == ERROR_NONE){
 526:main.c        ****         BlinkDBG();
 527:main.c        ****         CyDelay(50);
 528:main.c        ****         }
 529:main.c        ****         
 530:main.c        ****         */
 531:main.c        ****         
 532:main.c        ****     }
 533:main.c        ****     
 534:main.c        **** }
 800              		.loc 1 534 0
 801 0064 02B0     		add	sp, sp, #8
 802              		@ sp needed
 803 0066 10BD     		pop	{r4, pc}
 804              	.L52:
 805              		.align	2
 806              	.L51:
 807 0068 C0000000 		.word	.LC41
 808 006c 7C000000 		.word	.LC26
 809 0070 00000000 		.word	debugOutput
 810 0074 88000000 		.word	.LC29
 811 0078 98000000 		.word	.LC31
 812 007c 34000000 		.word	.LC16
 813              		.cfi_endproc
 814              	.LFE42:
 815              		.size	readGyroOffset, .-readGyroOffset
 816              		.section	.text.readRadiusOffset,"ax",%progbits
 817              		.align	2
 818              		.global	readRadiusOffset
 819              		.code	16
 820              		.thumb_func
 821              		.type	readRadiusOffset, %function
 822              	readRadiusOffset:
 823              	.LFB43:
 535:main.c        **** 
 536:main.c        **** 
 537:main.c        **** void readRadiusOffset()
 538:main.c        **** {
 824              		.loc 1 538 0
 825              		.cfi_startproc
 826              		@ args = 0, pretend = 0, frame = 16
 827              		@ frame_needed = 0, uses_anonymous_args = 0
 828 0000 10B5     		push	{r4, lr}
ARM GAS  C:\Users\TT\AppData\Local\Temp\ccOvo8nX.s 			page 25


 829              		.cfi_def_cfa_offset 8
 830              		.cfi_offset 4, -8
 831              		.cfi_offset 14, -4
 832 0002 84B0     		sub	sp, sp, #16
 833              		.cfi_def_cfa_offset 24
 539:main.c        **** 
 540:main.c        ****     struct bno055_accel_offset_t accOffset;
 541:main.c        ****     struct bno055_mag_offset_t magOffset;
 542:main.c        ****     
 543:main.c        ****     if (!bno055_read_accel_offset(&accOffset) && !bno055_read_mag_offset(&magOffset)) {
 834              		.loc 1 543 0
 835 0004 02A8     		add	r0, sp, #8
 836 0006 FFF7FEFF 		bl	bno055_read_accel_offset
 837              	.LVL119:
 838 000a 0028     		cmp	r0, #0
 839 000c 23D1     		bne	.L53
 840              		.loc 1 543 0 is_stmt 0 discriminator 1
 841 000e 6846     		mov	r0, sp
 842 0010 FFF7FEFF 		bl	bno055_read_mag_offset
 843              	.LVL120:
 844 0014 0028     		cmp	r0, #0
 845 0016 1ED1     		bne	.L53
 544:main.c        ****      
 545:main.c        ****         Print("Radius Offset\r\n");
 846              		.loc 1 545 0 is_stmt 1
 847 0018 1048     		ldr	r0, .L55
 848 001a FFF7FEFF 		bl	DBG_UART_UartPutString
 849              	.LVL121:
 546:main.c        ****         
 547:main.c        ****         Print("AccOffset: ");
 850              		.loc 1 547 0
 851 001e 1048     		ldr	r0, .L55+4
 852 0020 FFF7FEFF 		bl	DBG_UART_UartPutString
 853              	.LVL122:
 548:main.c        ****         PrintInt(accOffset.r);
 854              		.loc 1 548 0
 855 0024 02AB     		add	r3, sp, #8
 856 0026 0620     		movs	r0, #6
 857 0028 185E     		ldrsh	r0, [r3, r0]
 858 002a 0E4C     		ldr	r4, .L55+8
 859 002c 0A22     		movs	r2, #10
 860 002e 2100     		movs	r1, r4
 861 0030 FFF7FEFF 		bl	itoa
 862              	.LVL123:
 863 0034 FFF7FEFF 		bl	DBG_UART_UartPutString
 864              	.LVL124:
 549:main.c        ****         Print(", MagOffset: ");
 865              		.loc 1 549 0
 866 0038 0B48     		ldr	r0, .L55+12
 867 003a FFF7FEFF 		bl	DBG_UART_UartPutString
 868              	.LVL125:
 550:main.c        ****         PrintInt(magOffset.r);
 869              		.loc 1 550 0
 870 003e 6B46     		mov	r3, sp
 871 0040 0620     		movs	r0, #6
 872 0042 185E     		ldrsh	r0, [r3, r0]
 873 0044 0A22     		movs	r2, #10
ARM GAS  C:\Users\TT\AppData\Local\Temp\ccOvo8nX.s 			page 26


 874 0046 2100     		movs	r1, r4
 875 0048 FFF7FEFF 		bl	itoa
 876              	.LVL126:
 877 004c FFF7FEFF 		bl	DBG_UART_UartPutString
 878              	.LVL127:
 551:main.c        ****         Print("\r\n\r\n");
 879              		.loc 1 551 0
 880 0050 0648     		ldr	r0, .L55+16
 881 0052 FFF7FEFF 		bl	DBG_UART_UartPutString
 882              	.LVL128:
 883              	.L53:
 552:main.c        ****         
 553:main.c        ****         
 554:main.c        ****         /*
 555:main.c        ****         
 556:main.c        ****         CANPacket send;
 557:main.c        ****         
 558:main.c        ****         AssembleSendRadiusOffsetPacket(&send, DEVICE_GROUP_JETSON, DEVICE_SERIAL_JETSON, accOffset.
 559:main.c        ****         
 560:main.c        ****         int check = SendCANPacket (&send);
 561:main.c        **** 
 562:main.c        ****         if (check == ERROR_NONE){
 563:main.c        ****         BlinkDBG();
 564:main.c        ****         CyDelay(50);
 565:main.c        ****         }
 566:main.c        ****         
 567:main.c        ****         */
 568:main.c        ****         
 569:main.c        ****     }
 570:main.c        ****     
 571:main.c        **** }
 884              		.loc 1 571 0
 885 0056 04B0     		add	sp, sp, #16
 886              		@ sp needed
 887 0058 10BD     		pop	{r4, pc}
 888              	.L56:
 889 005a C046     		.align	2
 890              	.L55:
 891 005c D0000000 		.word	.LC48
 892 0060 E0000000 		.word	.LC50
 893 0064 00000000 		.word	debugOutput
 894 0068 EC000000 		.word	.LC53
 895 006c 34000000 		.word	.LC16
 896              		.cfi_endproc
 897              	.LFE43:
 898              		.size	readRadiusOffset, .-readRadiusOffset
 899              		.section	.text.writeAccOffset,"ax",%progbits
 900              		.align	2
 901              		.global	writeAccOffset
 902              		.code	16
 903              		.thumb_func
 904              		.type	writeAccOffset, %function
 905              	writeAccOffset:
 906              	.LFB44:
 572:main.c        **** 
 573:main.c        **** 
 574:main.c        **** void writeAccOffset(int16_t xOffset, int16_t yOffset, int16_t zOffset)
ARM GAS  C:\Users\TT\AppData\Local\Temp\ccOvo8nX.s 			page 27


 575:main.c        **** {
 907              		.loc 1 575 0
 908              		.cfi_startproc
 909              		@ args = 0, pretend = 0, frame = 8
 910              		@ frame_needed = 0, uses_anonymous_args = 0
 911              	.LVL129:
 912 0000 70B5     		push	{r4, r5, r6, lr}
 913              		.cfi_def_cfa_offset 16
 914              		.cfi_offset 4, -16
 915              		.cfi_offset 5, -12
 916              		.cfi_offset 6, -8
 917              		.cfi_offset 14, -4
 918 0002 82B0     		sub	sp, sp, #8
 919              		.cfi_def_cfa_offset 24
 920 0004 0600     		movs	r6, r0
 921 0006 0D00     		movs	r5, r1
 922 0008 1400     		movs	r4, r2
 576:main.c        ****     
 577:main.c        ****     struct bno055_accel_offset_t offset;
 578:main.c        ****     
 579:main.c        ****     Print("Writing Acceleration Offset\r\n\r\n");
 923              		.loc 1 579 0
 924 000a 0E48     		ldr	r0, .L59
 925              	.LVL130:
 926 000c FFF7FEFF 		bl	DBG_UART_UartPutString
 927              	.LVL131:
 580:main.c        ****     
 581:main.c        ****     if (!bno055_read_accel_offset(&offset)) {
 928              		.loc 1 581 0
 929 0010 6846     		mov	r0, sp
 930 0012 FFF7FEFF 		bl	bno055_read_accel_offset
 931              	.LVL132:
 932 0016 0028     		cmp	r0, #0
 933 0018 12D1     		bne	.L57
 582:main.c        ****      
 583:main.c        ****         offset.x = xOffset;
 934              		.loc 1 583 0
 935 001a 6B46     		mov	r3, sp
 936 001c 1E80     		strh	r6, [r3]
 584:main.c        ****         offset.y = yOffset;
 937              		.loc 1 584 0
 938 001e 5D80     		strh	r5, [r3, #2]
 585:main.c        ****         offset.z = zOffset;
 939              		.loc 1 585 0
 940 0020 9C80     		strh	r4, [r3, #4]
 586:main.c        ****         
 587:main.c        ****         if (bno055_write_accel_offset(&offset)) {
 941              		.loc 1 587 0
 942 0022 6846     		mov	r0, sp
 943 0024 FFF7FEFF 		bl	bno055_write_accel_offset
 944              	.LVL133:
 945 0028 0028     		cmp	r0, #0
 946 002a 09D0     		beq	.L57
 588:main.c        ****          
 589:main.c        ****             BlinkDBG();
 947              		.loc 1 589 0
 948 002c FFF7FEFF 		bl	DBG_Read
ARM GAS  C:\Users\TT\AppData\Local\Temp\ccOvo8nX.s 			page 28


 949              	.LVL134:
 950 0030 4342     		rsbs	r3, r0, #0
 951 0032 5841     		adcs	r0, r0, r3
 952 0034 C0B2     		uxtb	r0, r0
 953 0036 FFF7FEFF 		bl	DBG_Write
 954              	.LVL135:
 590:main.c        ****             CyDelay(50);
 955              		.loc 1 590 0
 956 003a 3220     		movs	r0, #50
 957 003c FFF7FEFF 		bl	CyDelay
 958              	.LVL136:
 959              	.L57:
 591:main.c        ****             
 592:main.c        ****         }
 593:main.c        ****         
 594:main.c        ****     }
 595:main.c        ****     
 596:main.c        **** }
 960              		.loc 1 596 0
 961 0040 02B0     		add	sp, sp, #8
 962              		@ sp needed
 963 0042 70BD     		pop	{r4, r5, r6, pc}
 964              	.L60:
 965              		.align	2
 966              	.L59:
 967 0044 FC000000 		.word	.LC56
 968              		.cfi_endproc
 969              	.LFE44:
 970              		.size	writeAccOffset, .-writeAccOffset
 971              		.section	.text.writeMagOffset,"ax",%progbits
 972              		.align	2
 973              		.global	writeMagOffset
 974              		.code	16
 975              		.thumb_func
 976              		.type	writeMagOffset, %function
 977              	writeMagOffset:
 978              	.LFB45:
 597:main.c        **** 
 598:main.c        **** void writeMagOffset(int16_t xOffset, int16_t yOffset, int16_t zOffset)
 599:main.c        **** {
 979              		.loc 1 599 0
 980              		.cfi_startproc
 981              		@ args = 0, pretend = 0, frame = 8
 982              		@ frame_needed = 0, uses_anonymous_args = 0
 983              	.LVL137:
 984 0000 70B5     		push	{r4, r5, r6, lr}
 985              		.cfi_def_cfa_offset 16
 986              		.cfi_offset 4, -16
 987              		.cfi_offset 5, -12
 988              		.cfi_offset 6, -8
 989              		.cfi_offset 14, -4
 990 0002 82B0     		sub	sp, sp, #8
 991              		.cfi_def_cfa_offset 24
 992 0004 0600     		movs	r6, r0
 993 0006 0D00     		movs	r5, r1
 994 0008 1400     		movs	r4, r2
 600:main.c        ****     
ARM GAS  C:\Users\TT\AppData\Local\Temp\ccOvo8nX.s 			page 29


 601:main.c        ****     Print("Writing Mag Offset\r\n\r\n");
 995              		.loc 1 601 0
 996 000a 0E48     		ldr	r0, .L63
 997              	.LVL138:
 998 000c FFF7FEFF 		bl	DBG_UART_UartPutString
 999              	.LVL139:
 602:main.c        ****     
 603:main.c        ****     struct bno055_mag_offset_t offset;
 604:main.c        ****     
 605:main.c        ****     if (!bno055_read_mag_offset(&offset)) {
 1000              		.loc 1 605 0
 1001 0010 6846     		mov	r0, sp
 1002 0012 FFF7FEFF 		bl	bno055_read_mag_offset
 1003              	.LVL140:
 1004 0016 0028     		cmp	r0, #0
 1005 0018 12D1     		bne	.L61
 606:main.c        ****      
 607:main.c        ****         offset.x = xOffset;
 1006              		.loc 1 607 0
 1007 001a 6B46     		mov	r3, sp
 1008 001c 1E80     		strh	r6, [r3]
 608:main.c        ****         offset.y = yOffset;
 1009              		.loc 1 608 0
 1010 001e 5D80     		strh	r5, [r3, #2]
 609:main.c        ****         offset.z = zOffset;
 1011              		.loc 1 609 0
 1012 0020 9C80     		strh	r4, [r3, #4]
 610:main.c        ****         
 611:main.c        ****         if (bno055_write_mag_offset(&offset)) {
 1013              		.loc 1 611 0
 1014 0022 6846     		mov	r0, sp
 1015 0024 FFF7FEFF 		bl	bno055_write_mag_offset
 1016              	.LVL141:
 1017 0028 0028     		cmp	r0, #0
 1018 002a 09D0     		beq	.L61
 612:main.c        ****          
 613:main.c        ****             BlinkDBG();
 1019              		.loc 1 613 0
 1020 002c FFF7FEFF 		bl	DBG_Read
 1021              	.LVL142:
 1022 0030 4342     		rsbs	r3, r0, #0
 1023 0032 5841     		adcs	r0, r0, r3
 1024 0034 C0B2     		uxtb	r0, r0
 1025 0036 FFF7FEFF 		bl	DBG_Write
 1026              	.LVL143:
 614:main.c        ****             CyDelay(50);
 1027              		.loc 1 614 0
 1028 003a 3220     		movs	r0, #50
 1029 003c FFF7FEFF 		bl	CyDelay
 1030              	.LVL144:
 1031              	.L61:
 615:main.c        ****             
 616:main.c        ****         }
 617:main.c        ****         
 618:main.c        ****     }
 619:main.c        ****     
 620:main.c        **** }
ARM GAS  C:\Users\TT\AppData\Local\Temp\ccOvo8nX.s 			page 30


 1032              		.loc 1 620 0
 1033 0040 02B0     		add	sp, sp, #8
 1034              		@ sp needed
 1035 0042 70BD     		pop	{r4, r5, r6, pc}
 1036              	.L64:
 1037              		.align	2
 1038              	.L63:
 1039 0044 1C010000 		.word	.LC58
 1040              		.cfi_endproc
 1041              	.LFE45:
 1042              		.size	writeMagOffset, .-writeMagOffset
 1043              		.section	.text.writeGyroOffset,"ax",%progbits
 1044              		.align	2
 1045              		.global	writeGyroOffset
 1046              		.code	16
 1047              		.thumb_func
 1048              		.type	writeGyroOffset, %function
 1049              	writeGyroOffset:
 1050              	.LFB46:
 621:main.c        **** 
 622:main.c        **** void writeGyroOffset(int16_t xOffset, int16_t yOffset, int16_t zOffset)
 623:main.c        **** {
 1051              		.loc 1 623 0
 1052              		.cfi_startproc
 1053              		@ args = 0, pretend = 0, frame = 8
 1054              		@ frame_needed = 0, uses_anonymous_args = 0
 1055              	.LVL145:
 1056 0000 70B5     		push	{r4, r5, r6, lr}
 1057              		.cfi_def_cfa_offset 16
 1058              		.cfi_offset 4, -16
 1059              		.cfi_offset 5, -12
 1060              		.cfi_offset 6, -8
 1061              		.cfi_offset 14, -4
 1062 0002 82B0     		sub	sp, sp, #8
 1063              		.cfi_def_cfa_offset 24
 1064 0004 0600     		movs	r6, r0
 1065 0006 0D00     		movs	r5, r1
 1066 0008 1400     		movs	r4, r2
 624:main.c        **** 
 625:main.c        ****     Print("Writing Gyro Offset\r\n\r\n");
 1067              		.loc 1 625 0
 1068 000a 0C48     		ldr	r0, .L67
 1069              	.LVL146:
 1070 000c FFF7FEFF 		bl	DBG_UART_UartPutString
 1071              	.LVL147:
 626:main.c        ****     
 627:main.c        ****     struct bno055_gyro_offset_t offset = {xOffset, yOffset, zOffset};
 1072              		.loc 1 627 0
 1073 0010 6B46     		mov	r3, sp
 1074 0012 1E80     		strh	r6, [r3]
 1075 0014 5D80     		strh	r5, [r3, #2]
 1076 0016 9C80     		strh	r4, [r3, #4]
 628:main.c        ****     
 629:main.c        ****     if (bno055_write_gyro_offset(&offset)) {
 1077              		.loc 1 629 0
 1078 0018 6846     		mov	r0, sp
 1079 001a FFF7FEFF 		bl	bno055_write_gyro_offset
ARM GAS  C:\Users\TT\AppData\Local\Temp\ccOvo8nX.s 			page 31


 1080              	.LVL148:
 1081 001e 0028     		cmp	r0, #0
 1082 0020 09D0     		beq	.L65
 630:main.c        ****      
 631:main.c        ****         BlinkDBG();
 1083              		.loc 1 631 0
 1084 0022 FFF7FEFF 		bl	DBG_Read
 1085              	.LVL149:
 1086 0026 4342     		rsbs	r3, r0, #0
 1087 0028 5841     		adcs	r0, r0, r3
 1088 002a C0B2     		uxtb	r0, r0
 1089 002c FFF7FEFF 		bl	DBG_Write
 1090              	.LVL150:
 632:main.c        ****         CyDelay(50);
 1091              		.loc 1 632 0
 1092 0030 3220     		movs	r0, #50
 1093 0032 FFF7FEFF 		bl	CyDelay
 1094              	.LVL151:
 1095              	.L65:
 633:main.c        ****         
 634:main.c        ****     }
 635:main.c        ****     
 636:main.c        **** }
 1096              		.loc 1 636 0
 1097 0036 02B0     		add	sp, sp, #8
 1098              		@ sp needed
 1099 0038 70BD     		pop	{r4, r5, r6, pc}
 1100              	.L68:
 1101 003a C046     		.align	2
 1102              	.L67:
 1103 003c 34010000 		.word	.LC60
 1104              		.cfi_endproc
 1105              	.LFE46:
 1106              		.size	writeGyroOffset, .-writeGyroOffset
 1107              		.section	.text.writeRadiusOffset,"ax",%progbits
 1108              		.align	2
 1109              		.global	writeRadiusOffset
 1110              		.code	16
 1111              		.thumb_func
 1112              		.type	writeRadiusOffset, %function
 1113              	writeRadiusOffset:
 1114              	.LFB47:
 637:main.c        **** 
 638:main.c        **** 
 639:main.c        **** void writeRadiusOffset(int16_t accOffset, int16_t magOffset)
 640:main.c        **** {
 1115              		.loc 1 640 0
 1116              		.cfi_startproc
 1117              		@ args = 0, pretend = 0, frame = 16
 1118              		@ frame_needed = 0, uses_anonymous_args = 0
 1119              	.LVL152:
 1120 0000 F0B5     		push	{r4, r5, r6, r7, lr}
 1121              		.cfi_def_cfa_offset 20
 1122              		.cfi_offset 4, -20
 1123              		.cfi_offset 5, -16
 1124              		.cfi_offset 6, -12
 1125              		.cfi_offset 7, -8
ARM GAS  C:\Users\TT\AppData\Local\Temp\ccOvo8nX.s 			page 32


 1126              		.cfi_offset 14, -4
 1127 0002 85B0     		sub	sp, sp, #20
 1128              		.cfi_def_cfa_offset 40
 1129 0004 0600     		movs	r6, r0
 1130 0006 0D00     		movs	r5, r1
 641:main.c        ****     
 642:main.c        ****     struct bno055_accel_offset_t acc;
 643:main.c        ****     
 644:main.c        ****     struct bno055_mag_offset_t mag;
 645:main.c        ****     
 646:main.c        ****     Print("Writing Radius Offset\r\n\r\n");
 1131              		.loc 1 646 0
 1132 0008 5748     		ldr	r0, .L73
 1133              	.LVL153:
 1134 000a FFF7FEFF 		bl	DBG_UART_UartPutString
 1135              	.LVL154:
 647:main.c        ****     
 648:main.c        ****     if (!bno055_read_accel_offset(&acc) && !bno055_read_mag_offset(&mag)) {
 1136              		.loc 1 648 0
 1137 000e 02A8     		add	r0, sp, #8
 1138 0010 FFF7FEFF 		bl	bno055_read_accel_offset
 1139              	.LVL155:
 1140 0014 0028     		cmp	r0, #0
 1141 0016 00D0     		beq	.LCB999
 1142 0018 A3E0     		b	.L69	@long jump
 1143              	.LCB999:
 1144              		.loc 1 648 0 is_stmt 0 discriminator 1
 1145 001a 6846     		mov	r0, sp
 1146 001c FFF7FEFF 		bl	bno055_read_mag_offset
 1147              	.LVL156:
 1148 0020 0028     		cmp	r0, #0
 1149 0022 00D0     		beq	.LCB1004
 1150 0024 9DE0     		b	.L69	@long jump
 1151              	.LCB1004:
 649:main.c        ****         
 650:main.c        ****         acc.r = accOffset;
 1152              		.loc 1 650 0 is_stmt 1
 1153 0026 02AC     		add	r4, sp, #8
 1154 0028 E680     		strh	r6, [r4, #6]
 651:main.c        ****         acc.x = 10;
 1155              		.loc 1 651 0
 1156 002a 0A23     		movs	r3, #10
 1157 002c 2380     		strh	r3, [r4]
 652:main.c        ****         acc.y = 20;
 1158              		.loc 1 652 0
 1159 002e 0A33     		adds	r3, r3, #10
 1160 0030 6380     		strh	r3, [r4, #2]
 653:main.c        ****         acc.z = 30;
 1161              		.loc 1 653 0
 1162 0032 0A33     		adds	r3, r3, #10
 1163 0034 A380     		strh	r3, [r4, #4]
 654:main.c        ****         
 655:main.c        ****         mag.r = magOffset;
 1164              		.loc 1 655 0
 1165 0036 6B46     		mov	r3, sp
 1166 0038 DD80     		strh	r5, [r3, #6]
 656:main.c        ****         mag.x = 40;
ARM GAS  C:\Users\TT\AppData\Local\Temp\ccOvo8nX.s 			page 33


 1167              		.loc 1 656 0
 1168 003a 2823     		movs	r3, #40
 1169 003c 6A46     		mov	r2, sp
 1170 003e 1380     		strh	r3, [r2]
 657:main.c        ****         mag.y = 50;
 1171              		.loc 1 657 0
 1172 0040 0A33     		adds	r3, r3, #10
 1173 0042 5380     		strh	r3, [r2, #2]
 658:main.c        ****         mag.z = 60;
 1174              		.loc 1 658 0
 1175 0044 0A33     		adds	r3, r3, #10
 1176 0046 9380     		strh	r3, [r2, #4]
 659:main.c        ****         
 660:main.c        ****         Print("Acc Offset\r\n");
 1177              		.loc 1 660 0
 1178 0048 4848     		ldr	r0, .L73+4
 1179 004a FFF7FEFF 		bl	DBG_UART_UartPutString
 1180              	.LVL157:
 661:main.c        ****         Print("X Offset: ");
 1181              		.loc 1 661 0
 1182 004e 484F     		ldr	r7, .L73+8
 1183 0050 3800     		movs	r0, r7
 1184 0052 FFF7FEFF 		bl	DBG_UART_UartPutString
 1185              	.LVL158:
 662:main.c        ****         PrintInt(acc.x);
 1186              		.loc 1 662 0
 1187 0056 0023     		movs	r3, #0
 1188 0058 E05E     		ldrsh	r0, [r4, r3]
 1189 005a 464D     		ldr	r5, .L73+12
 1190 005c 0A22     		movs	r2, #10
 1191 005e 2900     		movs	r1, r5
 1192 0060 FFF7FEFF 		bl	itoa
 1193              	.LVL159:
 1194 0064 FFF7FEFF 		bl	DBG_UART_UartPutString
 1195              	.LVL160:
 663:main.c        ****         Print(", Y Offset: ");
 1196              		.loc 1 663 0
 1197 0068 434E     		ldr	r6, .L73+16
 1198 006a 3000     		movs	r0, r6
 1199 006c FFF7FEFF 		bl	DBG_UART_UartPutString
 1200              	.LVL161:
 664:main.c        ****         PrintInt(acc.y);
 1201              		.loc 1 664 0
 1202 0070 0223     		movs	r3, #2
 1203 0072 E05E     		ldrsh	r0, [r4, r3]
 1204 0074 0A22     		movs	r2, #10
 1205 0076 2900     		movs	r1, r5
 1206 0078 FFF7FEFF 		bl	itoa
 1207              	.LVL162:
 1208 007c FFF7FEFF 		bl	DBG_UART_UartPutString
 1209              	.LVL163:
 665:main.c        ****         Print(", Z Offset: ");
 1210              		.loc 1 665 0
 1211 0080 3E48     		ldr	r0, .L73+20
 1212 0082 FFF7FEFF 		bl	DBG_UART_UartPutString
 1213              	.LVL164:
 666:main.c        ****         PrintInt(acc.z);
ARM GAS  C:\Users\TT\AppData\Local\Temp\ccOvo8nX.s 			page 34


 1214              		.loc 1 666 0
 1215 0086 0423     		movs	r3, #4
 1216 0088 E05E     		ldrsh	r0, [r4, r3]
 1217 008a 0A22     		movs	r2, #10
 1218 008c 2900     		movs	r1, r5
 1219 008e FFF7FEFF 		bl	itoa
 1220              	.LVL165:
 1221 0092 FFF7FEFF 		bl	DBG_UART_UartPutString
 1222              	.LVL166:
 667:main.c        ****         Print(", R Offset: ");
 1223              		.loc 1 667 0
 1224 0096 3A48     		ldr	r0, .L73+24
 1225 0098 FFF7FEFF 		bl	DBG_UART_UartPutString
 1226              	.LVL167:
 668:main.c        ****         PrintInt(acc.r);
 1227              		.loc 1 668 0
 1228 009c 0623     		movs	r3, #6
 1229 009e E05E     		ldrsh	r0, [r4, r3]
 1230 00a0 0A22     		movs	r2, #10
 1231 00a2 2900     		movs	r1, r5
 1232 00a4 FFF7FEFF 		bl	itoa
 1233              	.LVL168:
 1234 00a8 FFF7FEFF 		bl	DBG_UART_UartPutString
 1235              	.LVL169:
 669:main.c        ****         Print("\r\n\r\n");
 1236              		.loc 1 669 0
 1237 00ac 3548     		ldr	r0, .L73+28
 1238 00ae FFF7FEFF 		bl	DBG_UART_UartPutString
 1239              	.LVL170:
 670:main.c        ****         
 671:main.c        ****         Print("Mag Offset\r\n");
 1240              		.loc 1 671 0
 1241 00b2 3548     		ldr	r0, .L73+32
 1242 00b4 FFF7FEFF 		bl	DBG_UART_UartPutString
 1243              	.LVL171:
 672:main.c        ****         Print("X Offset: ");
 1244              		.loc 1 672 0
 1245 00b8 3800     		movs	r0, r7
 1246 00ba FFF7FEFF 		bl	DBG_UART_UartPutString
 1247              	.LVL172:
 673:main.c        ****         PrintInt(mag.x);
 1248              		.loc 1 673 0
 1249 00be 6B46     		mov	r3, sp
 1250 00c0 0020     		movs	r0, #0
 1251 00c2 185E     		ldrsh	r0, [r3, r0]
 1252 00c4 0A22     		movs	r2, #10
 1253 00c6 2900     		movs	r1, r5
 1254 00c8 FFF7FEFF 		bl	itoa
 1255              	.LVL173:
 1256 00cc FFF7FEFF 		bl	DBG_UART_UartPutString
 1257              	.LVL174:
 674:main.c        ****         Print(", Y Offset: ");
 1258              		.loc 1 674 0
 1259 00d0 3000     		movs	r0, r6
 1260 00d2 FFF7FEFF 		bl	DBG_UART_UartPutString
 1261              	.LVL175:
 675:main.c        ****         PrintInt(mag.y);
ARM GAS  C:\Users\TT\AppData\Local\Temp\ccOvo8nX.s 			page 35


 1262              		.loc 1 675 0
 1263 00d6 6B46     		mov	r3, sp
 1264 00d8 0220     		movs	r0, #2
 1265 00da 185E     		ldrsh	r0, [r3, r0]
 1266 00dc 0A22     		movs	r2, #10
 1267 00de 2900     		movs	r1, r5
 1268 00e0 FFF7FEFF 		bl	itoa
 1269              	.LVL176:
 1270 00e4 FFF7FEFF 		bl	DBG_UART_UartPutString
 1271              	.LVL177:
 676:main.c        ****         Print(", Z Offset: ");
 1272              		.loc 1 676 0
 1273 00e8 2448     		ldr	r0, .L73+20
 1274 00ea FFF7FEFF 		bl	DBG_UART_UartPutString
 1275              	.LVL178:
 677:main.c        ****         PrintInt(mag.z);
 1276              		.loc 1 677 0
 1277 00ee 6B46     		mov	r3, sp
 1278 00f0 0420     		movs	r0, #4
 1279 00f2 185E     		ldrsh	r0, [r3, r0]
 1280 00f4 0A22     		movs	r2, #10
 1281 00f6 2900     		movs	r1, r5
 1282 00f8 FFF7FEFF 		bl	itoa
 1283              	.LVL179:
 1284 00fc FFF7FEFF 		bl	DBG_UART_UartPutString
 1285              	.LVL180:
 678:main.c        ****         Print(", R Offset: ");
 1286              		.loc 1 678 0
 1287 0100 1F48     		ldr	r0, .L73+24
 1288 0102 FFF7FEFF 		bl	DBG_UART_UartPutString
 1289              	.LVL181:
 679:main.c        ****         PrintInt(mag.r);
 1290              		.loc 1 679 0
 1291 0106 6B46     		mov	r3, sp
 1292 0108 0620     		movs	r0, #6
 1293 010a 185E     		ldrsh	r0, [r3, r0]
 1294 010c 0A22     		movs	r2, #10
 1295 010e 2900     		movs	r1, r5
 1296 0110 FFF7FEFF 		bl	itoa
 1297              	.LVL182:
 1298 0114 FFF7FEFF 		bl	DBG_UART_UartPutString
 1299              	.LVL183:
 680:main.c        ****         Print("\r\n\r\n");       
 1300              		.loc 1 680 0
 1301 0118 1A48     		ldr	r0, .L73+28
 1302 011a FFF7FEFF 		bl	DBG_UART_UartPutString
 1303              	.LVL184:
 681:main.c        ****         
 682:main.c        ****         if (bno055_write_accel_offset(&acc)) {
 1304              		.loc 1 682 0
 1305 011e 2000     		movs	r0, r4
 1306 0120 FFF7FEFF 		bl	bno055_write_accel_offset
 1307              	.LVL185:
 1308 0124 0028     		cmp	r0, #0
 1309 0126 09D0     		beq	.L71
 683:main.c        ****          
 684:main.c        ****             BlinkDBG();
ARM GAS  C:\Users\TT\AppData\Local\Temp\ccOvo8nX.s 			page 36


 1310              		.loc 1 684 0
 1311 0128 FFF7FEFF 		bl	DBG_Read
 1312              	.LVL186:
 1313 012c 4342     		rsbs	r3, r0, #0
 1314 012e 5841     		adcs	r0, r0, r3
 1315 0130 C0B2     		uxtb	r0, r0
 1316 0132 FFF7FEFF 		bl	DBG_Write
 1317              	.LVL187:
 685:main.c        ****             CyDelay(50);
 1318              		.loc 1 685 0
 1319 0136 3220     		movs	r0, #50
 1320 0138 FFF7FEFF 		bl	CyDelay
 1321              	.LVL188:
 1322              	.L71:
 686:main.c        ****             
 687:main.c        ****         }
 688:main.c        ****         
 689:main.c        ****         readAccOffset();
 1323              		.loc 1 689 0
 1324 013c FFF7FEFF 		bl	readAccOffset
 1325              	.LVL189:
 690:main.c        ****         
 691:main.c        ****         if (bno055_write_mag_offset(&mag)) {
 1326              		.loc 1 691 0
 1327 0140 6846     		mov	r0, sp
 1328 0142 FFF7FEFF 		bl	bno055_write_mag_offset
 1329              	.LVL190:
 1330 0146 0028     		cmp	r0, #0
 1331 0148 09D0     		beq	.L72
 692:main.c        ****          
 693:main.c        ****             BlinkDBG();
 1332              		.loc 1 693 0
 1333 014a FFF7FEFF 		bl	DBG_Read
 1334              	.LVL191:
 1335 014e 4342     		rsbs	r3, r0, #0
 1336 0150 5841     		adcs	r0, r0, r3
 1337 0152 C0B2     		uxtb	r0, r0
 1338 0154 FFF7FEFF 		bl	DBG_Write
 1339              	.LVL192:
 694:main.c        ****             CyDelay(50);
 1340              		.loc 1 694 0
 1341 0158 3220     		movs	r0, #50
 1342 015a FFF7FEFF 		bl	CyDelay
 1343              	.LVL193:
 1344              	.L72:
 695:main.c        ****             
 696:main.c        ****         }
 697:main.c        ****         
 698:main.c        ****         readMagOffset();
 1345              		.loc 1 698 0
 1346 015e FFF7FEFF 		bl	readMagOffset
 1347              	.LVL194:
 1348              	.L69:
 699:main.c        ****         
 700:main.c        ****     }
 701:main.c        ****     
 702:main.c        **** }
ARM GAS  C:\Users\TT\AppData\Local\Temp\ccOvo8nX.s 			page 37


 1349              		.loc 1 702 0
 1350 0162 05B0     		add	sp, sp, #20
 1351              		@ sp needed
 1352 0164 F0BD     		pop	{r4, r5, r6, r7, pc}
 1353              	.L74:
 1354 0166 C046     		.align	2
 1355              	.L73:
 1356 0168 4C010000 		.word	.LC62
 1357 016c 68010000 		.word	.LC64
 1358 0170 7C000000 		.word	.LC26
 1359 0174 00000000 		.word	debugOutput
 1360 0178 88000000 		.word	.LC29
 1361 017c 98000000 		.word	.LC31
 1362 0180 78010000 		.word	.LC70
 1363 0184 34000000 		.word	.LC16
 1364 0188 88010000 		.word	.LC73
 1365              		.cfi_endproc
 1366              	.LFE47:
 1367              		.size	writeRadiusOffset, .-writeRadiusOffset
 1368              		.section	.text.main,"ax",%progbits
 1369              		.align	2
 1370              		.global	main
 1371              		.code	16
 1372              		.thumb_func
 1373              		.type	main, %function
 1374              	main:
 1375              	.LFB34:
  13:main.c        ****     CyGlobalIntEnable; /* Enable global interrupts. */ 
 1376              		.loc 1 13 0
 1377              		.cfi_startproc
 1378              		@ args = 0, pretend = 0, frame = 0
 1379              		@ frame_needed = 0, uses_anonymous_args = 0
 1380 0000 10B5     		push	{r4, lr}
 1381              		.cfi_def_cfa_offset 8
 1382              		.cfi_offset 4, -8
 1383              		.cfi_offset 14, -4
  14:main.c        ****     DBG_UART_Start();
 1384              		.loc 1 14 0
 1385              		.syntax divided
 1386              	@ 14 "main.c" 1
 1387 0002 62B6     		CPSIE   i
 1388              	@ 0 "" 2
  15:main.c        ****     InitCAN(DEVICE_GROUP_IMU, getSerialAddress() );
 1389              		.loc 1 15 0
 1390              		.thumb
 1391              		.syntax unified
 1392 0004 FFF7FEFF 		bl	DBG_UART_Start
 1393              	.LVL195:
  16:main.c        ****     gps_init();    
 1394              		.loc 1 16 0
 1395 0008 FFF7FEFF 		bl	getSerialAddress
 1396              	.LVL196:
 1397 000c 0100     		movs	r1, r0
 1398 000e 0820     		movs	r0, #8
 1399 0010 FFF7FEFF 		bl	InitCAN
 1400              	.LVL197:
  17:main.c        ****     imu_init();
ARM GAS  C:\Users\TT\AppData\Local\Temp\ccOvo8nX.s 			page 38


 1401              		.loc 1 17 0
 1402 0014 FFF7FEFF 		bl	gps_init
 1403              	.LVL198:
  18:main.c        ****            
 1404              		.loc 1 18 0
 1405 0018 FFF7FEFF 		bl	imu_init
 1406              	.LVL199:
  20:main.c        ****     Print("\r\n***************\r\nIMU BOARD INITIALIZED\n\r***************\r\n");
 1407              		.loc 1 20 0
 1408 001c 0F48     		ldr	r0, .L79
 1409 001e FFF7FEFF 		bl	DBG_UART_UartPutString
 1410              	.LVL200:
  21:main.c        ****     
 1411              		.loc 1 21 0
 1412 0022 0F48     		ldr	r0, .L79+4
 1413 0024 FFF7FEFF 		bl	DBG_UART_UartPutString
 1414              	.LVL201:
  23:main.c        ****     writeMagOffset(4, 5, 6);
 1415              		.loc 1 23 0
 1416 0028 0322     		movs	r2, #3
 1417 002a 0221     		movs	r1, #2
 1418 002c 0120     		movs	r0, #1
 1419 002e FFF7FEFF 		bl	writeAccOffset
 1420              	.LVL202:
  24:main.c        ****     
 1421              		.loc 1 24 0
 1422 0032 0622     		movs	r2, #6
 1423 0034 0521     		movs	r1, #5
 1424 0036 0420     		movs	r0, #4
 1425 0038 FFF7FEFF 		bl	writeMagOffset
 1426              	.LVL203:
  28:main.c        ****    
 1427              		.loc 1 28 0
 1428 003c 0124     		movs	r4, #1
 1429 003e 09E0     		b	.L76
 1430              	.LVL204:
 1431              	.L77:
  30:main.c        ****         readRadiusOffset();
 1432              		.loc 1 30 0 discriminator 3
 1433 0040 A300     		lsls	r3, r4, #2
 1434 0042 E318     		adds	r3, r4, r3
 1435 0044 5800     		lsls	r0, r3, #1
 1436 0046 00B2     		sxth	r0, r0
 1437 0048 0100     		movs	r1, r0
 1438 004a FFF7FEFF 		bl	writeRadiusOffset
 1439              	.LVL205:
  31:main.c        ****         
 1440              		.loc 1 31 0 discriminator 3
 1441 004e FFF7FEFF 		bl	readRadiusOffset
 1442              	.LVL206:
  28:main.c        ****    
 1443              		.loc 1 28 0 discriminator 3
 1444 0052 0134     		adds	r4, r4, #1
 1445              	.LVL207:
 1446              	.L76:
  28:main.c        ****    
 1447              		.loc 1 28 0 is_stmt 0 discriminator 1
ARM GAS  C:\Users\TT\AppData\Local\Temp\ccOvo8nX.s 			page 39


 1448 0054 052C     		cmp	r4, #5
 1449 0056 F3DD     		ble	.L77
 1450              	.L78:
 1451 0058 FEE7     		b	.L78
 1452              	.L80:
 1453 005a C046     		.align	2
 1454              	.L79:
 1455 005c 98010000 		.word	.LC75
 1456 0060 9C010000 		.word	.LC77
 1457              		.cfi_endproc
 1458              	.LFE34:
 1459              		.size	main, .-main
 1460              		.comm	receive,12,4
 1461              		.comm	send,12,4
 1462              		.comm	gpsData,12,4
 1463              		.comm	gpsRawData,38,4
 1464              		.global	state
 1465              		.comm	d_gravity_xyz,24,8
 1466              		.comm	d_gravity_data_z,8,8
 1467              		.comm	d_gravity_data_y,8,8
 1468              		.comm	d_gravity_data_x,8,8
 1469              		.comm	d_linear_accel_xyz,24,8
 1470              		.comm	d_linear_accel_dataz,8,8
 1471              		.comm	d_linear_accel_datay,8,8
 1472              		.comm	d_linear_accel_datax,8,8
 1473              		.comm	d_euler_hpr,24,8
 1474              		.comm	d_euler_data_p,8,8
 1475              		.comm	d_euler_data_r,8,8
 1476              		.comm	d_euler_data_h,8,8
 1477              		.comm	d_gyro_xyz,24,8
 1478              		.comm	d_gyro_dataz,8,8
 1479              		.comm	d_gyro_datay,8,8
 1480              		.comm	d_gyro_datax,8,8
 1481              		.comm	d_mag_xyz,24,8
 1482              		.comm	d_mag_dataz,8,8
 1483              		.comm	d_mag_datay,8,8
 1484              		.comm	d_mag_datax,8,8
 1485              		.comm	d_accel_xyz,24,8
 1486              		.comm	d_accel_dataz,8,8
 1487              		.comm	d_accel_datay,8,8
 1488              		.comm	d_accel_datax,8,8
 1489              		.comm	gravity_xyz,6,4
 1490              		.comm	gravity_data_z,2,2
 1491              		.comm	gravity_data_y,2,2
 1492              		.comm	gravity_data_x,2,2
 1493              		.comm	linear_acce_xyz,6,4
 1494              		.comm	linear_accel_data_z,2,2
 1495              		.comm	linear_accel_data_y,2,2
 1496              		.comm	linear_accel_data_x,2,2
 1497              		.comm	quaternion_wxyz,8,4
 1498              		.comm	quaternion_data_z,2,2
 1499              		.comm	quaternion_data_y,2,2
 1500              		.comm	quaternion_data_x,2,2
 1501              		.comm	quaternion_data_w,2,2
 1502              		.comm	euler_hrp,6,4
 1503              		.comm	euler_data_p,2,2
 1504              		.comm	euler_data_r,2,2
ARM GAS  C:\Users\TT\AppData\Local\Temp\ccOvo8nX.s 			page 40


 1505              		.comm	euler_data_h,2,2
 1506              		.comm	gyro_xyz,6,4
 1507              		.comm	gyro_dataz,2,2
 1508              		.comm	gyro_datay,2,2
 1509              		.comm	gyro_datax,2,2
 1510              		.comm	mag_xyz,6,4
 1511              		.comm	mag_dataz,2,2
 1512              		.comm	mag_datay,2,2
 1513              		.comm	mag_datax,2,2
 1514              		.comm	accel_xyz,6,4
 1515              		.comm	accel_dataz,2,2
 1516              		.comm	accel_datay,2,2
 1517              		.comm	accel_datax,2,2
 1518              		.comm	power_mode,1,1
 1519              		.comm	comres,4,4
 1520              		.comm	bno055,24,4
 1521              		.comm	debugOutput,32,4
 1522              		.section	.rodata.str1.4,"aMS",%progbits,1
 1523              		.align	2
 1524              	.LC11:
 1525 0000 43616E6E 		.ascii	"Cannot Send That Data Type!\012\015\000"
 1525      6F742053 
 1525      656E6420 
 1525      54686174 
 1525      20446174 
 1526 001e 0000     		.space	2
 1527              	.LC13:
 1528 0020 4F706572 		.ascii	"Operation Mode: \000"
 1528      6174696F 
 1528      6E204D6F 
 1528      64653A20 
 1528      00
 1529 0031 000000   		.space	3
 1530              	.LC16:
 1531 0034 0D0A0D0A 		.ascii	"\015\012\015\012\000"
 1531      00
 1532 0039 000000   		.space	3
 1533              	.LC18:
 1534 003c 57726974 		.ascii	"Writing Operation Mode\015\012\015\012\000"
 1534      696E6720 
 1534      4F706572 
 1534      6174696F 
 1534      6E204D6F 
 1535 0057 00       		.space	1
 1536              	.LC20:
 1537 0058 43616C69 		.ascii	"CalibStat: \000"
 1537      62537461 
 1537      743A2000 
 1538              	.LC24:
 1539 0064 41636365 		.ascii	"Acceleration Offset\015\012\000"
 1539      6C657261 
 1539      74696F6E 
 1539      204F6666 
 1539      7365740D 
 1540 007a 0000     		.space	2
 1541              	.LC26:
 1542 007c 58204F66 		.ascii	"X Offset: \000"
ARM GAS  C:\Users\TT\AppData\Local\Temp\ccOvo8nX.s 			page 41


 1542      66736574 
 1542      3A2000
 1543 0087 00       		.space	1
 1544              	.LC29:
 1545 0088 2C205920 		.ascii	", Y Offset: \000"
 1545      4F666673 
 1545      65743A20 
 1545      00
 1546 0095 000000   		.space	3
 1547              	.LC31:
 1548 0098 2C205A20 		.ascii	", Z Offset: \000"
 1548      4F666673 
 1548      65743A20 
 1548      00
 1549 00a5 000000   		.space	3
 1550              	.LC34:
 1551 00a8 4D61676E 		.ascii	"Magnetometer Offset\015\012\000"
 1551      65746F6D 
 1551      65746572 
 1551      204F6666 
 1551      7365740D 
 1552 00be 0000     		.space	2
 1553              	.LC41:
 1554 00c0 4779726F 		.ascii	"Gyro Offset\015\012\000"
 1554      204F6666 
 1554      7365740D 
 1554      0A00
 1555 00ce 0000     		.space	2
 1556              	.LC48:
 1557 00d0 52616469 		.ascii	"Radius Offset\015\012\000"
 1557      7573204F 
 1557      66667365 
 1557      740D0A00 
 1558              	.LC50:
 1559 00e0 4163634F 		.ascii	"AccOffset: \000"
 1559      66667365 
 1559      743A2000 
 1560              	.LC53:
 1561 00ec 2C204D61 		.ascii	", MagOffset: \000"
 1561      674F6666 
 1561      7365743A 
 1561      2000
 1562 00fa 0000     		.space	2
 1563              	.LC56:
 1564 00fc 57726974 		.ascii	"Writing Acceleration Offset\015\012\015\012\000"
 1564      696E6720 
 1564      41636365 
 1564      6C657261 
 1564      74696F6E 
 1565              	.LC58:
 1566 011c 57726974 		.ascii	"Writing Mag Offset\015\012\015\012\000"
 1566      696E6720 
 1566      4D616720 
 1566      4F666673 
 1566      65740D0A 
 1567 0133 00       		.space	1
 1568              	.LC60:
ARM GAS  C:\Users\TT\AppData\Local\Temp\ccOvo8nX.s 			page 42


 1569 0134 57726974 		.ascii	"Writing Gyro Offset\015\012\015\012\000"
 1569      696E6720 
 1569      4779726F 
 1569      204F6666 
 1569      7365740D 
 1570              	.LC62:
 1571 014c 57726974 		.ascii	"Writing Radius Offset\015\012\015\012\000"
 1571      696E6720 
 1571      52616469 
 1571      7573204F 
 1571      66667365 
 1572 0166 0000     		.space	2
 1573              	.LC64:
 1574 0168 41636320 		.ascii	"Acc Offset\015\012\000"
 1574      4F666673 
 1574      65740D0A 
 1574      00
 1575 0175 000000   		.space	3
 1576              	.LC70:
 1577 0178 2C205220 		.ascii	", R Offset: \000"
 1577      4F666673 
 1577      65743A20 
 1577      00
 1578 0185 000000   		.space	3
 1579              	.LC73:
 1580 0188 4D616720 		.ascii	"Mag Offset\015\012\000"
 1580      4F666673 
 1580      65740D0A 
 1580      00
 1581 0195 000000   		.space	3
 1582              	.LC75:
 1583 0198 0D0A00   		.ascii	"\015\012\000"
 1584 019b 00       		.space	1
 1585              	.LC77:
 1586 019c 0D0A2A2A 		.ascii	"\015\012***************\015\012IMU BOARD INITIALIZE"
 1586      2A2A2A2A 
 1586      2A2A2A2A 
 1586      2A2A2A2A 
 1586      2A0D0A49 
 1587 01c3 440A0D2A 		.ascii	"D\012\015***************\015\012\000"
 1587      2A2A2A2A 
 1587      2A2A2A2A 
 1587      2A2A2A2A 
 1587      2A2A0D0A 
 1588              		.bss
 1589              		.align	2
 1590              		.type	state, %object
 1591              		.size	state, 4
 1592              	state:
 1593 0000 00000000 		.space	4
 1594              		.text
 1595              	.Letext0:
 1596              		.file 2 "c:\\program files (x86)\\cypress\\psoc creator\\4.4\\psoc creator\\import\\gnu\\arm\\5.4.
 1597              		.file 3 "c:\\program files (x86)\\cypress\\psoc creator\\4.4\\psoc creator\\import\\gnu\\arm\\5.4.
 1598              		.file 4 ".\\MTK3339-Sensor-Driver/GPS.h"
 1599              		.file 5 "IMU.h"
 1600              		.file 6 ".\\HindsightCAN/CANPacket.h"
ARM GAS  C:\Users\TT\AppData\Local\Temp\ccOvo8nX.s 			page 43


 1601              		.file 7 "main.h"
 1602              		.file 8 "IMUDriver.h"
 1603              		.file 9 "Generated_Source\\PSoC4/DIP1.h"
 1604              		.file 10 "Generated_Source\\PSoC4/DIP2.h"
 1605              		.file 11 "Generated_Source\\PSoC4/DIP3.h"
 1606              		.file 12 "Generated_Source\\PSoC4/DIP4.h"
 1607              		.file 13 "Generated_Source\\PSoC4/DBG_UART_SPI_UART.h"
 1608              		.file 14 "CANIMU.h"
 1609              		.file 15 ".\\HindsightCAN/Port.h"
 1610              		.file 16 "Generated_Source\\PSoC4/DBG.h"
 1611              		.file 17 "Generated_Source\\PSoC4/CyLib.h"
 1612              		.file 18 "c:\\program files (x86)\\cypress\\psoc creator\\4.4\\psoc creator\\import\\gnu\\arm\\5.4
 1613              		.file 19 "Generated_Source\\PSoC4/DBG_UART.h"